ARM GAS  C:\Users\12990\AppData\Local\Temp\ccwcqFai.s 			page 1


   1              		.cpu cortex-m4
   2              		.arch armv7e-m
   3              		.fpu fpv4-sp-d16
   4              		.eabi_attribute 27, 1
   5              		.eabi_attribute 28, 1
   6              		.eabi_attribute 20, 1
   7              		.eabi_attribute 21, 1
   8              		.eabi_attribute 23, 3
   9              		.eabi_attribute 24, 1
  10              		.eabi_attribute 25, 1
  11              		.eabi_attribute 26, 1
  12              		.eabi_attribute 30, 1
  13              		.eabi_attribute 34, 1
  14              		.eabi_attribute 18, 4
  15              		.file	"MI_motor_drive.c"
  16              		.text
  17              	.Ltext0:
  18              		.cfi_sections	.debug_frame
  19              		.section	.text.FloatToUint,"ax",%progbits
  20              		.align	1
  21              		.global	FloatToUint
  22              		.syntax unified
  23              		.thumb
  24              		.thumb_func
  26              	FloatToUint:
  27              	.LVL0:
  28              	.LFB130:
  29              		.file 1 "modules/MI_motor_drive.c"
   1:modules/MI_motor_drive.c **** /**
   2:modules/MI_motor_drive.c ****   ****************************(C) COPYRIGHT 2023 POLARBEAR****************************
   3:modules/MI_motor_drive.c ****   * @file       MI_motor_drive.c
   4:modules/MI_motor_drive.c ****   * @brief      Â∞èÁ±≥ÁîµÊú∫CyberGearÈ©±Âä®
   5:modules/MI_motor_drive.c ****   * @note       
   6:modules/MI_motor_drive.c ****   * @history
   7:modules/MI_motor_drive.c ****   *  Version    Date            Author          Modification
   8:modules/MI_motor_drive.c ****   *  V1.0.0     Oct-11-2023     Â∞è‰ºÅÈπÖ           1. done
   9:modules/MI_motor_drive.c ****   *
  10:modules/MI_motor_drive.c ****   @verbatim
  11:modules/MI_motor_drive.c ****   ==============================================================================
  12:modules/MI_motor_drive.c **** 
  13:modules/MI_motor_drive.c ****   ==============================================================================
  14:modules/MI_motor_drive.c ****   @endverbatim
  15:modules/MI_motor_drive.c ****   ****************************(C) COPYRIGHT 2023 POLARBEAR****************************
  16:modules/MI_motor_drive.c ****   */
  17:modules/MI_motor_drive.c ****  
  18:modules/MI_motor_drive.c **** /* Includes -------------------------------------------------------------------*/
  19:modules/MI_motor_drive.c **** #include "MI_motor_drive.h"
  20:modules/MI_motor_drive.c **** 
  21:modules/MI_motor_drive.c **** CAN_TxHeaderTypeDef CAN_TxHeader_MI;
  22:modules/MI_motor_drive.c **** 
  23:modules/MI_motor_drive.c **** uint8_t MI_MASTERID = 1; //master id ÂèëÈÄÅÊåá‰ª§Êó∂EXTIDÁöÑbit8:15,ÂèçÈ¶àÁöÑbit0:7
  24:modules/MI_motor_drive.c **** uint8_t MI_TESTID = 253; //2024.3.5ÊµãËØï
  25:modules/MI_motor_drive.c **** 
  26:modules/MI_motor_drive.c **** /**
  27:modules/MI_motor_drive.c ****   * @brief          floatËΩ¨intÔºåÊï∞ÊçÆÊâìÂåÖÁî®
  28:modules/MI_motor_drive.c ****   * @param[in]      x floatÊï∞ÂÄº
  29:modules/MI_motor_drive.c ****   * @param[in]      x_min floatÊï∞ÂÄºÁöÑÊúÄÂ∞èÂÄº
ARM GAS  C:\Users\12990\AppData\Local\Temp\ccwcqFai.s 			page 2


  30:modules/MI_motor_drive.c ****   * @param[in]      x_max floatÊï∞ÂÄºÁöÑÊúÄÂ§ßÂÄº
  31:modules/MI_motor_drive.c ****   * @param[in]      bits  intÁöÑÊï∞ÊçÆ‰ΩçÊï∞
  32:modules/MI_motor_drive.c ****   * @retval         none
  33:modules/MI_motor_drive.c ****   */
  34:modules/MI_motor_drive.c **** uint32_t FloatToUint(float x, float x_min, float x_max, int bits)
  35:modules/MI_motor_drive.c **** {
  30              		.loc 1 35 1 view -0
  31              		.cfi_startproc
  32              		@ args = 0, pretend = 0, frame = 0
  33              		@ frame_needed = 0, uses_anonymous_args = 0
  34              		@ link register save eliminated.
  36:modules/MI_motor_drive.c ****     float span = x_max - x_min;
  35              		.loc 1 36 5 view .LVU1
  36              		.loc 1 36 11 is_stmt 0 view .LVU2
  37 0000 31EE607A 		vsub.f32	s14, s2, s1
  38              	.LVL1:
  37:modules/MI_motor_drive.c ****     float offset = x_min;
  39              		.loc 1 37 5 is_stmt 1 view .LVU3
  38:modules/MI_motor_drive.c ****     if(x > x_max) x=x_max;
  40              		.loc 1 38 5 view .LVU4
  41              		.loc 1 38 7 is_stmt 0 view .LVU5
  42 0004 B4EEC01A 		vcmpe.f32	s2, s0
  43 0008 F1EE10FA 		vmrs	APSR_nzcv, FPSCR
  44 000c 06D4     		bmi	.L2
  39:modules/MI_motor_drive.c ****     else if(x < x_min) x=x_min;
  45              		.loc 1 39 10 is_stmt 1 view .LVU6
  46              		.loc 1 39 12 is_stmt 0 view .LVU7
  47 000e F4EEC00A 		vcmpe.f32	s1, s0
  48 0012 F1EE10FA 		vmrs	APSR_nzcv, FPSCR
  49 0016 14DC     		bgt	.L3
  50 0018 B0EE401A 		vmov.f32	s2, s0
  51              	.LVL2:
  52              	.L2:
  40:modules/MI_motor_drive.c ****     return (uint32_t) ((x-offset)*((float)((1<<bits)-1))/span);
  53              		.loc 1 40 5 is_stmt 1 view .LVU8
  54              		.loc 1 40 26 is_stmt 0 view .LVU9
  55 001c 71EE600A 		vsub.f32	s1, s2, s1
  56              	.LVL3:
  57              		.loc 1 40 46 view .LVU10
  58 0020 0123     		movs	r3, #1
  59 0022 03FA00F0 		lsl	r0, r3, r0
  60              	.LVL4:
  61              		.loc 1 40 53 view .LVU11
  62 0026 431E     		subs	r3, r0, #1
  63 0028 01EE103A 		vmov	s2, r3	@ int
  64              	.LVL5:
  65              		.loc 1 40 36 view .LVU12
  66 002c B8EEC11A 		vcvt.f32.s32	s2, s2
  67              		.loc 1 40 34 view .LVU13
  68 0030 20EE811A 		vmul.f32	s2, s1, s2
  69              		.loc 1 40 57 view .LVU14
  70 0034 C1EE077A 		vdiv.f32	s15, s2, s14
  41:modules/MI_motor_drive.c **** }
  71              		.loc 1 41 1 view .LVU15
  72 0038 FCEEE77A 		vcvt.u32.f32	s15, s15
  73 003c 17EE900A 		vmov	r0, s15	@ int
  74 0040 7047     		bx	lr
ARM GAS  C:\Users\12990\AppData\Local\Temp\ccwcqFai.s 			page 3


  75              	.LVL6:
  76              	.L3:
  39:modules/MI_motor_drive.c ****     else if(x < x_min) x=x_min;
  77              		.loc 1 39 25 view .LVU16
  78 0042 B0EE601A 		vmov.f32	s2, s1
  79              	.LVL7:
  39:modules/MI_motor_drive.c ****     else if(x < x_min) x=x_min;
  80              		.loc 1 39 25 view .LVU17
  81 0046 E9E7     		b	.L2
  82              		.cfi_endproc
  83              	.LFE130:
  85              		.section	.text.RangeRestrict,"ax",%progbits
  86              		.align	1
  87              		.global	RangeRestrict
  88              		.syntax unified
  89              		.thumb
  90              		.thumb_func
  92              	RangeRestrict:
  93              	.LVL8:
  94              	.LFB131:
  42:modules/MI_motor_drive.c **** 
  43:modules/MI_motor_drive.c **** /**
  44:modules/MI_motor_drive.c ****   * @brief          ËæìÂÖ•ËåÉÂõ¥ÈôêÂà∂
  45:modules/MI_motor_drive.c ****   * @param[in]      x ËæìÂÖ•Êï∞ÂÄº
  46:modules/MI_motor_drive.c ****   * @param[in]      x_min ËæìÂÖ•Êï∞ÂÄºÁöÑÊúÄÂ∞èÂÄº
  47:modules/MI_motor_drive.c ****   * @param[in]      x_max ËæìÂÖ•Êï∞ÂÄºÁöÑÊúÄÂ§ßÂÄº
  48:modules/MI_motor_drive.c ****   * @retval         none
  49:modules/MI_motor_drive.c ****   */
  50:modules/MI_motor_drive.c **** float RangeRestrict(float x, float x_min, float x_max)
  51:modules/MI_motor_drive.c **** {
  95              		.loc 1 51 1 is_stmt 1 view -0
  96              		.cfi_startproc
  97              		@ args = 0, pretend = 0, frame = 0
  98              		@ frame_needed = 0, uses_anonymous_args = 0
  99              		@ link register save eliminated.
 100              		.loc 1 51 1 is_stmt 0 view .LVU19
 101 0000 F0EE407A 		vmov.f32	s15, s0
 102 0004 B0EE410A 		vmov.f32	s0, s2
 103              	.LVL9:
  52:modules/MI_motor_drive.c ****     float res;
 104              		.loc 1 52 5 is_stmt 1 view .LVU20
  53:modules/MI_motor_drive.c ****     if(x > x_max) res=x_max;
 105              		.loc 1 53 5 view .LVU21
 106              		.loc 1 53 7 is_stmt 0 view .LVU22
 107 0008 F4EEC17A 		vcmpe.f32	s15, s2
 108 000c F1EE10FA 		vmrs	APSR_nzcv, FPSCR
 109 0010 09DC     		bgt	.L5
  54:modules/MI_motor_drive.c ****     else if(x < x_min) res=x_min;
 110              		.loc 1 54 10 is_stmt 1 view .LVU23
 111              		.loc 1 54 12 is_stmt 0 view .LVU24
 112 0012 F4EEE07A 		vcmpe.f32	s15, s1
 113 0016 F1EE10FA 		vmrs	APSR_nzcv, FPSCR
 114 001a 02D5     		bpl	.L9
 115              		.loc 1 54 27 view .LVU25
 116 001c B0EE600A 		vmov.f32	s0, s1
 117 0020 7047     		bx	lr
 118              	.LVL10:
ARM GAS  C:\Users\12990\AppData\Local\Temp\ccwcqFai.s 			page 4


 119              	.L9:
  55:modules/MI_motor_drive.c ****     else res = x;
 120              		.loc 1 55 14 view .LVU26
 121 0022 B0EE670A 		vmov.f32	s0, s15
 122              	.LVL11:
 123              	.L5:
  56:modules/MI_motor_drive.c ****     return res;
 124              		.loc 1 56 5 is_stmt 1 view .LVU27
  57:modules/MI_motor_drive.c **** }
 125              		.loc 1 57 1 is_stmt 0 view .LVU28
 126 0026 7047     		bx	lr
 127              		.cfi_endproc
 128              	.LFE131:
 130              		.section	.text.MI_motor_Init,"ax",%progbits
 131              		.align	1
 132              		.global	MI_motor_Init
 133              		.syntax unified
 134              		.thumb
 135              		.thumb_func
 137              	MI_motor_Init:
 138              	.LVL12:
 139              	.LFB132:
  58:modules/MI_motor_drive.c **** 
  59:modules/MI_motor_drive.c **** /**
  60:modules/MI_motor_drive.c ****   * @brief          Â∞èÁ±≥ÁîµÊú∫ÂàùÂßãÂåñ
  61:modules/MI_motor_drive.c ****   * @param[out]     hmotor ÁîµÊú∫ÁªìÊûÑ‰Ωì
  62:modules/MI_motor_drive.c ****   * @param[in]      phcan canÊÄªÁ∫øÂè•ÊüÑ
  63:modules/MI_motor_drive.c ****   * @retval         none
  64:modules/MI_motor_drive.c ****   */
  65:modules/MI_motor_drive.c **** void MI_motor_Init(MI_Motor_s* hmotor,CAN_HandleTypeDef *phcan, uint8_t motor_id)
  66:modules/MI_motor_drive.c **** {
 140              		.loc 1 66 1 is_stmt 1 view -0
 141              		.cfi_startproc
 142              		@ args = 0, pretend = 0, frame = 0
 143              		@ frame_needed = 0, uses_anonymous_args = 0
 144              		@ link register save eliminated.
  67:modules/MI_motor_drive.c ****     hmotor->phcan = phcan;
 145              		.loc 1 67 5 view .LVU30
 146              		.loc 1 67 19 is_stmt 0 view .LVU31
 147 0000 0160     		str	r1, [r0]
  68:modules/MI_motor_drive.c ****     hmotor->motor_id = motor_id;
 148              		.loc 1 68 5 is_stmt 1 view .LVU32
 149              		.loc 1 68 22 is_stmt 0 view .LVU33
 150 0002 8272     		strb	r2, [r0, #10]
  69:modules/MI_motor_drive.c **** }
 151              		.loc 1 69 1 view .LVU34
 152 0004 7047     		bx	lr
 153              		.cfi_endproc
 154              	.LFE132:
 156              		.section	.text.MI_motor_CanTx,"ax",%progbits
 157              		.align	1
 158              		.global	MI_motor_CanTx
 159              		.syntax unified
 160              		.thumb
 161              		.thumb_func
 163              	MI_motor_CanTx:
 164              	.LVL13:
ARM GAS  C:\Users\12990\AppData\Local\Temp\ccwcqFai.s 			page 5


 165              	.LFB133:
  70:modules/MI_motor_drive.c **** 
  71:modules/MI_motor_drive.c **** /**
  72:modules/MI_motor_drive.c ****   * @brief          Â∞èÁ±≥ÁîµÊú∫CANÈÄö‰ø°ÂèëÈÄÅ
  73:modules/MI_motor_drive.c ****   * @param[in]      hmotor ÁîµÊú∫ÁªìÊûÑ‰Ωì
  74:modules/MI_motor_drive.c ****   * @retval         none
  75:modules/MI_motor_drive.c ****   */
  76:modules/MI_motor_drive.c **** void MI_motor_CanTx(MI_Motor_s* hmotor)
  77:modules/MI_motor_drive.c **** {
 166              		.loc 1 77 1 is_stmt 1 view -0
 167              		.cfi_startproc
 168              		@ args = 0, pretend = 0, frame = 8
 169              		@ frame_needed = 0, uses_anonymous_args = 0
 170              		.loc 1 77 1 is_stmt 0 view .LVU36
 171 0000 00B5     		push	{lr}
 172              	.LCFI0:
 173              		.cfi_def_cfa_offset 4
 174              		.cfi_offset 14, -4
 175 0002 83B0     		sub	sp, sp, #12
 176              	.LCFI1:
 177              		.cfi_def_cfa_offset 16
 178 0004 0246     		mov	r2, r0
  78:modules/MI_motor_drive.c ****     CAN_TxHeader_MI.DLC = 8;          //Êï∞ÊçÆÈïøÂ∫¶8‰Ωç
 179              		.loc 1 78 5 is_stmt 1 view .LVU37
 180              		.loc 1 78 25 is_stmt 0 view .LVU38
 181 0006 0949     		ldr	r1, .L13
 182 0008 0823     		movs	r3, #8
 183 000a 0B61     		str	r3, [r1, #16]
  79:modules/MI_motor_drive.c ****     CAN_TxHeader_MI.IDE = CAN_ID_EXT; //Êâ©Â±ïID
 184              		.loc 1 79 5 is_stmt 1 view .LVU39
 185              		.loc 1 79 25 is_stmt 0 view .LVU40
 186 000c 0423     		movs	r3, #4
 187 000e 8B60     		str	r3, [r1, #8]
  80:modules/MI_motor_drive.c ****     CAN_TxHeader_MI.RTR = CAN_RTR_DATA;
 188              		.loc 1 80 5 is_stmt 1 view .LVU41
 189              		.loc 1 80 25 is_stmt 0 view .LVU42
 190 0010 0023     		movs	r3, #0
 191 0012 CB60     		str	r3, [r1, #12]
  81:modules/MI_motor_drive.c ****     CAN_TxHeader_MI.ExtId = *((uint32_t*)&(hmotor->EXT_ID));
 192              		.loc 1 81 5 is_stmt 1 view .LVU43
 193              		.loc 1 81 29 is_stmt 0 view .LVU44
 194 0014 D0F80630 		ldr	r3, [r0, #6]
 195              		.loc 1 81 27 view .LVU45
 196 0018 4B60     		str	r3, [r1, #4]
  82:modules/MI_motor_drive.c ****     // /*Ê£ÄÊµãÂèØÁî®ÁöÑÂèëÈÄÅÈÇÆÁÆ±*/
  83:modules/MI_motor_drive.c ****     // uint32_t free_TxMailbox = HAL_CAN_GetTxMailboxesFreeLevel(hmotor->phcan);//Ê£ÄÊµãÊòØÂê¶ÊúâÁ©
  84:modules/MI_motor_drive.c ****     // while (free_TxMailbox<3){//Á≠âÂæÖÁ©∫Èó≤ÈÇÆÁÆ±Êï∞ËææÂà∞3
  85:modules/MI_motor_drive.c ****     //     free_TxMailbox = HAL_CAN_GetTxMailboxesFreeLevel(hmotor->phcan);
  86:modules/MI_motor_drive.c ****     // }
  87:modules/MI_motor_drive.c ****     // /* Â∞ÜÂèëÈÄÅ‰ø°ÊÅØÊ∑ªÂä†Âà∞ÂèëÈÄÅÈÇÆÁÆ±‰∏≠ */
  88:modules/MI_motor_drive.c ****     uint32_t mailbox;
 197              		.loc 1 88 5 is_stmt 1 view .LVU46
  89:modules/MI_motor_drive.c ****     HAL_CAN_AddTxMessage(hmotor->phcan, &CAN_TxHeader_MI, hmotor->txdata, &mailbox);//Â∞ÜÂèëÈÄÅÁöÑÊ
 198              		.loc 1 89 5 view .LVU47
 199 001a 52F80B0B 		ldr	r0, [r2], #11
 200              	.LVL14:
 201              		.loc 1 89 5 is_stmt 0 view .LVU48
ARM GAS  C:\Users\12990\AppData\Local\Temp\ccwcqFai.s 			page 6


 202 001e 01AB     		add	r3, sp, #4
 203 0020 FFF7FEFF 		bl	HAL_CAN_AddTxMessage
 204              	.LVL15:
  90:modules/MI_motor_drive.c **** }
 205              		.loc 1 90 1 view .LVU49
 206 0024 03B0     		add	sp, sp, #12
 207              	.LCFI2:
 208              		.cfi_def_cfa_offset 4
 209              		@ sp needed
 210 0026 5DF804FB 		ldr	pc, [sp], #4
 211              	.L14:
 212 002a 00BF     		.align	2
 213              	.L13:
 214 002c 00000000 		.word	.LANCHOR0
 215              		.cfi_endproc
 216              	.LFE133:
 218              		.section	.text.MI_motor_GetID,"ax",%progbits
 219              		.align	1
 220              		.global	MI_motor_GetID
 221              		.syntax unified
 222              		.thumb
 223              		.thumb_func
 225              	MI_motor_GetID:
 226              	.LVL16:
 227              	.LFB134:
  91:modules/MI_motor_drive.c **** 
  92:modules/MI_motor_drive.c **** /*-------------------- ÊåâÁÖßÂ∞èÁ±≥ÁîµÊú∫ÊñáÊ°£ÂÜôÁöÑÂêÑÁßçÈÄö‰ø°Á±ªÂûã --------------------*/
  93:modules/MI_motor_drive.c **** 
  94:modules/MI_motor_drive.c **** /**
  95:modules/MI_motor_drive.c ****   * @brief          Ëé∑ÂèñËÆæÂ§áID ÔºàÈÄö‰ø°Á±ªÂûã0ÔºâÔºåÈúÄÂú®ÁîµÊú∫‰ΩøËÉΩÂâç‰ΩøÁî®
  96:modules/MI_motor_drive.c ****   * @param[in]      hmotor ÁîµÊú∫ÁªìÊûÑ‰Ωì
  97:modules/MI_motor_drive.c ****   * @retval         none
  98:modules/MI_motor_drive.c ****   */
  99:modules/MI_motor_drive.c **** void MI_motor_GetID(MI_Motor_s* hmotor)
 100:modules/MI_motor_drive.c **** {
 228              		.loc 1 100 1 is_stmt 1 view -0
 229              		.cfi_startproc
 230              		@ args = 0, pretend = 0, frame = 0
 231              		@ frame_needed = 0, uses_anonymous_args = 0
 232              		.loc 1 100 1 is_stmt 0 view .LVU51
 233 0000 08B5     		push	{r3, lr}
 234              	.LCFI3:
 235              		.cfi_def_cfa_offset 8
 236              		.cfi_offset 3, -8
 237              		.cfi_offset 14, -4
 101:modules/MI_motor_drive.c ****     hmotor->EXT_ID.mode = 0;
 238              		.loc 1 101 5 is_stmt 1 view .LVU52
 239              		.loc 1 101 25 is_stmt 0 view .LVU53
 240 0002 437A     		ldrb	r3, [r0, #9]	@ zero_extendqisi2
 241 0004 6FF30403 		bfc	r3, #0, #5
 242 0008 4372     		strb	r3, [r0, #9]
 102:modules/MI_motor_drive.c ****     hmotor->EXT_ID.data = 0;
 243              		.loc 1 102 5 is_stmt 1 view .LVU54
 244              		.loc 1 102 25 is_stmt 0 view .LVU55
 245 000a 0023     		movs	r3, #0
 246 000c C371     		strb	r3, [r0, #7]
 247 000e 0372     		strb	r3, [r0, #8]
ARM GAS  C:\Users\12990\AppData\Local\Temp\ccwcqFai.s 			page 7


 103:modules/MI_motor_drive.c ****     hmotor->EXT_ID.motor_id = 0;
 248              		.loc 1 103 5 is_stmt 1 view .LVU56
 249              		.loc 1 103 29 is_stmt 0 view .LVU57
 250 0010 8371     		strb	r3, [r0, #6]
 104:modules/MI_motor_drive.c ****     hmotor->EXT_ID.res = 0;
 251              		.loc 1 104 5 is_stmt 1 view .LVU58
 252              		.loc 1 104 24 is_stmt 0 view .LVU59
 253 0012 427A     		ldrb	r2, [r0, #9]	@ zero_extendqisi2
 254 0014 63F34712 		bfi	r2, r3, #5, #3
 255 0018 4272     		strb	r2, [r0, #9]
 105:modules/MI_motor_drive.c ****  
 106:modules/MI_motor_drive.c ****     for(uint8_t i=0; i<8; i++)
 256              		.loc 1 106 5 is_stmt 1 view .LVU60
 257              	.LBB2:
 258              		.loc 1 106 9 view .LVU61
 259              	.LVL17:
 260              		.loc 1 106 5 is_stmt 0 view .LVU62
 261 001a 04E0     		b	.L16
 262              	.LVL18:
 263              	.L17:
 107:modules/MI_motor_drive.c ****     {
 108:modules/MI_motor_drive.c ****         hmotor->txdata[i]=0;
 264              		.loc 1 108 9 is_stmt 1 discriminator 3 view .LVU63
 265              		.loc 1 108 26 is_stmt 0 discriminator 3 view .LVU64
 266 001c C218     		adds	r2, r0, r3
 267 001e 0021     		movs	r1, #0
 268 0020 D172     		strb	r1, [r2, #11]
 106:modules/MI_motor_drive.c ****     {
 269              		.loc 1 106 27 is_stmt 1 discriminator 3 view .LVU65
 106:modules/MI_motor_drive.c ****     {
 270              		.loc 1 106 28 is_stmt 0 discriminator 3 view .LVU66
 271 0022 0133     		adds	r3, r3, #1
 272              	.LVL19:
 106:modules/MI_motor_drive.c ****     {
 273              		.loc 1 106 28 discriminator 3 view .LVU67
 274 0024 DBB2     		uxtb	r3, r3
 275              	.LVL20:
 276              	.L16:
 106:modules/MI_motor_drive.c ****     {
 277              		.loc 1 106 22 is_stmt 1 discriminator 1 view .LVU68
 106:modules/MI_motor_drive.c ****     {
 278              		.loc 1 106 5 is_stmt 0 discriminator 1 view .LVU69
 279 0026 072B     		cmp	r3, #7
 280 0028 F8D9     		bls	.L17
 281              	.LBE2:
 109:modules/MI_motor_drive.c ****     }
 110:modules/MI_motor_drive.c ****     
 111:modules/MI_motor_drive.c ****     MI_motor_CanTx(hmotor);
 282              		.loc 1 111 5 is_stmt 1 view .LVU70
 283 002a FFF7FEFF 		bl	MI_motor_CanTx
 284              	.LVL21:
 112:modules/MI_motor_drive.c **** }
 285              		.loc 1 112 1 is_stmt 0 view .LVU71
 286 002e 08BD     		pop	{r3, pc}
 287              		.cfi_endproc
 288              	.LFE134:
 290              		.section	.text.MI_motor_Control,"ax",%progbits
ARM GAS  C:\Users\12990\AppData\Local\Temp\ccwcqFai.s 			page 8


 291              		.align	1
 292              		.global	MI_motor_Control
 293              		.syntax unified
 294              		.thumb
 295              		.thumb_func
 297              	MI_motor_Control:
 298              	.LVL22:
 299              	.LFB135:
 113:modules/MI_motor_drive.c **** 
 114:modules/MI_motor_drive.c **** /**
 115:modules/MI_motor_drive.c ****   * @brief          ËøêÊéßÊ®°ÂºèÁîµÊú∫ÊéßÂà∂Êåá‰ª§ÔºàÈÄö‰ø°Á±ªÂûã1Ôºâ
 116:modules/MI_motor_drive.c ****   * @param[in]      hmotor ÁîµÊú∫ÁªìÊûÑ‰Ωì
 117:modules/MI_motor_drive.c ****   * @param[in]      torque ÁõÆÊ†áÂäõÁü©
 118:modules/MI_motor_drive.c ****   * @param[in]      MechPosition 
 119:modules/MI_motor_drive.c ****   * @param[in]      speed 
 120:modules/MI_motor_drive.c ****   * @param[in]      kp 
 121:modules/MI_motor_drive.c ****   * @param[in]      kd 
 122:modules/MI_motor_drive.c ****   * @retval         none
 123:modules/MI_motor_drive.c ****   */
 124:modules/MI_motor_drive.c **** void MI_motor_Control(MI_Motor_s* hmotor, float torque, float MechPosition , float speed , float kp
 125:modules/MI_motor_drive.c **** {
 300              		.loc 1 125 1 is_stmt 1 view -0
 301              		.cfi_startproc
 302              		@ args = 0, pretend = 0, frame = 0
 303              		@ frame_needed = 0, uses_anonymous_args = 0
 304              		.loc 1 125 1 is_stmt 0 view .LVU73
 305 0000 10B5     		push	{r4, lr}
 306              	.LCFI4:
 307              		.cfi_def_cfa_offset 8
 308              		.cfi_offset 4, -8
 309              		.cfi_offset 14, -4
 310 0002 2DED048B 		vpush.64	{d8, d9}
 311              	.LCFI5:
 312              		.cfi_def_cfa_offset 24
 313              		.cfi_offset 80, -24
 314              		.cfi_offset 81, -20
 315              		.cfi_offset 82, -16
 316              		.cfi_offset 83, -12
 317 0006 0446     		mov	r4, r0
 318 0008 F0EE609A 		vmov.f32	s19, s1
 319 000c B0EE419A 		vmov.f32	s18, s2
 320 0010 F0EE618A 		vmov.f32	s17, s3
 321 0014 B0EE428A 		vmov.f32	s16, s4
 126:modules/MI_motor_drive.c ****     hmotor->EXT_ID.mode = 1;
 322              		.loc 1 126 5 is_stmt 1 view .LVU74
 323              		.loc 1 126 25 is_stmt 0 view .LVU75
 324 0018 437A     		ldrb	r3, [r0, #9]	@ zero_extendqisi2
 325 001a 0122     		movs	r2, #1
 326 001c 62F30403 		bfi	r3, r2, #0, #5
 327 0020 4372     		strb	r3, [r0, #9]
 127:modules/MI_motor_drive.c ****     hmotor->EXT_ID.motor_id = hmotor->motor_id;
 328              		.loc 1 127 5 is_stmt 1 view .LVU76
 329              		.loc 1 127 37 is_stmt 0 view .LVU77
 330 0022 837A     		ldrb	r3, [r0, #10]	@ zero_extendqisi2
 331              		.loc 1 127 29 view .LVU78
 332 0024 8371     		strb	r3, [r0, #6]
 128:modules/MI_motor_drive.c ****     hmotor->EXT_ID.data = FloatToUint(torque,T_MIN,T_MAX,16);
ARM GAS  C:\Users\12990\AppData\Local\Temp\ccwcqFai.s 			page 9


 333              		.loc 1 128 5 is_stmt 1 view .LVU79
 334              		.loc 1 128 27 is_stmt 0 view .LVU80
 335 0026 1020     		movs	r0, #16
 336              	.LVL23:
 337              		.loc 1 128 27 view .LVU81
 338 0028 B2EE081A 		vmov.f32	s2, #1.2e+1
 339              	.LVL24:
 340              		.loc 1 128 27 view .LVU82
 341 002c FAEE080A 		vmov.f32	s1, #-1.2e+1
 342              	.LVL25:
 343              		.loc 1 128 27 view .LVU83
 344 0030 FFF7FEFF 		bl	FloatToUint
 345              	.LVL26:
 346              		.loc 1 128 25 view .LVU84
 347 0034 A4F80700 		strh	r0, [r4, #7]	@ unaligned
 129:modules/MI_motor_drive.c ****     hmotor->EXT_ID.res = 0;
 348              		.loc 1 129 5 is_stmt 1 view .LVU85
 349              		.loc 1 129 24 is_stmt 0 view .LVU86
 350 0038 637A     		ldrb	r3, [r4, #9]	@ zero_extendqisi2
 351 003a 6FF34713 		bfc	r3, #5, #3
 352 003e 6372     		strb	r3, [r4, #9]
 130:modules/MI_motor_drive.c ****  
 131:modules/MI_motor_drive.c ****     hmotor->txdata[0]=FloatToUint(MechPosition,P_MIN,P_MAX,16)>>8;
 353              		.loc 1 131 5 is_stmt 1 view .LVU87
 354              		.loc 1 131 23 is_stmt 0 view .LVU88
 355 0040 1020     		movs	r0, #16
 356 0042 B2EE091A 		vmov.f32	s2, #1.25e+1
 357 0046 FAEE090A 		vmov.f32	s1, #-1.25e+1
 358 004a B0EE690A 		vmov.f32	s0, s19
 359 004e FFF7FEFF 		bl	FloatToUint
 360              	.LVL27:
 361              		.loc 1 131 63 view .LVU89
 362 0052 030A     		lsrs	r3, r0, #8
 363              		.loc 1 131 22 view .LVU90
 364 0054 E372     		strb	r3, [r4, #11]
 132:modules/MI_motor_drive.c ****     hmotor->txdata[1]=FloatToUint(MechPosition,P_MIN,P_MAX,16);
 365              		.loc 1 132 5 is_stmt 1 view .LVU91
 366              		.loc 1 132 22 is_stmt 0 view .LVU92
 367 0056 2073     		strb	r0, [r4, #12]
 133:modules/MI_motor_drive.c ****     hmotor->txdata[2]=FloatToUint(speed,V_MIN,V_MAX,16)>>8;
 368              		.loc 1 133 5 is_stmt 1 view .LVU93
 369              		.loc 1 133 23 is_stmt 0 view .LVU94
 370 0058 1020     		movs	r0, #16
 371 005a B3EE0E1A 		vmov.f32	s2, #3.0e+1
 372 005e FBEE0E0A 		vmov.f32	s1, #-3.0e+1
 373 0062 B0EE490A 		vmov.f32	s0, s18
 374 0066 FFF7FEFF 		bl	FloatToUint
 375              	.LVL28:
 376              		.loc 1 133 56 view .LVU95
 377 006a 030A     		lsrs	r3, r0, #8
 378              		.loc 1 133 22 view .LVU96
 379 006c 6373     		strb	r3, [r4, #13]
 134:modules/MI_motor_drive.c ****     hmotor->txdata[3]=FloatToUint(speed,V_MIN,V_MAX,16);
 380              		.loc 1 134 5 is_stmt 1 view .LVU97
 381              		.loc 1 134 22 is_stmt 0 view .LVU98
 382 006e A073     		strb	r0, [r4, #14]
 135:modules/MI_motor_drive.c ****     hmotor->txdata[4]=FloatToUint(kp,KP_MIN,KP_MAX,16)>>8;
ARM GAS  C:\Users\12990\AppData\Local\Temp\ccwcqFai.s 			page 10


 383              		.loc 1 135 5 is_stmt 1 view .LVU99
 384              		.loc 1 135 23 is_stmt 0 view .LVU100
 385 0070 9FED0F9A 		vldr.32	s18, .L21
 386              	.LVL29:
 387              		.loc 1 135 23 view .LVU101
 388 0074 1020     		movs	r0, #16
 389 0076 9FED0F1A 		vldr.32	s2, .L21+4
 390 007a F0EE490A 		vmov.f32	s1, s18
 391 007e B0EE680A 		vmov.f32	s0, s17
 392 0082 FFF7FEFF 		bl	FloatToUint
 393              	.LVL30:
 394              		.loc 1 135 55 view .LVU102
 395 0086 030A     		lsrs	r3, r0, #8
 396              		.loc 1 135 22 view .LVU103
 397 0088 E373     		strb	r3, [r4, #15]
 136:modules/MI_motor_drive.c ****     hmotor->txdata[5]=FloatToUint(kp,KP_MIN,KP_MAX,16);
 398              		.loc 1 136 5 is_stmt 1 view .LVU104
 399              		.loc 1 136 22 is_stmt 0 view .LVU105
 400 008a 2074     		strb	r0, [r4, #16]
 137:modules/MI_motor_drive.c ****     hmotor->txdata[6]=FloatToUint(kd,KD_MIN,KD_MAX,16)>>8;
 401              		.loc 1 137 5 is_stmt 1 view .LVU106
 402              		.loc 1 137 23 is_stmt 0 view .LVU107
 403 008c 1020     		movs	r0, #16
 404 008e B1EE041A 		vmov.f32	s2, #5.0e+0
 405 0092 F0EE490A 		vmov.f32	s1, s18
 406 0096 B0EE480A 		vmov.f32	s0, s16
 407 009a FFF7FEFF 		bl	FloatToUint
 408              	.LVL31:
 409              		.loc 1 137 55 view .LVU108
 410 009e 030A     		lsrs	r3, r0, #8
 411              		.loc 1 137 22 view .LVU109
 412 00a0 6374     		strb	r3, [r4, #17]
 138:modules/MI_motor_drive.c ****     hmotor->txdata[7]=FloatToUint(kd,KD_MIN,KD_MAX,16);
 413              		.loc 1 138 5 is_stmt 1 view .LVU110
 414              		.loc 1 138 22 is_stmt 0 view .LVU111
 415 00a2 A074     		strb	r0, [r4, #18]
 139:modules/MI_motor_drive.c **** 
 140:modules/MI_motor_drive.c ****     MI_motor_CanTx(hmotor);
 416              		.loc 1 140 5 is_stmt 1 view .LVU112
 417 00a4 2046     		mov	r0, r4
 418 00a6 FFF7FEFF 		bl	MI_motor_CanTx
 419              	.LVL32:
 141:modules/MI_motor_drive.c **** }
 420              		.loc 1 141 1 is_stmt 0 view .LVU113
 421 00aa BDEC048B 		vldm	sp!, {d8-d9}
 422              	.LCFI6:
 423              		.cfi_restore 82
 424              		.cfi_restore 83
 425              		.cfi_restore 80
 426              		.cfi_restore 81
 427              		.cfi_def_cfa_offset 8
 428              	.LVL33:
 429              		.loc 1 141 1 view .LVU114
 430 00ae 10BD     		pop	{r4, pc}
 431              	.LVL34:
 432              	.L22:
 433              		.loc 1 141 1 view .LVU115
ARM GAS  C:\Users\12990\AppData\Local\Temp\ccwcqFai.s 			page 11


 434              		.align	2
 435              	.L21:
 436 00b0 00000000 		.word	0
 437 00b4 0000FA43 		.word	1140457472
 438              		.cfi_endproc
 439              	.LFE135:
 441              		.global	__aeabi_f2d
 442              		.global	__aeabi_dsub
 443              		.global	__aeabi_ddiv
 444              		.global	__aeabi_dmul
 445              		.global	__aeabi_d2f
 446              		.section	.text.MI_motor_RxDecode,"ax",%progbits
 447              		.align	1
 448              		.global	MI_motor_RxDecode
 449              		.syntax unified
 450              		.thumb
 451              		.thumb_func
 453              	MI_motor_RxDecode:
 454              	.LVL35:
 455              	.LFB136:
 142:modules/MI_motor_drive.c **** 
 143:modules/MI_motor_drive.c **** /**
 144:modules/MI_motor_drive.c ****   * @brief          Â∞èÁ±≥ÁîµÊú∫ÂèçÈ¶àÂ∏ßËß£Á†ÅÔºàÈÄö‰ø°Á±ªÂûã2Ôºâ
 145:modules/MI_motor_drive.c ****   * @param[in]      Rx_can_info Êé•ÂèóÂà∞ÁöÑÁîµÊú∫Êï∞ÊçÆÁªìÊûÑ‰Ωì
 146:modules/MI_motor_drive.c ****   * @param[in]      rx_data[8] CANÁ∫øÊé•Êî∂Âà∞ÁöÑÊï∞ÊçÆ
 147:modules/MI_motor_drive.c ****   * @note           Â∞ÜÊé•Êî∂Âà∞ÁöÑCANÁ∫øÊï∞ÊçÆËß£Á†ÅÂà∞ÁîµÊú∫Êï∞ÊçÆÁªìÊûÑ‰Ωì‰∏≠
 148:modules/MI_motor_drive.c ****   * @retval         none
 149:modules/MI_motor_drive.c ****   */
 150:modules/MI_motor_drive.c **** void MI_motor_RxDecode(RxCAN_info_type_2_s* RxCAN_info,uint8_t rx_data[8])
 151:modules/MI_motor_drive.c **** {
 456              		.loc 1 151 1 is_stmt 1 view -0
 457              		.cfi_startproc
 458              		@ args = 0, pretend = 0, frame = 0
 459              		@ frame_needed = 0, uses_anonymous_args = 0
 460              		.loc 1 151 1 is_stmt 0 view .LVU117
 461 0000 38B5     		push	{r3, r4, r5, lr}
 462              	.LCFI7:
 463              		.cfi_def_cfa_offset 16
 464              		.cfi_offset 3, -16
 465              		.cfi_offset 4, -12
 466              		.cfi_offset 5, -8
 467              		.cfi_offset 14, -4
 468 0002 0546     		mov	r5, r0
 469 0004 0C46     		mov	r4, r1
 152:modules/MI_motor_drive.c ****     uint16_t decode_temp_mi;//Â∞èÁ±≥ÁîµÊú∫ÂèçÈ¶àÊï∞ÊçÆËß£Á†ÅÁºìÂÜ≤
 470              		.loc 1 152 5 is_stmt 1 view .LVU118
 153:modules/MI_motor_drive.c ****     decode_temp_mi = (rx_data[0] << 8 | rx_data[1]);
 471              		.loc 1 153 5 view .LVU119
 472              		.loc 1 153 30 is_stmt 0 view .LVU120
 473 0006 0B78     		ldrb	r3, [r1]	@ zero_extendqisi2
 474              		.loc 1 153 48 view .LVU121
 475 0008 4878     		ldrb	r0, [r1, #1]	@ zero_extendqisi2
 476              	.LVL36:
 477              		.loc 1 153 20 view .LVU122
 478 000a 40EA0320 		orr	r0, r0, r3, lsl #8
 479              	.LVL37:
 154:modules/MI_motor_drive.c ****     RxCAN_info->angle = ((float)decode_temp_mi-32767.5)/32767.5*4*3.1415926f;;
ARM GAS  C:\Users\12990\AppData\Local\Temp\ccwcqFai.s 			page 12


 480              		.loc 1 154 5 is_stmt 1 view .LVU123
 481              		.loc 1 154 26 is_stmt 0 view .LVU124
 482 000e 07EE900A 		vmov	s15, r0	@ int
 483 0012 F8EE677A 		vcvt.f32.u32	s15, s15
 484 0016 17EE900A 		vmov	r0, s15
 485              	.LVL38:
 486              		.loc 1 154 26 view .LVU125
 487 001a FFF7FEFF 		bl	__aeabi_f2d
 488              	.LVL39:
 489              		.loc 1 154 47 view .LVU126
 490 001e 0022     		movs	r2, #0
 491 0020 2F4B     		ldr	r3, .L25+8
 492 0022 FFF7FEFF 		bl	__aeabi_dsub
 493              	.LVL40:
 494              		.loc 1 154 56 view .LVU127
 495 0026 0022     		movs	r2, #0
 496 0028 2D4B     		ldr	r3, .L25+8
 497 002a FFF7FEFF 		bl	__aeabi_ddiv
 498              	.LVL41:
 499              		.loc 1 154 64 view .LVU128
 500 002e 0022     		movs	r2, #0
 501 0030 2C4B     		ldr	r3, .L25+12
 502 0032 FFF7FEFF 		bl	__aeabi_dmul
 503              	.LVL42:
 504              		.loc 1 154 66 view .LVU129
 505 0036 28A3     		adr	r3, .L25
 506 0038 D3E90023 		ldrd	r2, [r3]
 507 003c FFF7FEFF 		bl	__aeabi_dmul
 508              	.LVL43:
 509 0040 FFF7FEFF 		bl	__aeabi_d2f
 510              	.LVL44:
 511              		.loc 1 154 23 view .LVU130
 512 0044 6860     		str	r0, [r5, #4]	@ unaligned
 513              		.loc 1 154 78 is_stmt 1 view .LVU131
 155:modules/MI_motor_drive.c **** 
 156:modules/MI_motor_drive.c ****     decode_temp_mi = (rx_data[2] << 8 | rx_data[3]);
 514              		.loc 1 156 5 view .LVU132
 515              		.loc 1 156 30 is_stmt 0 view .LVU133
 516 0046 A378     		ldrb	r3, [r4, #2]	@ zero_extendqisi2
 517              		.loc 1 156 48 view .LVU134
 518 0048 E078     		ldrb	r0, [r4, #3]	@ zero_extendqisi2
 519              		.loc 1 156 20 view .LVU135
 520 004a 40EA0320 		orr	r0, r0, r3, lsl #8
 521              	.LVL45:
 157:modules/MI_motor_drive.c ****     RxCAN_info->speed = ((float)decode_temp_mi-32767.5)/32767.5*30.0f;
 522              		.loc 1 157 5 is_stmt 1 view .LVU136
 523              		.loc 1 157 26 is_stmt 0 view .LVU137
 524 004e 07EE900A 		vmov	s15, r0	@ int
 525 0052 F8EE677A 		vcvt.f32.u32	s15, s15
 526 0056 17EE900A 		vmov	r0, s15
 527              	.LVL46:
 528              		.loc 1 157 26 view .LVU138
 529 005a FFF7FEFF 		bl	__aeabi_f2d
 530              	.LVL47:
 531              		.loc 1 157 47 view .LVU139
 532 005e 0022     		movs	r2, #0
 533 0060 1F4B     		ldr	r3, .L25+8
ARM GAS  C:\Users\12990\AppData\Local\Temp\ccwcqFai.s 			page 13


 534 0062 FFF7FEFF 		bl	__aeabi_dsub
 535              	.LVL48:
 536              		.loc 1 157 56 view .LVU140
 537 0066 0022     		movs	r2, #0
 538 0068 1D4B     		ldr	r3, .L25+8
 539 006a FFF7FEFF 		bl	__aeabi_ddiv
 540              	.LVL49:
 541              		.loc 1 157 64 view .LVU141
 542 006e 0022     		movs	r2, #0
 543 0070 1D4B     		ldr	r3, .L25+16
 544 0072 FFF7FEFF 		bl	__aeabi_dmul
 545              	.LVL50:
 546 0076 FFF7FEFF 		bl	__aeabi_d2f
 547              	.LVL51:
 548              		.loc 1 157 23 view .LVU142
 549 007a A860     		str	r0, [r5, #8]	@ unaligned
 158:modules/MI_motor_drive.c **** 
 159:modules/MI_motor_drive.c ****     decode_temp_mi = (rx_data[4] << 8 | rx_data[5]);
 550              		.loc 1 159 5 is_stmt 1 view .LVU143
 551              		.loc 1 159 30 is_stmt 0 view .LVU144
 552 007c 2379     		ldrb	r3, [r4, #4]	@ zero_extendqisi2
 553              		.loc 1 159 48 view .LVU145
 554 007e 6079     		ldrb	r0, [r4, #5]	@ zero_extendqisi2
 555              		.loc 1 159 20 view .LVU146
 556 0080 40EA0320 		orr	r0, r0, r3, lsl #8
 557              	.LVL52:
 160:modules/MI_motor_drive.c ****     RxCAN_info->torque = ((float)decode_temp_mi-32767.5)/32767.5*12.0f;
 558              		.loc 1 160 5 is_stmt 1 view .LVU147
 559              		.loc 1 160 27 is_stmt 0 view .LVU148
 560 0084 07EE900A 		vmov	s15, r0	@ int
 561 0088 F8EE677A 		vcvt.f32.u32	s15, s15
 562 008c 17EE900A 		vmov	r0, s15
 563              	.LVL53:
 564              		.loc 1 160 27 view .LVU149
 565 0090 FFF7FEFF 		bl	__aeabi_f2d
 566              	.LVL54:
 567              		.loc 1 160 48 view .LVU150
 568 0094 0022     		movs	r2, #0
 569 0096 124B     		ldr	r3, .L25+8
 570 0098 FFF7FEFF 		bl	__aeabi_dsub
 571              	.LVL55:
 572              		.loc 1 160 57 view .LVU151
 573 009c 0022     		movs	r2, #0
 574 009e 104B     		ldr	r3, .L25+8
 575 00a0 FFF7FEFF 		bl	__aeabi_ddiv
 576              	.LVL56:
 577              		.loc 1 160 65 view .LVU152
 578 00a4 0022     		movs	r2, #0
 579 00a6 114B     		ldr	r3, .L25+20
 580 00a8 FFF7FEFF 		bl	__aeabi_dmul
 581              	.LVL57:
 582 00ac FFF7FEFF 		bl	__aeabi_d2f
 583              	.LVL58:
 584              		.loc 1 160 24 view .LVU153
 585 00b0 E860     		str	r0, [r5, #12]	@ unaligned
 161:modules/MI_motor_drive.c **** 
 162:modules/MI_motor_drive.c ****     decode_temp_mi = (rx_data[6] << 8 | rx_data[7]);
ARM GAS  C:\Users\12990\AppData\Local\Temp\ccwcqFai.s 			page 14


 586              		.loc 1 162 5 is_stmt 1 view .LVU154
 587              		.loc 1 162 30 is_stmt 0 view .LVU155
 588 00b2 A279     		ldrb	r2, [r4, #6]	@ zero_extendqisi2
 589              		.loc 1 162 48 view .LVU156
 590 00b4 E379     		ldrb	r3, [r4, #7]	@ zero_extendqisi2
 591              		.loc 1 162 20 view .LVU157
 592 00b6 43EA0223 		orr	r3, r3, r2, lsl #8
 593              	.LVL59:
 163:modules/MI_motor_drive.c ****     RxCAN_info->temperature = (float)decode_temp_mi/10.0f;
 594              		.loc 1 163 5 is_stmt 1 view .LVU158
 595              		.loc 1 163 31 is_stmt 0 view .LVU159
 596 00ba 07EE903A 		vmov	s15, r3	@ int
 597 00be F8EE677A 		vcvt.f32.u32	s15, s15
 598              		.loc 1 163 29 view .LVU160
 599 00c2 B2EE047A 		vmov.f32	s14, #1.0e+1
 600 00c6 C7EE877A 		vdiv.f32	s15, s15, s14
 601 00ca 17EE903A 		vmov	r3, s15
 602              	.LVL60:
 603              		.loc 1 163 29 view .LVU161
 604 00ce 2B61     		str	r3, [r5, #16]	@ unaligned
 605              	.LVL61:
 164:modules/MI_motor_drive.c ****  }
 606              		.loc 1 164 2 view .LVU162
 607 00d0 38BD     		pop	{r3, r4, r5, pc}
 608              	.LVL62:
 609              	.L26:
 610              		.loc 1 164 2 view .LVU163
 611 00d2 00BFAFF3 		.align	3
 611      0080
 612              	.L25:
 613 00d8 00000040 		.word	1073741824
 614 00dc FB210940 		.word	1074340347
 615 00e0 E0FFDF40 		.word	1088421856
 616 00e4 00001040 		.word	1074790400
 617 00e8 00003E40 		.word	1077805056
 618 00ec 00002840 		.word	1076363264
 619              		.cfi_endproc
 620              	.LFE136:
 622              		.section	.text.MI_motor_Enable,"ax",%progbits
 623              		.align	1
 624              		.global	MI_motor_Enable
 625              		.syntax unified
 626              		.thumb
 627              		.thumb_func
 629              	MI_motor_Enable:
 630              	.LVL63:
 631              	.LFB137:
 165:modules/MI_motor_drive.c **** 
 166:modules/MI_motor_drive.c **** /**
 167:modules/MI_motor_drive.c ****   * @brief          Â∞èÁ±≥ÁîµÊú∫‰ΩøËÉΩÔºàÈÄö‰ø°Á±ªÂûã 3Ôºâ
 168:modules/MI_motor_drive.c ****   * @param[in]      hmotor ÁîµÊú∫ÁªìÊûÑ‰Ωì
 169:modules/MI_motor_drive.c ****   * @param[in]      id ÁîµÊú∫id
 170:modules/MI_motor_drive.c ****   * @retval         none
 171:modules/MI_motor_drive.c ****   */
 172:modules/MI_motor_drive.c **** void MI_motor_Enable(MI_Motor_s* hmotor)
 173:modules/MI_motor_drive.c **** {
 632              		.loc 1 173 1 is_stmt 1 view -0
ARM GAS  C:\Users\12990\AppData\Local\Temp\ccwcqFai.s 			page 15


 633              		.cfi_startproc
 634              		@ args = 0, pretend = 0, frame = 0
 635              		@ frame_needed = 0, uses_anonymous_args = 0
 636              		.loc 1 173 1 is_stmt 0 view .LVU165
 637 0000 08B5     		push	{r3, lr}
 638              	.LCFI8:
 639              		.cfi_def_cfa_offset 8
 640              		.cfi_offset 3, -8
 641              		.cfi_offset 14, -4
 174:modules/MI_motor_drive.c ****     hmotor->EXT_ID.mode = 3;
 642              		.loc 1 174 5 is_stmt 1 view .LVU166
 643              		.loc 1 174 25 is_stmt 0 view .LVU167
 644 0002 437A     		ldrb	r3, [r0, #9]	@ zero_extendqisi2
 645 0004 0322     		movs	r2, #3
 646 0006 62F30403 		bfi	r3, r2, #0, #5
 647 000a 4372     		strb	r3, [r0, #9]
 175:modules/MI_motor_drive.c ****     hmotor->EXT_ID.motor_id = hmotor->motor_id;
 648              		.loc 1 175 5 is_stmt 1 view .LVU168
 649              		.loc 1 175 37 is_stmt 0 view .LVU169
 650 000c 837A     		ldrb	r3, [r0, #10]	@ zero_extendqisi2
 651              		.loc 1 175 29 view .LVU170
 652 000e 8371     		strb	r3, [r0, #6]
 176:modules/MI_motor_drive.c ****     hmotor->EXT_ID.data = MI_MASTERID;
 653              		.loc 1 176 5 is_stmt 1 view .LVU171
 654              		.loc 1 176 25 is_stmt 0 view .LVU172
 655 0010 094B     		ldr	r3, .L31
 656 0012 1B78     		ldrb	r3, [r3]	@ zero_extendqisi2
 657 0014 A0F80730 		strh	r3, [r0, #7]	@ unaligned
 177:modules/MI_motor_drive.c ****     //hmotor->EXT_ID.data = MI_TESTID; //2024.3.5ÊµãËØï
 178:modules/MI_motor_drive.c ****     hmotor->EXT_ID.res = 0;
 658              		.loc 1 178 5 is_stmt 1 view .LVU173
 659              		.loc 1 178 24 is_stmt 0 view .LVU174
 660 0018 437A     		ldrb	r3, [r0, #9]	@ zero_extendqisi2
 661 001a 6FF34713 		bfc	r3, #5, #3
 662 001e 4372     		strb	r3, [r0, #9]
 179:modules/MI_motor_drive.c ****     for(uint8_t i=0; i<8; i++)
 663              		.loc 1 179 5 is_stmt 1 view .LVU175
 664              	.LBB3:
 665              		.loc 1 179 9 view .LVU176
 666              	.LVL64:
 667              		.loc 1 179 17 is_stmt 0 view .LVU177
 668 0020 0023     		movs	r3, #0
 669              		.loc 1 179 5 view .LVU178
 670 0022 04E0     		b	.L28
 671              	.LVL65:
 672              	.L29:
 180:modules/MI_motor_drive.c ****     {
 181:modules/MI_motor_drive.c ****         hmotor->txdata[i]=0; //ËÆ©8‰ΩçÊï∞ÊçÆÂÖ®ÈÉΩÂèòÊàê0
 673              		.loc 1 181 9 is_stmt 1 discriminator 3 view .LVU179
 674              		.loc 1 181 26 is_stmt 0 discriminator 3 view .LVU180
 675 0024 C218     		adds	r2, r0, r3
 676 0026 0021     		movs	r1, #0
 677 0028 D172     		strb	r1, [r2, #11]
 179:modules/MI_motor_drive.c ****     for(uint8_t i=0; i<8; i++)
 678              		.loc 1 179 27 is_stmt 1 discriminator 3 view .LVU181
 179:modules/MI_motor_drive.c ****     for(uint8_t i=0; i<8; i++)
 679              		.loc 1 179 28 is_stmt 0 discriminator 3 view .LVU182
ARM GAS  C:\Users\12990\AppData\Local\Temp\ccwcqFai.s 			page 16


 680 002a 0133     		adds	r3, r3, #1
 681              	.LVL66:
 179:modules/MI_motor_drive.c ****     for(uint8_t i=0; i<8; i++)
 682              		.loc 1 179 28 discriminator 3 view .LVU183
 683 002c DBB2     		uxtb	r3, r3
 684              	.LVL67:
 685              	.L28:
 179:modules/MI_motor_drive.c ****     for(uint8_t i=0; i<8; i++)
 686              		.loc 1 179 22 is_stmt 1 discriminator 1 view .LVU184
 179:modules/MI_motor_drive.c ****     for(uint8_t i=0; i<8; i++)
 687              		.loc 1 179 5 is_stmt 0 discriminator 1 view .LVU185
 688 002e 072B     		cmp	r3, #7
 689 0030 F8D9     		bls	.L29
 690              	.LBE3:
 182:modules/MI_motor_drive.c ****     }
 183:modules/MI_motor_drive.c **** 
 184:modules/MI_motor_drive.c ****     MI_motor_CanTx(hmotor);
 691              		.loc 1 184 5 is_stmt 1 view .LVU186
 692 0032 FFF7FEFF 		bl	MI_motor_CanTx
 693              	.LVL68:
 185:modules/MI_motor_drive.c **** }
 694              		.loc 1 185 1 is_stmt 0 view .LVU187
 695 0036 08BD     		pop	{r3, pc}
 696              	.L32:
 697              		.align	2
 698              	.L31:
 699 0038 00000000 		.word	.LANCHOR1
 700              		.cfi_endproc
 701              	.LFE137:
 703              		.section	.text.MI_motor_Stop,"ax",%progbits
 704              		.align	1
 705              		.global	MI_motor_Stop
 706              		.syntax unified
 707              		.thumb
 708              		.thumb_func
 710              	MI_motor_Stop:
 711              	.LVL69:
 712              	.LFB138:
 186:modules/MI_motor_drive.c **** 
 187:modules/MI_motor_drive.c **** /**
 188:modules/MI_motor_drive.c ****   * @brief          ÁîµÊú∫ÂÅúÊ≠¢ËøêË°åÂ∏ßÔºàÈÄö‰ø°Á±ªÂûã4Ôºâ
 189:modules/MI_motor_drive.c ****   * @param[in]      hmotor ÁîµÊú∫ÁªìÊûÑ‰Ωì
 190:modules/MI_motor_drive.c ****   * @retval         none
 191:modules/MI_motor_drive.c ****   */
 192:modules/MI_motor_drive.c **** void MI_motor_Stop(MI_Motor_s* hmotor)
 193:modules/MI_motor_drive.c **** {
 713              		.loc 1 193 1 is_stmt 1 view -0
 714              		.cfi_startproc
 715              		@ args = 0, pretend = 0, frame = 0
 716              		@ frame_needed = 0, uses_anonymous_args = 0
 717              		.loc 1 193 1 is_stmt 0 view .LVU189
 718 0000 08B5     		push	{r3, lr}
 719              	.LCFI9:
 720              		.cfi_def_cfa_offset 8
 721              		.cfi_offset 3, -8
 722              		.cfi_offset 14, -4
 194:modules/MI_motor_drive.c ****     hmotor->EXT_ID.mode = 4;
ARM GAS  C:\Users\12990\AppData\Local\Temp\ccwcqFai.s 			page 17


 723              		.loc 1 194 5 is_stmt 1 view .LVU190
 724              		.loc 1 194 25 is_stmt 0 view .LVU191
 725 0002 437A     		ldrb	r3, [r0, #9]	@ zero_extendqisi2
 726 0004 0422     		movs	r2, #4
 727 0006 62F30403 		bfi	r3, r2, #0, #5
 728 000a 4372     		strb	r3, [r0, #9]
 195:modules/MI_motor_drive.c ****     hmotor->EXT_ID.motor_id = hmotor->motor_id;
 729              		.loc 1 195 5 is_stmt 1 view .LVU192
 730              		.loc 1 195 37 is_stmt 0 view .LVU193
 731 000c 837A     		ldrb	r3, [r0, #10]	@ zero_extendqisi2
 732              		.loc 1 195 29 view .LVU194
 733 000e 8371     		strb	r3, [r0, #6]
 196:modules/MI_motor_drive.c ****     hmotor->EXT_ID.data = MI_MASTERID;
 734              		.loc 1 196 5 is_stmt 1 view .LVU195
 735              		.loc 1 196 25 is_stmt 0 view .LVU196
 736 0010 094B     		ldr	r3, .L37
 737 0012 1B78     		ldrb	r3, [r3]	@ zero_extendqisi2
 738 0014 A0F80730 		strh	r3, [r0, #7]	@ unaligned
 197:modules/MI_motor_drive.c ****     hmotor->EXT_ID.res = 0;
 739              		.loc 1 197 5 is_stmt 1 view .LVU197
 740              		.loc 1 197 24 is_stmt 0 view .LVU198
 741 0018 437A     		ldrb	r3, [r0, #9]	@ zero_extendqisi2
 742 001a 6FF34713 		bfc	r3, #5, #3
 743 001e 4372     		strb	r3, [r0, #9]
 198:modules/MI_motor_drive.c ****  
 199:modules/MI_motor_drive.c ****     for(uint8_t i=0; i<8; i++)
 744              		.loc 1 199 5 is_stmt 1 view .LVU199
 745              	.LBB4:
 746              		.loc 1 199 9 view .LVU200
 747              	.LVL70:
 748              		.loc 1 199 17 is_stmt 0 view .LVU201
 749 0020 0023     		movs	r3, #0
 750              		.loc 1 199 5 view .LVU202
 751 0022 04E0     		b	.L34
 752              	.LVL71:
 753              	.L35:
 200:modules/MI_motor_drive.c ****     {
 201:modules/MI_motor_drive.c ****         hmotor->txdata[i]=0;
 754              		.loc 1 201 9 is_stmt 1 discriminator 3 view .LVU203
 755              		.loc 1 201 26 is_stmt 0 discriminator 3 view .LVU204
 756 0024 C218     		adds	r2, r0, r3
 757 0026 0021     		movs	r1, #0
 758 0028 D172     		strb	r1, [r2, #11]
 199:modules/MI_motor_drive.c ****     {
 759              		.loc 1 199 27 is_stmt 1 discriminator 3 view .LVU205
 199:modules/MI_motor_drive.c ****     {
 760              		.loc 1 199 28 is_stmt 0 discriminator 3 view .LVU206
 761 002a 0133     		adds	r3, r3, #1
 762              	.LVL72:
 199:modules/MI_motor_drive.c ****     {
 763              		.loc 1 199 28 discriminator 3 view .LVU207
 764 002c DBB2     		uxtb	r3, r3
 765              	.LVL73:
 766              	.L34:
 199:modules/MI_motor_drive.c ****     {
 767              		.loc 1 199 22 is_stmt 1 discriminator 1 view .LVU208
 199:modules/MI_motor_drive.c ****     {
ARM GAS  C:\Users\12990\AppData\Local\Temp\ccwcqFai.s 			page 18


 768              		.loc 1 199 5 is_stmt 0 discriminator 1 view .LVU209
 769 002e 072B     		cmp	r3, #7
 770 0030 F8D9     		bls	.L35
 771              	.LBE4:
 202:modules/MI_motor_drive.c ****     }
 203:modules/MI_motor_drive.c **** 
 204:modules/MI_motor_drive.c ****     MI_motor_CanTx(hmotor);
 772              		.loc 1 204 5 is_stmt 1 view .LVU210
 773 0032 FFF7FEFF 		bl	MI_motor_CanTx
 774              	.LVL74:
 205:modules/MI_motor_drive.c **** }
 775              		.loc 1 205 1 is_stmt 0 view .LVU211
 776 0036 08BD     		pop	{r3, pc}
 777              	.L38:
 778              		.align	2
 779              	.L37:
 780 0038 00000000 		.word	.LANCHOR1
 781              		.cfi_endproc
 782              	.LFE138:
 784              		.section	.text.MI_motor_SetMechPositionToZero,"ax",%progbits
 785              		.align	1
 786              		.global	MI_motor_SetMechPositionToZero
 787              		.syntax unified
 788              		.thumb
 789              		.thumb_func
 791              	MI_motor_SetMechPositionToZero:
 792              	.LVL75:
 793              	.LFB139:
 206:modules/MI_motor_drive.c **** 
 207:modules/MI_motor_drive.c **** /**
 208:modules/MI_motor_drive.c ****   * @brief          ËÆæÁΩÆÁîµÊú∫Êú∫Ê¢∞Èõ∂‰ΩçÔºàÈÄö‰ø°Á±ªÂûã6Ôºâ‰ºöÊääÂΩìÂâçÁîµÊú∫‰ΩçÁΩÆËÆæ‰∏∫Êú∫Ê¢∞
 209:modules/MI_motor_drive.c ****   * @param[in]      hmotor ÁîµÊú∫ÁªìÊûÑ‰Ωì
 210:modules/MI_motor_drive.c ****   * @retval         none
 211:modules/MI_motor_drive.c ****   */
 212:modules/MI_motor_drive.c **** void MI_motor_SetMechPositionToZero(MI_Motor_s* hmotor)
 213:modules/MI_motor_drive.c **** {
 794              		.loc 1 213 1 is_stmt 1 view -0
 795              		.cfi_startproc
 796              		@ args = 0, pretend = 0, frame = 0
 797              		@ frame_needed = 0, uses_anonymous_args = 0
 798              		.loc 1 213 1 is_stmt 0 view .LVU213
 799 0000 08B5     		push	{r3, lr}
 800              	.LCFI10:
 801              		.cfi_def_cfa_offset 8
 802              		.cfi_offset 3, -8
 803              		.cfi_offset 14, -4
 214:modules/MI_motor_drive.c ****     hmotor->EXT_ID.mode = 6;
 804              		.loc 1 214 5 is_stmt 1 view .LVU214
 805              		.loc 1 214 25 is_stmt 0 view .LVU215
 806 0002 437A     		ldrb	r3, [r0, #9]	@ zero_extendqisi2
 807 0004 0622     		movs	r2, #6
 808 0006 62F30403 		bfi	r3, r2, #0, #5
 809 000a 4372     		strb	r3, [r0, #9]
 215:modules/MI_motor_drive.c ****     hmotor->EXT_ID.motor_id = hmotor->motor_id;
 810              		.loc 1 215 5 is_stmt 1 view .LVU216
 811              		.loc 1 215 37 is_stmt 0 view .LVU217
 812 000c 837A     		ldrb	r3, [r0, #10]	@ zero_extendqisi2
ARM GAS  C:\Users\12990\AppData\Local\Temp\ccwcqFai.s 			page 19


 813              		.loc 1 215 29 view .LVU218
 814 000e 8371     		strb	r3, [r0, #6]
 216:modules/MI_motor_drive.c ****     hmotor->EXT_ID.data = MI_MASTERID;
 815              		.loc 1 216 5 is_stmt 1 view .LVU219
 816              		.loc 1 216 25 is_stmt 0 view .LVU220
 817 0010 0A4B     		ldr	r3, .L43
 818 0012 1B78     		ldrb	r3, [r3]	@ zero_extendqisi2
 819 0014 A0F80730 		strh	r3, [r0, #7]	@ unaligned
 217:modules/MI_motor_drive.c ****     hmotor->EXT_ID.res = 0;
 820              		.loc 1 217 5 is_stmt 1 view .LVU221
 821              		.loc 1 217 24 is_stmt 0 view .LVU222
 822 0018 437A     		ldrb	r3, [r0, #9]	@ zero_extendqisi2
 823 001a 6FF34713 		bfc	r3, #5, #3
 824 001e 4372     		strb	r3, [r0, #9]
 218:modules/MI_motor_drive.c ****     hmotor->txdata[0]=1;
 825              		.loc 1 218 5 is_stmt 1 view .LVU223
 826              		.loc 1 218 22 is_stmt 0 view .LVU224
 827 0020 0123     		movs	r3, #1
 828 0022 C372     		strb	r3, [r0, #11]
 219:modules/MI_motor_drive.c ****  
 220:modules/MI_motor_drive.c ****     for(uint8_t i=1; i<8; i++)
 829              		.loc 1 220 5 is_stmt 1 view .LVU225
 830              	.LBB5:
 831              		.loc 1 220 9 view .LVU226
 832              	.LVL76:
 833              		.loc 1 220 5 is_stmt 0 view .LVU227
 834 0024 04E0     		b	.L40
 835              	.LVL77:
 836              	.L41:
 221:modules/MI_motor_drive.c ****     {
 222:modules/MI_motor_drive.c ****         hmotor->txdata[i]=0;
 837              		.loc 1 222 9 is_stmt 1 discriminator 3 view .LVU228
 838              		.loc 1 222 26 is_stmt 0 discriminator 3 view .LVU229
 839 0026 C218     		adds	r2, r0, r3
 840 0028 0021     		movs	r1, #0
 841 002a D172     		strb	r1, [r2, #11]
 220:modules/MI_motor_drive.c ****     {
 842              		.loc 1 220 27 is_stmt 1 discriminator 3 view .LVU230
 220:modules/MI_motor_drive.c ****     {
 843              		.loc 1 220 28 is_stmt 0 discriminator 3 view .LVU231
 844 002c 0133     		adds	r3, r3, #1
 845              	.LVL78:
 220:modules/MI_motor_drive.c ****     {
 846              		.loc 1 220 28 discriminator 3 view .LVU232
 847 002e DBB2     		uxtb	r3, r3
 848              	.LVL79:
 849              	.L40:
 220:modules/MI_motor_drive.c ****     {
 850              		.loc 1 220 22 is_stmt 1 discriminator 1 view .LVU233
 220:modules/MI_motor_drive.c ****     {
 851              		.loc 1 220 5 is_stmt 0 discriminator 1 view .LVU234
 852 0030 072B     		cmp	r3, #7
 853 0032 F8D9     		bls	.L41
 854              	.LBE5:
 223:modules/MI_motor_drive.c ****     }
 224:modules/MI_motor_drive.c **** 
 225:modules/MI_motor_drive.c ****     MI_motor_CanTx(hmotor);
ARM GAS  C:\Users\12990\AppData\Local\Temp\ccwcqFai.s 			page 20


 855              		.loc 1 225 5 is_stmt 1 view .LVU235
 856 0034 FFF7FEFF 		bl	MI_motor_CanTx
 857              	.LVL80:
 226:modules/MI_motor_drive.c **** }
 858              		.loc 1 226 1 is_stmt 0 view .LVU236
 859 0038 08BD     		pop	{r3, pc}
 860              	.L44:
 861 003a 00BF     		.align	2
 862              	.L43:
 863 003c 00000000 		.word	.LANCHOR1
 864              		.cfi_endproc
 865              	.LFE139:
 867              		.section	.text.MI_motor_ChangeID,"ax",%progbits
 868              		.align	1
 869              		.global	MI_motor_ChangeID
 870              		.syntax unified
 871              		.thumb
 872              		.thumb_func
 874              	MI_motor_ChangeID:
 875              	.LVL81:
 876              	.LFB140:
 227:modules/MI_motor_drive.c **** 
 228:modules/MI_motor_drive.c **** /**
 229:modules/MI_motor_drive.c ****   * @brief          ËÆæÁΩÆÁîµÊú∫CAN_IDÔºàÈÄö‰ø°Á±ªÂûã7ÔºâÊõ¥ÊîπÂΩìÂâçÁîµÊú∫CAN_ID , Á´ãÂç≥ÁîüÊïàÔºå
 230:modules/MI_motor_drive.c ****   * @param[in]      hmotor ÁîµÊú∫ÁªìÊûÑ‰Ωì
 231:modules/MI_motor_drive.c ****   * @param[in]      Now_ID ÁîµÊú∫Áé∞Âú®ÁöÑID
 232:modules/MI_motor_drive.c ****   * @param[in]      Target_ID ÊÉ≥Ë¶ÅÊîπÊàêÁöÑÁîµÊú∫ID
 233:modules/MI_motor_drive.c ****   * @retval         none
 234:modules/MI_motor_drive.c ****   */
 235:modules/MI_motor_drive.c **** void MI_motor_ChangeID(MI_Motor_s* hmotor,uint8_t Now_ID,uint8_t Target_ID)
 236:modules/MI_motor_drive.c **** {
 877              		.loc 1 236 1 is_stmt 1 view -0
 878              		.cfi_startproc
 879              		@ args = 0, pretend = 0, frame = 0
 880              		@ frame_needed = 0, uses_anonymous_args = 0
 881              		.loc 1 236 1 is_stmt 0 view .LVU238
 882 0000 08B5     		push	{r3, lr}
 883              	.LCFI11:
 884              		.cfi_def_cfa_offset 8
 885              		.cfi_offset 3, -8
 886              		.cfi_offset 14, -4
 237:modules/MI_motor_drive.c ****     hmotor->motor_id = Now_ID;
 887              		.loc 1 237 5 is_stmt 1 view .LVU239
 888              		.loc 1 237 22 is_stmt 0 view .LVU240
 889 0002 8172     		strb	r1, [r0, #10]
 238:modules/MI_motor_drive.c **** 
 239:modules/MI_motor_drive.c ****     hmotor->EXT_ID.mode = 7;	
 890              		.loc 1 239 5 is_stmt 1 view .LVU241
 891              		.loc 1 239 25 is_stmt 0 view .LVU242
 892 0004 90F809C0 		ldrb	ip, [r0, #9]	@ zero_extendqisi2
 893 0008 0723     		movs	r3, #7
 894 000a 63F3040C 		bfi	ip, r3, #0, #5
 895 000e 80F809C0 		strb	ip, [r0, #9]
 240:modules/MI_motor_drive.c ****     hmotor->EXT_ID.motor_id = Now_ID;
 896              		.loc 1 240 5 is_stmt 1 view .LVU243
 897              		.loc 1 240 29 is_stmt 0 view .LVU244
 898 0012 8171     		strb	r1, [r0, #6]
ARM GAS  C:\Users\12990\AppData\Local\Temp\ccwcqFai.s 			page 21


 241:modules/MI_motor_drive.c ****     hmotor->EXT_ID.data = Target_ID << 8 | MI_MASTERID;
 899              		.loc 1 241 5 is_stmt 1 view .LVU245
 900              		.loc 1 241 42 is_stmt 0 view .LVU246
 901 0014 0B4B     		ldr	r3, .L49
 902 0016 1B78     		ldrb	r3, [r3]	@ zero_extendqisi2
 903 0018 43EA0223 		orr	r3, r3, r2, lsl #8
 904              		.loc 1 241 25 view .LVU247
 905 001c A0F80730 		strh	r3, [r0, #7]	@ unaligned
 242:modules/MI_motor_drive.c ****     hmotor->EXT_ID.res = 0;
 906              		.loc 1 242 5 is_stmt 1 view .LVU248
 907              		.loc 1 242 24 is_stmt 0 view .LVU249
 908 0020 5FFA8CF3 		uxtb	r3, ip
 909 0024 6FF34713 		bfc	r3, #5, #3
 910 0028 4372     		strb	r3, [r0, #9]
 243:modules/MI_motor_drive.c ****  
 244:modules/MI_motor_drive.c ****     for(uint8_t i=0; i<8; i++)
 911              		.loc 1 244 5 is_stmt 1 view .LVU250
 912              	.LBB6:
 913              		.loc 1 244 9 view .LVU251
 914              	.LVL82:
 915              		.loc 1 244 17 is_stmt 0 view .LVU252
 916 002a 0023     		movs	r3, #0
 917              		.loc 1 244 5 view .LVU253
 918 002c 04E0     		b	.L46
 919              	.LVL83:
 920              	.L47:
 245:modules/MI_motor_drive.c ****     {
 246:modules/MI_motor_drive.c ****         hmotor->txdata[i]=0;
 921              		.loc 1 246 9 is_stmt 1 discriminator 3 view .LVU254
 922              		.loc 1 246 26 is_stmt 0 discriminator 3 view .LVU255
 923 002e C218     		adds	r2, r0, r3
 924 0030 0021     		movs	r1, #0
 925 0032 D172     		strb	r1, [r2, #11]
 244:modules/MI_motor_drive.c ****     {
 926              		.loc 1 244 27 is_stmt 1 discriminator 3 view .LVU256
 244:modules/MI_motor_drive.c ****     {
 927              		.loc 1 244 28 is_stmt 0 discriminator 3 view .LVU257
 928 0034 0133     		adds	r3, r3, #1
 929              	.LVL84:
 244:modules/MI_motor_drive.c ****     {
 930              		.loc 1 244 28 discriminator 3 view .LVU258
 931 0036 DBB2     		uxtb	r3, r3
 932              	.LVL85:
 933              	.L46:
 244:modules/MI_motor_drive.c ****     {
 934              		.loc 1 244 22 is_stmt 1 discriminator 1 view .LVU259
 244:modules/MI_motor_drive.c ****     {
 935              		.loc 1 244 5 is_stmt 0 discriminator 1 view .LVU260
 936 0038 072B     		cmp	r3, #7
 937 003a F8D9     		bls	.L47
 938              	.LBE6:
 247:modules/MI_motor_drive.c ****     }
 248:modules/MI_motor_drive.c **** 
 249:modules/MI_motor_drive.c ****     MI_motor_CanTx(hmotor);
 939              		.loc 1 249 5 is_stmt 1 view .LVU261
 940 003c FFF7FEFF 		bl	MI_motor_CanTx
 941              	.LVL86:
ARM GAS  C:\Users\12990\AppData\Local\Temp\ccwcqFai.s 			page 22


 250:modules/MI_motor_drive.c **** }
 942              		.loc 1 250 1 is_stmt 0 view .LVU262
 943 0040 08BD     		pop	{r3, pc}
 944              	.L50:
 945 0042 00BF     		.align	2
 946              	.L49:
 947 0044 00000000 		.word	.LANCHOR1
 948              		.cfi_endproc
 949              	.LFE140:
 951              		.section	.text.MI_motor_ReadParam,"ax",%progbits
 952              		.align	1
 953              		.global	MI_motor_ReadParam
 954              		.syntax unified
 955              		.thumb
 956              		.thumb_func
 958              	MI_motor_ReadParam:
 959              	.LVL87:
 960              	.LFB141:
 251:modules/MI_motor_drive.c **** 
 252:modules/MI_motor_drive.c **** /**
 253:modules/MI_motor_drive.c ****   * @brief          Âçï‰∏™ÂèÇÊï∞ËØªÂèñÔºàÈÄö‰ø°Á±ªÂûã17Ôºâ
 254:modules/MI_motor_drive.c ****   * @param[in]      hmotor ÁîµÊú∫ÁªìÊûÑ‰Ωì
 255:modules/MI_motor_drive.c ****   * @param[in]      index ÂäüËÉΩÁ†Å
 256:modules/MI_motor_drive.c ****   * @retval         none
 257:modules/MI_motor_drive.c ****   */
 258:modules/MI_motor_drive.c **** void MI_motor_ReadParam(MI_Motor_s* hmotor,uint16_t index)
 259:modules/MI_motor_drive.c **** {
 961              		.loc 1 259 1 is_stmt 1 view -0
 962              		.cfi_startproc
 963              		@ args = 0, pretend = 0, frame = 0
 964              		@ frame_needed = 0, uses_anonymous_args = 0
 965              		.loc 1 259 1 is_stmt 0 view .LVU264
 966 0000 08B5     		push	{r3, lr}
 967              	.LCFI12:
 968              		.cfi_def_cfa_offset 8
 969              		.cfi_offset 3, -8
 970              		.cfi_offset 14, -4
 260:modules/MI_motor_drive.c ****     hmotor->EXT_ID.mode = 17;
 971              		.loc 1 260 5 is_stmt 1 view .LVU265
 972              		.loc 1 260 25 is_stmt 0 view .LVU266
 973 0002 437A     		ldrb	r3, [r0, #9]	@ zero_extendqisi2
 974 0004 1122     		movs	r2, #17
 975 0006 62F30403 		bfi	r3, r2, #0, #5
 976 000a 4372     		strb	r3, [r0, #9]
 261:modules/MI_motor_drive.c ****     hmotor->EXT_ID.motor_id = hmotor->motor_id;
 977              		.loc 1 261 5 is_stmt 1 view .LVU267
 978              		.loc 1 261 37 is_stmt 0 view .LVU268
 979 000c 837A     		ldrb	r3, [r0, #10]	@ zero_extendqisi2
 980              		.loc 1 261 29 view .LVU269
 981 000e 8371     		strb	r3, [r0, #6]
 262:modules/MI_motor_drive.c ****     hmotor->EXT_ID.data = MI_MASTERID;
 982              		.loc 1 262 5 is_stmt 1 view .LVU270
 983              		.loc 1 262 25 is_stmt 0 view .LVU271
 984 0010 0A4B     		ldr	r3, .L55
 985 0012 1B78     		ldrb	r3, [r3]	@ zero_extendqisi2
 986 0014 A0F80730 		strh	r3, [r0, #7]	@ unaligned
 263:modules/MI_motor_drive.c ****     hmotor->EXT_ID.res = 0;
ARM GAS  C:\Users\12990\AppData\Local\Temp\ccwcqFai.s 			page 23


 987              		.loc 1 263 5 is_stmt 1 view .LVU272
 988              		.loc 1 263 24 is_stmt 0 view .LVU273
 989 0018 437A     		ldrb	r3, [r0, #9]	@ zero_extendqisi2
 990 001a 6FF34713 		bfc	r3, #5, #3
 991 001e 4372     		strb	r3, [r0, #9]
 264:modules/MI_motor_drive.c ****     
 265:modules/MI_motor_drive.c ****     memcpy(&hmotor->txdata[0],&index,2);
 992              		.loc 1 265 5 is_stmt 1 view .LVU274
 993 0020 A0F80B10 		strh	r1, [r0, #11]	@ unaligned
 266:modules/MI_motor_drive.c **** 
 267:modules/MI_motor_drive.c ****     for(uint8_t i=2; i<8; i++)
 994              		.loc 1 267 5 view .LVU275
 995              	.LBB7:
 996              		.loc 1 267 9 view .LVU276
 997              	.LVL88:
 998              		.loc 1 267 17 is_stmt 0 view .LVU277
 999 0024 0223     		movs	r3, #2
 1000              		.loc 1 267 5 view .LVU278
 1001 0026 04E0     		b	.L52
 1002              	.LVL89:
 1003              	.L53:
 268:modules/MI_motor_drive.c ****     {
 269:modules/MI_motor_drive.c ****         hmotor->txdata[i]=0;
 1004              		.loc 1 269 9 is_stmt 1 discriminator 3 view .LVU279
 1005              		.loc 1 269 26 is_stmt 0 discriminator 3 view .LVU280
 1006 0028 C218     		adds	r2, r0, r3
 1007 002a 0021     		movs	r1, #0
 1008 002c D172     		strb	r1, [r2, #11]
 267:modules/MI_motor_drive.c ****     {
 1009              		.loc 1 267 27 is_stmt 1 discriminator 3 view .LVU281
 267:modules/MI_motor_drive.c ****     {
 1010              		.loc 1 267 28 is_stmt 0 discriminator 3 view .LVU282
 1011 002e 0133     		adds	r3, r3, #1
 1012              	.LVL90:
 267:modules/MI_motor_drive.c ****     {
 1013              		.loc 1 267 28 discriminator 3 view .LVU283
 1014 0030 DBB2     		uxtb	r3, r3
 1015              	.LVL91:
 1016              	.L52:
 267:modules/MI_motor_drive.c ****     {
 1017              		.loc 1 267 22 is_stmt 1 discriminator 1 view .LVU284
 267:modules/MI_motor_drive.c ****     {
 1018              		.loc 1 267 5 is_stmt 0 discriminator 1 view .LVU285
 1019 0032 072B     		cmp	r3, #7
 1020 0034 F8D9     		bls	.L53
 1021              	.LBE7:
 270:modules/MI_motor_drive.c ****     }
 271:modules/MI_motor_drive.c **** 
 272:modules/MI_motor_drive.c ****     MI_motor_CanTx(hmotor);
 1022              		.loc 1 272 5 is_stmt 1 view .LVU286
 1023 0036 FFF7FEFF 		bl	MI_motor_CanTx
 1024              	.LVL92:
 273:modules/MI_motor_drive.c **** }
 1025              		.loc 1 273 1 is_stmt 0 view .LVU287
 1026 003a 08BD     		pop	{r3, pc}
 1027              	.L56:
 1028              		.align	2
ARM GAS  C:\Users\12990\AppData\Local\Temp\ccwcqFai.s 			page 24


 1029              	.L55:
 1030 003c 00000000 		.word	.LANCHOR1
 1031              		.cfi_endproc
 1032              	.LFE141:
 1034              		.section	.text.MI_motor_ModeSwitch,"ax",%progbits
 1035              		.align	1
 1036              		.global	MI_motor_ModeSwitch
 1037              		.syntax unified
 1038              		.thumb
 1039              		.thumb_func
 1041              	MI_motor_ModeSwitch:
 1042              	.LVL93:
 1043              	.LFB142:
 274:modules/MI_motor_drive.c **** 
 275:modules/MI_motor_drive.c **** /**
 276:modules/MI_motor_drive.c ****   * @brief          Â∞èÁ±≥ÁîµÊú∫ËøêË°åÊ®°ÂºèÂàáÊç¢
 277:modules/MI_motor_drive.c ****   * @param[in]      hmotor ÁîµÊú∫ÁªìÊûÑ‰Ωì
 278:modules/MI_motor_drive.c ****   * @param[in]      run_mode Êõ¥ÊîπÁöÑÊ®°Âºè
 279:modules/MI_motor_drive.c ****   * @note           ÈÄö‰ø°Á±ªÂûã18 ÔºàÊéâÁîµ‰∏¢Â§±Ôºâ
 280:modules/MI_motor_drive.c ****   * @retval         none
 281:modules/MI_motor_drive.c ****   */
 282:modules/MI_motor_drive.c **** void MI_motor_ModeSwitch(MI_Motor_s* hmotor, uint8_t run_mode)
 283:modules/MI_motor_drive.c **** {
 1044              		.loc 1 283 1 is_stmt 1 view -0
 1045              		.cfi_startproc
 1046              		@ args = 0, pretend = 0, frame = 0
 1047              		@ frame_needed = 0, uses_anonymous_args = 0
 1048              		.loc 1 283 1 is_stmt 0 view .LVU289
 1049 0000 08B5     		push	{r3, lr}
 1050              	.LCFI13:
 1051              		.cfi_def_cfa_offset 8
 1052              		.cfi_offset 3, -8
 1053              		.cfi_offset 14, -4
 284:modules/MI_motor_drive.c ****     uint16_t index = 0X7005;
 1054              		.loc 1 284 5 is_stmt 1 view .LVU290
 1055              	.LVL94:
 285:modules/MI_motor_drive.c **** 
 286:modules/MI_motor_drive.c ****     hmotor->EXT_ID.mode = 18;
 1056              		.loc 1 286 5 view .LVU291
 1057              		.loc 1 286 25 is_stmt 0 view .LVU292
 1058 0002 437A     		ldrb	r3, [r0, #9]	@ zero_extendqisi2
 1059 0004 1222     		movs	r2, #18
 1060 0006 62F30403 		bfi	r3, r2, #0, #5
 1061 000a 4372     		strb	r3, [r0, #9]
 287:modules/MI_motor_drive.c ****     hmotor->EXT_ID.motor_id = hmotor->motor_id;
 1062              		.loc 1 287 5 is_stmt 1 view .LVU293
 1063              		.loc 1 287 37 is_stmt 0 view .LVU294
 1064 000c 837A     		ldrb	r3, [r0, #10]	@ zero_extendqisi2
 1065              		.loc 1 287 29 view .LVU295
 1066 000e 8371     		strb	r3, [r0, #6]
 288:modules/MI_motor_drive.c ****     hmotor->EXT_ID.data = MI_MASTERID;
 1067              		.loc 1 288 5 is_stmt 1 view .LVU296
 1068              		.loc 1 288 25 is_stmt 0 view .LVU297
 1069 0010 0D4B     		ldr	r3, .L61
 1070 0012 1B78     		ldrb	r3, [r3]	@ zero_extendqisi2
 1071 0014 A0F80730 		strh	r3, [r0, #7]	@ unaligned
 289:modules/MI_motor_drive.c ****     hmotor->EXT_ID.res = 0;
ARM GAS  C:\Users\12990\AppData\Local\Temp\ccwcqFai.s 			page 25


 1072              		.loc 1 289 5 is_stmt 1 view .LVU298
 1073              		.loc 1 289 24 is_stmt 0 view .LVU299
 1074 0018 437A     		ldrb	r3, [r0, #9]	@ zero_extendqisi2
 1075 001a 6FF34713 		bfc	r3, #5, #3
 1076 001e 4372     		strb	r3, [r0, #9]
 290:modules/MI_motor_drive.c **** 
 291:modules/MI_motor_drive.c ****     for(uint8_t i=0;i<8;i++){
 1077              		.loc 1 291 5 is_stmt 1 view .LVU300
 1078              	.LBB8:
 1079              		.loc 1 291 9 view .LVU301
 1080              	.LVL95:
 1081              		.loc 1 291 17 is_stmt 0 view .LVU302
 1082 0020 0023     		movs	r3, #0
 1083              		.loc 1 291 5 view .LVU303
 1084 0022 06E0     		b	.L58
 1085              	.LVL96:
 1086              	.L59:
 292:modules/MI_motor_drive.c ****       hmotor->txdata[i]=0;
 1087              		.loc 1 292 7 is_stmt 1 discriminator 3 view .LVU304
 1088              		.loc 1 292 24 is_stmt 0 discriminator 3 view .LVU305
 1089 0024 C218     		adds	r2, r0, r3
 1090 0026 4FF0000C 		mov	ip, #0
 1091 002a 82F80BC0 		strb	ip, [r2, #11]
 291:modules/MI_motor_drive.c ****       hmotor->txdata[i]=0;
 1092              		.loc 1 291 25 is_stmt 1 discriminator 3 view .LVU306
 291:modules/MI_motor_drive.c ****       hmotor->txdata[i]=0;
 1093              		.loc 1 291 26 is_stmt 0 discriminator 3 view .LVU307
 1094 002e 0133     		adds	r3, r3, #1
 1095              	.LVL97:
 291:modules/MI_motor_drive.c ****       hmotor->txdata[i]=0;
 1096              		.loc 1 291 26 discriminator 3 view .LVU308
 1097 0030 DBB2     		uxtb	r3, r3
 1098              	.LVL98:
 1099              	.L58:
 291:modules/MI_motor_drive.c ****       hmotor->txdata[i]=0;
 1100              		.loc 1 291 21 is_stmt 1 discriminator 1 view .LVU309
 291:modules/MI_motor_drive.c ****       hmotor->txdata[i]=0;
 1101              		.loc 1 291 5 is_stmt 0 discriminator 1 view .LVU310
 1102 0032 072B     		cmp	r3, #7
 1103 0034 F6D9     		bls	.L59
 1104              	.LBE8:
 293:modules/MI_motor_drive.c ****     }
 294:modules/MI_motor_drive.c **** 
 295:modules/MI_motor_drive.c ****     memcpy(&hmotor->txdata[0],&index,2);
 1105              		.loc 1 295 5 is_stmt 1 view .LVU311
 1106 0036 47F20503 		movw	r3, #28677
 1107              	.LVL99:
 1108              		.loc 1 295 5 is_stmt 0 view .LVU312
 1109 003a A0F80B30 		strh	r3, [r0, #11]	@ unaligned
 296:modules/MI_motor_drive.c ****     memcpy(&hmotor->txdata[4],&run_mode, 1);
 1110              		.loc 1 296 5 is_stmt 1 view .LVU313
 1111 003e C173     		strb	r1, [r0, #15]
 297:modules/MI_motor_drive.c **** 
 298:modules/MI_motor_drive.c ****     MI_motor_CanTx(hmotor);
 1112              		.loc 1 298 5 view .LVU314
 1113 0040 FFF7FEFF 		bl	MI_motor_CanTx
 1114              	.LVL100:
ARM GAS  C:\Users\12990\AppData\Local\Temp\ccwcqFai.s 			page 26


 299:modules/MI_motor_drive.c **** }
 1115              		.loc 1 299 1 is_stmt 0 view .LVU315
 1116 0044 08BD     		pop	{r3, pc}
 1117              	.L62:
 1118 0046 00BF     		.align	2
 1119              	.L61:
 1120 0048 00000000 		.word	.LANCHOR1
 1121              		.cfi_endproc
 1122              	.LFE142:
 1124              		.section	.text.MI_motor_WritePram,"ax",%progbits
 1125              		.align	1
 1126              		.global	MI_motor_WritePram
 1127              		.syntax unified
 1128              		.thumb
 1129              		.thumb_func
 1131              	MI_motor_WritePram:
 1132              	.LVL101:
 1133              	.LFB143:
 300:modules/MI_motor_drive.c **** 
 301:modules/MI_motor_drive.c **** /**
 302:modules/MI_motor_drive.c ****   * @brief          Â∞èÁ±≥ÁîµÊú∫ÊéßÂà∂ÂèÇÊï∞ÂÜôÂÖ•
 303:modules/MI_motor_drive.c ****   * @param[in]      hmotor ÁîµÊú∫ÁªìÊûÑ‰Ωì
 304:modules/MI_motor_drive.c ****   * @param[in]      index ÂäüËÉΩÁ†Å
 305:modules/MI_motor_drive.c ****   * @param[in]      param ÂÜôÂÖ•ÁöÑÂèÇÊï∞
 306:modules/MI_motor_drive.c ****   * @note           ÈÄö‰ø°Á±ªÂûã18 ÔºàÊéâÁîµ‰∏¢Â§±Ôºâ
 307:modules/MI_motor_drive.c ****   * @retval         none
 308:modules/MI_motor_drive.c ****   */
 309:modules/MI_motor_drive.c ****  void MI_motor_WritePram(MI_Motor_s* hmotor, uint16_t index, float param)
 310:modules/MI_motor_drive.c ****  {
 1134              		.loc 1 310 2 is_stmt 1 view -0
 1135              		.cfi_startproc
 1136              		@ args = 0, pretend = 0, frame = 0
 1137              		@ frame_needed = 0, uses_anonymous_args = 0
 1138              		.loc 1 310 2 is_stmt 0 view .LVU317
 1139 0000 08B5     		push	{r3, lr}
 1140              	.LCFI14:
 1141              		.cfi_def_cfa_offset 8
 1142              		.cfi_offset 3, -8
 1143              		.cfi_offset 14, -4
 311:modules/MI_motor_drive.c ****     hmotor->EXT_ID.mode = 18;
 1144              		.loc 1 311 5 is_stmt 1 view .LVU318
 1145              		.loc 1 311 25 is_stmt 0 view .LVU319
 1146 0002 427A     		ldrb	r2, [r0, #9]	@ zero_extendqisi2
 1147 0004 4FF0120C 		mov	ip, #18
 1148 0008 6CF30402 		bfi	r2, ip, #0, #5
 1149 000c 4272     		strb	r2, [r0, #9]
 312:modules/MI_motor_drive.c ****     hmotor->EXT_ID.motor_id = hmotor->motor_id;
 1150              		.loc 1 312 5 is_stmt 1 view .LVU320
 1151              		.loc 1 312 37 is_stmt 0 view .LVU321
 1152 000e 827A     		ldrb	r2, [r0, #10]	@ zero_extendqisi2
 1153              		.loc 1 312 29 view .LVU322
 1154 0010 8271     		strb	r2, [r0, #6]
 313:modules/MI_motor_drive.c ****     hmotor->EXT_ID.data = MI_MASTERID;
 1155              		.loc 1 313 5 is_stmt 1 view .LVU323
 1156              		.loc 1 313 25 is_stmt 0 view .LVU324
 1157 0012 0A4A     		ldr	r2, .L65
 1158 0014 1278     		ldrb	r2, [r2]	@ zero_extendqisi2
ARM GAS  C:\Users\12990\AppData\Local\Temp\ccwcqFai.s 			page 27


 1159 0016 A0F80720 		strh	r2, [r0, #7]	@ unaligned
 314:modules/MI_motor_drive.c ****     hmotor->EXT_ID.res = 0;
 1160              		.loc 1 314 5 is_stmt 1 view .LVU325
 1161              		.loc 1 314 24 is_stmt 0 view .LVU326
 1162 001a 427A     		ldrb	r2, [r0, #9]	@ zero_extendqisi2
 1163 001c 6FF34712 		bfc	r2, #5, #3
 1164 0020 4272     		strb	r2, [r0, #9]
 315:modules/MI_motor_drive.c **** 
 316:modules/MI_motor_drive.c ****     memcpy(&hmotor->txdata[0],&index,2);
 1165              		.loc 1 316 5 is_stmt 1 view .LVU327
 1166 0022 A0F80B10 		strh	r1, [r0, #11]	@ unaligned
 317:modules/MI_motor_drive.c ****     hmotor->txdata[2]=0;
 1167              		.loc 1 317 5 view .LVU328
 1168              		.loc 1 317 22 is_stmt 0 view .LVU329
 1169 0026 0022     		movs	r2, #0
 1170 0028 4273     		strb	r2, [r0, #13]
 318:modules/MI_motor_drive.c ****     hmotor->txdata[3]=0;
 1171              		.loc 1 318 5 is_stmt 1 view .LVU330
 1172              		.loc 1 318 22 is_stmt 0 view .LVU331
 1173 002a 8273     		strb	r2, [r0, #14]
 319:modules/MI_motor_drive.c ****     memcpy(&hmotor->txdata[4],&param, 4);
 1174              		.loc 1 319 5 is_stmt 1 view .LVU332
 1175 002c 10EE102A 		vmov	r2, s0	@ int
 1176 0030 C0F80F20 		str	r2, [r0, #15]	@ unaligned
 320:modules/MI_motor_drive.c **** 
 321:modules/MI_motor_drive.c ****     MI_motor_CanTx(hmotor);
 1177              		.loc 1 321 5 view .LVU333
 1178 0034 FFF7FEFF 		bl	MI_motor_CanTx
 1179              	.LVL102:
 322:modules/MI_motor_drive.c ****  }
 1180              		.loc 1 322 2 is_stmt 0 view .LVU334
 1181 0038 08BD     		pop	{r3, pc}
 1182              	.L66:
 1183 003a 00BF     		.align	2
 1184              	.L65:
 1185 003c 00000000 		.word	.LANCHOR1
 1186              		.cfi_endproc
 1187              	.LFE143:
 1189              		.section	.text.MI_motor_TorqueControl,"ax",%progbits
 1190              		.align	1
 1191              		.global	MI_motor_TorqueControl
 1192              		.syntax unified
 1193              		.thumb
 1194              		.thumb_func
 1196              	MI_motor_TorqueControl:
 1197              	.LVL103:
 1198              	.LFB144:
 323:modules/MI_motor_drive.c **** 
 324:modules/MI_motor_drive.c **** /*-------------------- Â∞ÅË£ÖÁöÑ‰∏Ä‰∫õÊéßÂà∂ÂáΩÊï∞ --------------------*/
 325:modules/MI_motor_drive.c **** 
 326:modules/MI_motor_drive.c **** /**
 327:modules/MI_motor_drive.c ****   * @brief          Â∞èÁ±≥ÁîµÊú∫ÂäõÁü©ÊéßÂà∂Ê®°ÂºèÊéßÂà∂Êåá‰ª§
 328:modules/MI_motor_drive.c ****   * @param[in]      hmotor ÁîµÊú∫ÁªìÊûÑ‰Ωì
 329:modules/MI_motor_drive.c ****   * @param[in]      torque ÁõÆÊ†áÂäõÁü©
 330:modules/MI_motor_drive.c ****   * @retval         none
 331:modules/MI_motor_drive.c ****   */
 332:modules/MI_motor_drive.c **** void MI_motor_TorqueControl(MI_Motor_s* hmotor, float torque)
ARM GAS  C:\Users\12990\AppData\Local\Temp\ccwcqFai.s 			page 28


 333:modules/MI_motor_drive.c **** {
 1199              		.loc 1 333 1 is_stmt 1 view -0
 1200              		.cfi_startproc
 1201              		@ args = 0, pretend = 0, frame = 0
 1202              		@ frame_needed = 0, uses_anonymous_args = 0
 1203              		.loc 1 333 1 is_stmt 0 view .LVU336
 1204 0000 08B5     		push	{r3, lr}
 1205              	.LCFI15:
 1206              		.cfi_def_cfa_offset 8
 1207              		.cfi_offset 3, -8
 1208              		.cfi_offset 14, -4
 334:modules/MI_motor_drive.c ****     MI_motor_Control(hmotor, torque, 0, 0, 0, 0);
 1209              		.loc 1 334 5 is_stmt 1 view .LVU337
 1210 0002 DFED050A 		vldr.32	s1, .L69
 1211 0006 B0EE602A 		vmov.f32	s4, s1
 1212 000a F0EE601A 		vmov.f32	s3, s1
 1213 000e B0EE601A 		vmov.f32	s2, s1
 1214 0012 FFF7FEFF 		bl	MI_motor_Control
 1215              	.LVL104:
 335:modules/MI_motor_drive.c **** }
 1216              		.loc 1 335 1 is_stmt 0 view .LVU338
 1217 0016 08BD     		pop	{r3, pc}
 1218              	.L70:
 1219              		.align	2
 1220              	.L69:
 1221 0018 00000000 		.word	0
 1222              		.cfi_endproc
 1223              	.LFE144:
 1225              		.section	.text.MI_motor_LocationControl,"ax",%progbits
 1226              		.align	1
 1227              		.global	MI_motor_LocationControl
 1228              		.syntax unified
 1229              		.thumb
 1230              		.thumb_func
 1232              	MI_motor_LocationControl:
 1233              	.LVL105:
 1234              	.LFB145:
 336:modules/MI_motor_drive.c **** 
 337:modules/MI_motor_drive.c **** /**
 338:modules/MI_motor_drive.c ****   * @brief          Â∞èÁ±≥ÁîµÊú∫‰ΩçÁΩÆÊ®°ÂºèÊéßÂà∂Êåá‰ª§
 339:modules/MI_motor_drive.c ****   * @param[in]      hmotor ÁîµÊú∫ÁªìÊûÑ‰Ωì
 340:modules/MI_motor_drive.c ****   * @param[in]      location ÊéßÂà∂‰ΩçÁΩÆ rad
 341:modules/MI_motor_drive.c ****   * @param[in]      kp ÂìçÂ∫îÈÄüÂ∫¶(Âà∞Ëææ‰ΩçÁΩÆÂø´ÊÖ¢)Ôºå‰∏ÄËà¨Âèñ1-10
 342:modules/MI_motor_drive.c ****   * @param[in]      kd ÁîµÊú∫ÈòªÂ∞ºÔºåËøáÂ∞è‰ºöÈúáËç°ÔºåËøáÂ§ßÁîµÊú∫‰ºöÈúáÂä®ÊòéÊòæ„ÄÇ‰∏ÄËà¨Âèñ0.5Â
 343:modules/MI_motor_drive.c ****   * @retval         none
 344:modules/MI_motor_drive.c ****   */
 345:modules/MI_motor_drive.c **** void MI_motor_LocationControl(MI_Motor_s* hmotor, float location, float kp, float kd)
 346:modules/MI_motor_drive.c **** {
 1235              		.loc 1 346 1 is_stmt 1 view -0
 1236              		.cfi_startproc
 1237              		@ args = 0, pretend = 0, frame = 0
 1238              		@ frame_needed = 0, uses_anonymous_args = 0
 1239              		.loc 1 346 1 is_stmt 0 view .LVU340
 1240 0000 08B5     		push	{r3, lr}
 1241              	.LCFI16:
 1242              		.cfi_def_cfa_offset 8
 1243              		.cfi_offset 3, -8
ARM GAS  C:\Users\12990\AppData\Local\Temp\ccwcqFai.s 			page 29


 1244              		.cfi_offset 14, -4
 1245 0002 F0EE601A 		vmov.f32	s3, s1
 1246 0006 B0EE412A 		vmov.f32	s4, s2
 347:modules/MI_motor_drive.c ****     MI_motor_Control(hmotor, 0, location, 0, kp, kd);
 1247              		.loc 1 347 5 is_stmt 1 view .LVU341
 1248 000a 9FED041A 		vldr.32	s2, .L73
 1249              	.LVL106:
 1250              		.loc 1 347 5 is_stmt 0 view .LVU342
 1251 000e F0EE400A 		vmov.f32	s1, s0
 1252              	.LVL107:
 1253              		.loc 1 347 5 view .LVU343
 1254 0012 B0EE410A 		vmov.f32	s0, s2
 1255              	.LVL108:
 1256              		.loc 1 347 5 view .LVU344
 1257 0016 FFF7FEFF 		bl	MI_motor_Control
 1258              	.LVL109:
 348:modules/MI_motor_drive.c **** }
 1259              		.loc 1 348 1 view .LVU345
 1260 001a 08BD     		pop	{r3, pc}
 1261              	.L74:
 1262              		.align	2
 1263              	.L73:
 1264 001c 00000000 		.word	0
 1265              		.cfi_endproc
 1266              	.LFE145:
 1268              		.section	.text.MI_motor_SpeedControl,"ax",%progbits
 1269              		.align	1
 1270              		.global	MI_motor_SpeedControl
 1271              		.syntax unified
 1272              		.thumb
 1273              		.thumb_func
 1275              	MI_motor_SpeedControl:
 1276              	.LVL110:
 1277              	.LFB146:
 349:modules/MI_motor_drive.c **** 
 350:modules/MI_motor_drive.c **** /**
 351:modules/MI_motor_drive.c ****   * @brief          Â∞èÁ±≥ÁîµÊú∫ÈÄüÂ∫¶Ê®°ÂºèÊéßÂà∂Êåá‰ª§
 352:modules/MI_motor_drive.c ****   * @param[in]      hmotor ÁîµÊú∫ÁªìÊûÑ‰Ωì
 353:modules/MI_motor_drive.c ****   * @param[in]      speed ÊéßÂà∂ÈÄüÂ∫¶
 354:modules/MI_motor_drive.c ****   * @param[in]      kd ÂìçÂ∫îÈÄüÂ∫¶Ôºå‰∏ÄËà¨Âèñ0.1-1
 355:modules/MI_motor_drive.c ****   * @retval         none
 356:modules/MI_motor_drive.c ****   */
 357:modules/MI_motor_drive.c **** void MI_motor_SpeedControl(MI_Motor_s* hmotor, float speed, float kd)
 358:modules/MI_motor_drive.c **** {
 1278              		.loc 1 358 1 is_stmt 1 view -0
 1279              		.cfi_startproc
 1280              		@ args = 0, pretend = 0, frame = 0
 1281              		@ frame_needed = 0, uses_anonymous_args = 0
 1282              		.loc 1 358 1 is_stmt 0 view .LVU347
 1283 0000 08B5     		push	{r3, lr}
 1284              	.LCFI17:
 1285              		.cfi_def_cfa_offset 8
 1286              		.cfi_offset 3, -8
 1287              		.cfi_offset 14, -4
 1288 0002 B0EE401A 		vmov.f32	s2, s0
 1289 0006 B0EE602A 		vmov.f32	s4, s1
 359:modules/MI_motor_drive.c ****     MI_motor_Control(hmotor, 0, 0, speed, 0, kd);
ARM GAS  C:\Users\12990\AppData\Local\Temp\ccwcqFai.s 			page 30


 1290              		.loc 1 359 5 is_stmt 1 view .LVU348
 1291 000a 9FED040A 		vldr.32	s0, .L77
 1292              	.LVL111:
 1293              		.loc 1 359 5 is_stmt 0 view .LVU349
 1294 000e F0EE401A 		vmov.f32	s3, s0
 1295 0012 F0EE400A 		vmov.f32	s1, s0
 1296              	.LVL112:
 1297              		.loc 1 359 5 view .LVU350
 1298 0016 FFF7FEFF 		bl	MI_motor_Control
 1299              	.LVL113:
 360:modules/MI_motor_drive.c **** }
 1300              		.loc 1 360 1 view .LVU351
 1301 001a 08BD     		pop	{r3, pc}
 1302              	.L78:
 1303              		.align	2
 1304              	.L77:
 1305 001c 00000000 		.word	0
 1306              		.cfi_endproc
 1307              	.LFE146:
 1309              		.global	MI_TESTID
 1310              		.global	MI_MASTERID
 1311              		.global	CAN_TxHeader_MI
 1312              		.section	.bss.CAN_TxHeader_MI,"aw",%nobits
 1313              		.align	2
 1314              		.set	.LANCHOR0,. + 0
 1317              	CAN_TxHeader_MI:
 1318 0000 00000000 		.space	24
 1318      00000000 
 1318      00000000 
 1318      00000000 
 1318      00000000 
 1319              		.section	.data.MI_MASTERID,"aw"
 1320              		.set	.LANCHOR1,. + 0
 1323              	MI_MASTERID:
 1324 0000 01       		.byte	1
 1325              		.section	.data.MI_TESTID,"aw"
 1328              	MI_TESTID:
 1329 0000 FD       		.byte	-3
 1330              		.text
 1331              	.Letext0:
 1332              		.file 2 "c:\\program files (x86)\\gnu arm embedded toolchain\\10 2021.10\\arm-none-eabi\\include\\
 1333              		.file 3 "c:\\program files (x86)\\gnu arm embedded toolchain\\10 2021.10\\arm-none-eabi\\include\\
 1334              		.file 4 "Drivers/CMSIS/Device/ST/STM32F4xx/Include/stm32f407xx.h"
 1335              		.file 5 "Drivers/CMSIS/Device/ST/STM32F4xx/Include/stm32f4xx.h"
 1336              		.file 6 "Drivers/STM32F4xx_HAL_Driver/Inc/stm32f4xx_hal_can.h"
 1337              		.file 7 "modules/MI_motor_drive.h"
 1338              		.file 8 "<built-in>"
ARM GAS  C:\Users\12990\AppData\Local\Temp\ccwcqFai.s 			page 31

