ARM GAS  C:\Users\12990\AppData\Local\Temp\ccxhiVmA.s 			page 1


   1              		.cpu cortex-m4
   2              		.arch armv7e-m
   3              		.fpu fpv4-sp-d16
   4              		.eabi_attribute 27, 1
   5              		.eabi_attribute 28, 1
   6              		.eabi_attribute 20, 1
   7              		.eabi_attribute 21, 1
   8              		.eabi_attribute 23, 3
   9              		.eabi_attribute 24, 1
  10              		.eabi_attribute 25, 1
  11              		.eabi_attribute 26, 1
  12              		.eabi_attribute 30, 1
  13              		.eabi_attribute 34, 1
  14              		.eabi_attribute 18, 4
  15              		.file	"stm32f4xx_hal_can.c"
  16              		.text
  17              	.Ltext0:
  18              		.cfi_sections	.debug_frame
  19              		.section	.text.HAL_CAN_MspInit,"ax",%progbits
  20              		.align	1
  21              		.weak	HAL_CAN_MspInit
  22              		.syntax unified
  23              		.thumb
  24              		.thumb_func
  26              	HAL_CAN_MspInit:
  27              	.LVL0:
  28              	.LFB132:
  29              		.file 1 "Drivers/STM32F4xx_HAL_Driver/Src/stm32f4xx_hal_can.c"
   1:Drivers/STM32F4xx_HAL_Driver/Src/stm32f4xx_hal_can.c **** /**
   2:Drivers/STM32F4xx_HAL_Driver/Src/stm32f4xx_hal_can.c ****   ******************************************************************************
   3:Drivers/STM32F4xx_HAL_Driver/Src/stm32f4xx_hal_can.c ****   * @file    stm32f4xx_hal_can.c
   4:Drivers/STM32F4xx_HAL_Driver/Src/stm32f4xx_hal_can.c ****   * @author  MCD Application Team
   5:Drivers/STM32F4xx_HAL_Driver/Src/stm32f4xx_hal_can.c ****   * @brief   CAN HAL module driver.
   6:Drivers/STM32F4xx_HAL_Driver/Src/stm32f4xx_hal_can.c ****   *          This file provides firmware functions to manage the following
   7:Drivers/STM32F4xx_HAL_Driver/Src/stm32f4xx_hal_can.c ****   *          functionalities of the Controller Area Network (CAN) peripheral:
   8:Drivers/STM32F4xx_HAL_Driver/Src/stm32f4xx_hal_can.c ****   *           + Initialization and de-initialization functions
   9:Drivers/STM32F4xx_HAL_Driver/Src/stm32f4xx_hal_can.c ****   *           + Configuration functions
  10:Drivers/STM32F4xx_HAL_Driver/Src/stm32f4xx_hal_can.c ****   *           + Control functions
  11:Drivers/STM32F4xx_HAL_Driver/Src/stm32f4xx_hal_can.c ****   *           + Interrupts management
  12:Drivers/STM32F4xx_HAL_Driver/Src/stm32f4xx_hal_can.c ****   *           + Callbacks functions
  13:Drivers/STM32F4xx_HAL_Driver/Src/stm32f4xx_hal_can.c ****   *           + Peripheral State and Error functions
  14:Drivers/STM32F4xx_HAL_Driver/Src/stm32f4xx_hal_can.c ****   *
  15:Drivers/STM32F4xx_HAL_Driver/Src/stm32f4xx_hal_can.c ****   ******************************************************************************
  16:Drivers/STM32F4xx_HAL_Driver/Src/stm32f4xx_hal_can.c ****   * @attention
  17:Drivers/STM32F4xx_HAL_Driver/Src/stm32f4xx_hal_can.c ****   *
  18:Drivers/STM32F4xx_HAL_Driver/Src/stm32f4xx_hal_can.c ****   * Copyright (c) 2016 STMicroelectronics.
  19:Drivers/STM32F4xx_HAL_Driver/Src/stm32f4xx_hal_can.c ****   * All rights reserved.
  20:Drivers/STM32F4xx_HAL_Driver/Src/stm32f4xx_hal_can.c ****   *
  21:Drivers/STM32F4xx_HAL_Driver/Src/stm32f4xx_hal_can.c ****   * This software is licensed under terms that can be found in the LICENSE file
  22:Drivers/STM32F4xx_HAL_Driver/Src/stm32f4xx_hal_can.c ****   * in the root directory of this software component.
  23:Drivers/STM32F4xx_HAL_Driver/Src/stm32f4xx_hal_can.c ****   * If no LICENSE file comes with this software, it is provided AS-IS.
  24:Drivers/STM32F4xx_HAL_Driver/Src/stm32f4xx_hal_can.c ****   *
  25:Drivers/STM32F4xx_HAL_Driver/Src/stm32f4xx_hal_can.c ****   ******************************************************************************
  26:Drivers/STM32F4xx_HAL_Driver/Src/stm32f4xx_hal_can.c ****   @verbatim
  27:Drivers/STM32F4xx_HAL_Driver/Src/stm32f4xx_hal_can.c ****   ==============================================================================
  28:Drivers/STM32F4xx_HAL_Driver/Src/stm32f4xx_hal_can.c ****                         ##### How to use this driver #####
  29:Drivers/STM32F4xx_HAL_Driver/Src/stm32f4xx_hal_can.c ****   ==============================================================================
ARM GAS  C:\Users\12990\AppData\Local\Temp\ccxhiVmA.s 			page 2


  30:Drivers/STM32F4xx_HAL_Driver/Src/stm32f4xx_hal_can.c ****     [..]
  31:Drivers/STM32F4xx_HAL_Driver/Src/stm32f4xx_hal_can.c ****       (#) Initialize the CAN low level resources by implementing the
  32:Drivers/STM32F4xx_HAL_Driver/Src/stm32f4xx_hal_can.c ****           HAL_CAN_MspInit():
  33:Drivers/STM32F4xx_HAL_Driver/Src/stm32f4xx_hal_can.c ****          (++) Enable the CAN interface clock using __HAL_RCC_CANx_CLK_ENABLE()
  34:Drivers/STM32F4xx_HAL_Driver/Src/stm32f4xx_hal_can.c ****          (++) Configure CAN pins
  35:Drivers/STM32F4xx_HAL_Driver/Src/stm32f4xx_hal_can.c ****              (+++) Enable the clock for the CAN GPIOs
  36:Drivers/STM32F4xx_HAL_Driver/Src/stm32f4xx_hal_can.c ****              (+++) Configure CAN pins as alternate function open-drain
  37:Drivers/STM32F4xx_HAL_Driver/Src/stm32f4xx_hal_can.c ****          (++) In case of using interrupts (e.g. HAL_CAN_ActivateNotification())
  38:Drivers/STM32F4xx_HAL_Driver/Src/stm32f4xx_hal_can.c ****              (+++) Configure the CAN interrupt priority using
  39:Drivers/STM32F4xx_HAL_Driver/Src/stm32f4xx_hal_can.c ****                    HAL_NVIC_SetPriority()
  40:Drivers/STM32F4xx_HAL_Driver/Src/stm32f4xx_hal_can.c ****              (+++) Enable the CAN IRQ handler using HAL_NVIC_EnableIRQ()
  41:Drivers/STM32F4xx_HAL_Driver/Src/stm32f4xx_hal_can.c ****              (+++) In CAN IRQ handler, call HAL_CAN_IRQHandler()
  42:Drivers/STM32F4xx_HAL_Driver/Src/stm32f4xx_hal_can.c **** 
  43:Drivers/STM32F4xx_HAL_Driver/Src/stm32f4xx_hal_can.c ****       (#) Initialize the CAN peripheral using HAL_CAN_Init() function. This
  44:Drivers/STM32F4xx_HAL_Driver/Src/stm32f4xx_hal_can.c ****           function resorts to HAL_CAN_MspInit() for low-level initialization.
  45:Drivers/STM32F4xx_HAL_Driver/Src/stm32f4xx_hal_can.c **** 
  46:Drivers/STM32F4xx_HAL_Driver/Src/stm32f4xx_hal_can.c ****       (#) Configure the reception filters using the following configuration
  47:Drivers/STM32F4xx_HAL_Driver/Src/stm32f4xx_hal_can.c ****           functions:
  48:Drivers/STM32F4xx_HAL_Driver/Src/stm32f4xx_hal_can.c ****             (++) HAL_CAN_ConfigFilter()
  49:Drivers/STM32F4xx_HAL_Driver/Src/stm32f4xx_hal_can.c **** 
  50:Drivers/STM32F4xx_HAL_Driver/Src/stm32f4xx_hal_can.c ****       (#) Start the CAN module using HAL_CAN_Start() function. At this level
  51:Drivers/STM32F4xx_HAL_Driver/Src/stm32f4xx_hal_can.c ****           the node is active on the bus: it receive messages, and can send
  52:Drivers/STM32F4xx_HAL_Driver/Src/stm32f4xx_hal_can.c ****           messages.
  53:Drivers/STM32F4xx_HAL_Driver/Src/stm32f4xx_hal_can.c **** 
  54:Drivers/STM32F4xx_HAL_Driver/Src/stm32f4xx_hal_can.c ****       (#) To manage messages transmission, the following Tx control functions
  55:Drivers/STM32F4xx_HAL_Driver/Src/stm32f4xx_hal_can.c ****           can be used:
  56:Drivers/STM32F4xx_HAL_Driver/Src/stm32f4xx_hal_can.c ****             (++) HAL_CAN_AddTxMessage() to request transmission of a new
  57:Drivers/STM32F4xx_HAL_Driver/Src/stm32f4xx_hal_can.c ****                  message.
  58:Drivers/STM32F4xx_HAL_Driver/Src/stm32f4xx_hal_can.c ****             (++) HAL_CAN_AbortTxRequest() to abort transmission of a pending
  59:Drivers/STM32F4xx_HAL_Driver/Src/stm32f4xx_hal_can.c ****                  message.
  60:Drivers/STM32F4xx_HAL_Driver/Src/stm32f4xx_hal_can.c ****             (++) HAL_CAN_GetTxMailboxesFreeLevel() to get the number of free Tx
  61:Drivers/STM32F4xx_HAL_Driver/Src/stm32f4xx_hal_can.c ****                  mailboxes.
  62:Drivers/STM32F4xx_HAL_Driver/Src/stm32f4xx_hal_can.c ****             (++) HAL_CAN_IsTxMessagePending() to check if a message is pending
  63:Drivers/STM32F4xx_HAL_Driver/Src/stm32f4xx_hal_can.c ****                  in a Tx mailbox.
  64:Drivers/STM32F4xx_HAL_Driver/Src/stm32f4xx_hal_can.c ****             (++) HAL_CAN_GetTxTimestamp() to get the timestamp of Tx message
  65:Drivers/STM32F4xx_HAL_Driver/Src/stm32f4xx_hal_can.c ****                  sent, if time triggered communication mode is enabled.
  66:Drivers/STM32F4xx_HAL_Driver/Src/stm32f4xx_hal_can.c **** 
  67:Drivers/STM32F4xx_HAL_Driver/Src/stm32f4xx_hal_can.c ****       (#) When a message is received into the CAN Rx FIFOs, it can be retrieved
  68:Drivers/STM32F4xx_HAL_Driver/Src/stm32f4xx_hal_can.c ****           using the HAL_CAN_GetRxMessage() function. The function
  69:Drivers/STM32F4xx_HAL_Driver/Src/stm32f4xx_hal_can.c ****           HAL_CAN_GetRxFifoFillLevel() allows to know how many Rx message are
  70:Drivers/STM32F4xx_HAL_Driver/Src/stm32f4xx_hal_can.c ****           stored in the Rx Fifo.
  71:Drivers/STM32F4xx_HAL_Driver/Src/stm32f4xx_hal_can.c **** 
  72:Drivers/STM32F4xx_HAL_Driver/Src/stm32f4xx_hal_can.c ****       (#) Calling the HAL_CAN_Stop() function stops the CAN module.
  73:Drivers/STM32F4xx_HAL_Driver/Src/stm32f4xx_hal_can.c **** 
  74:Drivers/STM32F4xx_HAL_Driver/Src/stm32f4xx_hal_can.c ****       (#) The deinitialization is achieved with HAL_CAN_DeInit() function.
  75:Drivers/STM32F4xx_HAL_Driver/Src/stm32f4xx_hal_can.c **** 
  76:Drivers/STM32F4xx_HAL_Driver/Src/stm32f4xx_hal_can.c **** 
  77:Drivers/STM32F4xx_HAL_Driver/Src/stm32f4xx_hal_can.c ****       *** Polling mode operation ***
  78:Drivers/STM32F4xx_HAL_Driver/Src/stm32f4xx_hal_can.c ****       ==============================
  79:Drivers/STM32F4xx_HAL_Driver/Src/stm32f4xx_hal_can.c ****     [..]
  80:Drivers/STM32F4xx_HAL_Driver/Src/stm32f4xx_hal_can.c ****       (#) Reception:
  81:Drivers/STM32F4xx_HAL_Driver/Src/stm32f4xx_hal_can.c ****             (++) Monitor reception of message using HAL_CAN_GetRxFifoFillLevel()
  82:Drivers/STM32F4xx_HAL_Driver/Src/stm32f4xx_hal_can.c ****                  until at least one message is received.
  83:Drivers/STM32F4xx_HAL_Driver/Src/stm32f4xx_hal_can.c ****             (++) Then get the message using HAL_CAN_GetRxMessage().
  84:Drivers/STM32F4xx_HAL_Driver/Src/stm32f4xx_hal_can.c **** 
  85:Drivers/STM32F4xx_HAL_Driver/Src/stm32f4xx_hal_can.c ****       (#) Transmission:
  86:Drivers/STM32F4xx_HAL_Driver/Src/stm32f4xx_hal_can.c ****             (++) Monitor the Tx mailboxes availability until at least one Tx
ARM GAS  C:\Users\12990\AppData\Local\Temp\ccxhiVmA.s 			page 3


  87:Drivers/STM32F4xx_HAL_Driver/Src/stm32f4xx_hal_can.c ****                  mailbox is free, using HAL_CAN_GetTxMailboxesFreeLevel().
  88:Drivers/STM32F4xx_HAL_Driver/Src/stm32f4xx_hal_can.c ****             (++) Then request transmission of a message using
  89:Drivers/STM32F4xx_HAL_Driver/Src/stm32f4xx_hal_can.c ****                  HAL_CAN_AddTxMessage().
  90:Drivers/STM32F4xx_HAL_Driver/Src/stm32f4xx_hal_can.c **** 
  91:Drivers/STM32F4xx_HAL_Driver/Src/stm32f4xx_hal_can.c **** 
  92:Drivers/STM32F4xx_HAL_Driver/Src/stm32f4xx_hal_can.c ****       *** Interrupt mode operation ***
  93:Drivers/STM32F4xx_HAL_Driver/Src/stm32f4xx_hal_can.c ****       ================================
  94:Drivers/STM32F4xx_HAL_Driver/Src/stm32f4xx_hal_can.c ****     [..]
  95:Drivers/STM32F4xx_HAL_Driver/Src/stm32f4xx_hal_can.c ****       (#) Notifications are activated using HAL_CAN_ActivateNotification()
  96:Drivers/STM32F4xx_HAL_Driver/Src/stm32f4xx_hal_can.c ****           function. Then, the process can be controlled through the
  97:Drivers/STM32F4xx_HAL_Driver/Src/stm32f4xx_hal_can.c ****           available user callbacks: HAL_CAN_xxxCallback(), using same APIs
  98:Drivers/STM32F4xx_HAL_Driver/Src/stm32f4xx_hal_can.c ****           HAL_CAN_GetRxMessage() and HAL_CAN_AddTxMessage().
  99:Drivers/STM32F4xx_HAL_Driver/Src/stm32f4xx_hal_can.c **** 
 100:Drivers/STM32F4xx_HAL_Driver/Src/stm32f4xx_hal_can.c ****       (#) Notifications can be deactivated using
 101:Drivers/STM32F4xx_HAL_Driver/Src/stm32f4xx_hal_can.c ****           HAL_CAN_DeactivateNotification() function.
 102:Drivers/STM32F4xx_HAL_Driver/Src/stm32f4xx_hal_can.c **** 
 103:Drivers/STM32F4xx_HAL_Driver/Src/stm32f4xx_hal_can.c ****       (#) Special care should be taken for CAN_IT_RX_FIFO0_MSG_PENDING and
 104:Drivers/STM32F4xx_HAL_Driver/Src/stm32f4xx_hal_can.c ****           CAN_IT_RX_FIFO1_MSG_PENDING notifications. These notifications trig
 105:Drivers/STM32F4xx_HAL_Driver/Src/stm32f4xx_hal_can.c ****           the callbacks HAL_CAN_RxFIFO0MsgPendingCallback() and
 106:Drivers/STM32F4xx_HAL_Driver/Src/stm32f4xx_hal_can.c ****           HAL_CAN_RxFIFO1MsgPendingCallback(). User has two possible options
 107:Drivers/STM32F4xx_HAL_Driver/Src/stm32f4xx_hal_can.c ****           here.
 108:Drivers/STM32F4xx_HAL_Driver/Src/stm32f4xx_hal_can.c ****             (++) Directly get the Rx message in the callback, using
 109:Drivers/STM32F4xx_HAL_Driver/Src/stm32f4xx_hal_can.c ****                  HAL_CAN_GetRxMessage().
 110:Drivers/STM32F4xx_HAL_Driver/Src/stm32f4xx_hal_can.c ****             (++) Or deactivate the notification in the callback without
 111:Drivers/STM32F4xx_HAL_Driver/Src/stm32f4xx_hal_can.c ****                  getting the Rx message. The Rx message can then be got later
 112:Drivers/STM32F4xx_HAL_Driver/Src/stm32f4xx_hal_can.c ****                  using HAL_CAN_GetRxMessage(). Once the Rx message have been
 113:Drivers/STM32F4xx_HAL_Driver/Src/stm32f4xx_hal_can.c ****                  read, the notification can be activated again.
 114:Drivers/STM32F4xx_HAL_Driver/Src/stm32f4xx_hal_can.c **** 
 115:Drivers/STM32F4xx_HAL_Driver/Src/stm32f4xx_hal_can.c **** 
 116:Drivers/STM32F4xx_HAL_Driver/Src/stm32f4xx_hal_can.c ****       *** Sleep mode ***
 117:Drivers/STM32F4xx_HAL_Driver/Src/stm32f4xx_hal_can.c ****       ==================
 118:Drivers/STM32F4xx_HAL_Driver/Src/stm32f4xx_hal_can.c ****     [..]
 119:Drivers/STM32F4xx_HAL_Driver/Src/stm32f4xx_hal_can.c ****       (#) The CAN peripheral can be put in sleep mode (low power), using
 120:Drivers/STM32F4xx_HAL_Driver/Src/stm32f4xx_hal_can.c ****           HAL_CAN_RequestSleep(). The sleep mode will be entered as soon as the
 121:Drivers/STM32F4xx_HAL_Driver/Src/stm32f4xx_hal_can.c ****           current CAN activity (transmission or reception of a CAN frame) will
 122:Drivers/STM32F4xx_HAL_Driver/Src/stm32f4xx_hal_can.c ****           be completed.
 123:Drivers/STM32F4xx_HAL_Driver/Src/stm32f4xx_hal_can.c **** 
 124:Drivers/STM32F4xx_HAL_Driver/Src/stm32f4xx_hal_can.c ****       (#) A notification can be activated to be informed when the sleep mode
 125:Drivers/STM32F4xx_HAL_Driver/Src/stm32f4xx_hal_can.c ****           will be entered.
 126:Drivers/STM32F4xx_HAL_Driver/Src/stm32f4xx_hal_can.c **** 
 127:Drivers/STM32F4xx_HAL_Driver/Src/stm32f4xx_hal_can.c ****       (#) It can be checked if the sleep mode is entered using
 128:Drivers/STM32F4xx_HAL_Driver/Src/stm32f4xx_hal_can.c ****           HAL_CAN_IsSleepActive().
 129:Drivers/STM32F4xx_HAL_Driver/Src/stm32f4xx_hal_can.c ****           Note that the CAN state (accessible from the API HAL_CAN_GetState())
 130:Drivers/STM32F4xx_HAL_Driver/Src/stm32f4xx_hal_can.c ****           is HAL_CAN_STATE_SLEEP_PENDING as soon as the sleep mode request is
 131:Drivers/STM32F4xx_HAL_Driver/Src/stm32f4xx_hal_can.c ****           submitted (the sleep mode is not yet entered), and become
 132:Drivers/STM32F4xx_HAL_Driver/Src/stm32f4xx_hal_can.c ****           HAL_CAN_STATE_SLEEP_ACTIVE when the sleep mode is effective.
 133:Drivers/STM32F4xx_HAL_Driver/Src/stm32f4xx_hal_can.c **** 
 134:Drivers/STM32F4xx_HAL_Driver/Src/stm32f4xx_hal_can.c ****       (#) The wake-up from sleep mode can be triggered by two ways:
 135:Drivers/STM32F4xx_HAL_Driver/Src/stm32f4xx_hal_can.c ****             (++) Using HAL_CAN_WakeUp(). When returning from this function,
 136:Drivers/STM32F4xx_HAL_Driver/Src/stm32f4xx_hal_can.c ****                  the sleep mode is exited (if return status is HAL_OK).
 137:Drivers/STM32F4xx_HAL_Driver/Src/stm32f4xx_hal_can.c ****             (++) When a start of Rx CAN frame is detected by the CAN peripheral,
 138:Drivers/STM32F4xx_HAL_Driver/Src/stm32f4xx_hal_can.c ****                  if automatic wake up mode is enabled.
 139:Drivers/STM32F4xx_HAL_Driver/Src/stm32f4xx_hal_can.c **** 
 140:Drivers/STM32F4xx_HAL_Driver/Src/stm32f4xx_hal_can.c ****   *** Callback registration ***
 141:Drivers/STM32F4xx_HAL_Driver/Src/stm32f4xx_hal_can.c ****   =============================================
 142:Drivers/STM32F4xx_HAL_Driver/Src/stm32f4xx_hal_can.c **** 
 143:Drivers/STM32F4xx_HAL_Driver/Src/stm32f4xx_hal_can.c ****   The compilation define  USE_HAL_CAN_REGISTER_CALLBACKS when set to 1
ARM GAS  C:\Users\12990\AppData\Local\Temp\ccxhiVmA.s 			page 4


 144:Drivers/STM32F4xx_HAL_Driver/Src/stm32f4xx_hal_can.c ****   allows the user to configure dynamically the driver callbacks.
 145:Drivers/STM32F4xx_HAL_Driver/Src/stm32f4xx_hal_can.c ****   Use Function HAL_CAN_RegisterCallback() to register an interrupt callback.
 146:Drivers/STM32F4xx_HAL_Driver/Src/stm32f4xx_hal_can.c **** 
 147:Drivers/STM32F4xx_HAL_Driver/Src/stm32f4xx_hal_can.c ****   Function HAL_CAN_RegisterCallback() allows to register following callbacks:
 148:Drivers/STM32F4xx_HAL_Driver/Src/stm32f4xx_hal_can.c ****     (+) TxMailbox0CompleteCallback   : Tx Mailbox 0 Complete Callback.
 149:Drivers/STM32F4xx_HAL_Driver/Src/stm32f4xx_hal_can.c ****     (+) TxMailbox1CompleteCallback   : Tx Mailbox 1 Complete Callback.
 150:Drivers/STM32F4xx_HAL_Driver/Src/stm32f4xx_hal_can.c ****     (+) TxMailbox2CompleteCallback   : Tx Mailbox 2 Complete Callback.
 151:Drivers/STM32F4xx_HAL_Driver/Src/stm32f4xx_hal_can.c ****     (+) TxMailbox0AbortCallback      : Tx Mailbox 0 Abort Callback.
 152:Drivers/STM32F4xx_HAL_Driver/Src/stm32f4xx_hal_can.c ****     (+) TxMailbox1AbortCallback      : Tx Mailbox 1 Abort Callback.
 153:Drivers/STM32F4xx_HAL_Driver/Src/stm32f4xx_hal_can.c ****     (+) TxMailbox2AbortCallback      : Tx Mailbox 2 Abort Callback.
 154:Drivers/STM32F4xx_HAL_Driver/Src/stm32f4xx_hal_can.c ****     (+) RxFifo0MsgPendingCallback    : Rx Fifo 0 Message Pending Callback.
 155:Drivers/STM32F4xx_HAL_Driver/Src/stm32f4xx_hal_can.c ****     (+) RxFifo0FullCallback          : Rx Fifo 0 Full Callback.
 156:Drivers/STM32F4xx_HAL_Driver/Src/stm32f4xx_hal_can.c ****     (+) RxFifo1MsgPendingCallback    : Rx Fifo 1 Message Pending Callback.
 157:Drivers/STM32F4xx_HAL_Driver/Src/stm32f4xx_hal_can.c ****     (+) RxFifo1FullCallback          : Rx Fifo 1 Full Callback.
 158:Drivers/STM32F4xx_HAL_Driver/Src/stm32f4xx_hal_can.c ****     (+) SleepCallback                : Sleep Callback.
 159:Drivers/STM32F4xx_HAL_Driver/Src/stm32f4xx_hal_can.c ****     (+) WakeUpFromRxMsgCallback      : Wake Up From Rx Message Callback.
 160:Drivers/STM32F4xx_HAL_Driver/Src/stm32f4xx_hal_can.c ****     (+) ErrorCallback                : Error Callback.
 161:Drivers/STM32F4xx_HAL_Driver/Src/stm32f4xx_hal_can.c ****     (+) MspInitCallback              : CAN MspInit.
 162:Drivers/STM32F4xx_HAL_Driver/Src/stm32f4xx_hal_can.c ****     (+) MspDeInitCallback            : CAN MspDeInit.
 163:Drivers/STM32F4xx_HAL_Driver/Src/stm32f4xx_hal_can.c ****   This function takes as parameters the HAL peripheral handle, the Callback ID
 164:Drivers/STM32F4xx_HAL_Driver/Src/stm32f4xx_hal_can.c ****   and a pointer to the user callback function.
 165:Drivers/STM32F4xx_HAL_Driver/Src/stm32f4xx_hal_can.c **** 
 166:Drivers/STM32F4xx_HAL_Driver/Src/stm32f4xx_hal_can.c ****   Use function HAL_CAN_UnRegisterCallback() to reset a callback to the default
 167:Drivers/STM32F4xx_HAL_Driver/Src/stm32f4xx_hal_can.c ****   weak function.
 168:Drivers/STM32F4xx_HAL_Driver/Src/stm32f4xx_hal_can.c ****   HAL_CAN_UnRegisterCallback takes as parameters the HAL peripheral handle,
 169:Drivers/STM32F4xx_HAL_Driver/Src/stm32f4xx_hal_can.c ****   and the Callback ID.
 170:Drivers/STM32F4xx_HAL_Driver/Src/stm32f4xx_hal_can.c ****   This function allows to reset following callbacks:
 171:Drivers/STM32F4xx_HAL_Driver/Src/stm32f4xx_hal_can.c ****     (+) TxMailbox0CompleteCallback   : Tx Mailbox 0 Complete Callback.
 172:Drivers/STM32F4xx_HAL_Driver/Src/stm32f4xx_hal_can.c ****     (+) TxMailbox1CompleteCallback   : Tx Mailbox 1 Complete Callback.
 173:Drivers/STM32F4xx_HAL_Driver/Src/stm32f4xx_hal_can.c ****     (+) TxMailbox2CompleteCallback   : Tx Mailbox 2 Complete Callback.
 174:Drivers/STM32F4xx_HAL_Driver/Src/stm32f4xx_hal_can.c ****     (+) TxMailbox0AbortCallback      : Tx Mailbox 0 Abort Callback.
 175:Drivers/STM32F4xx_HAL_Driver/Src/stm32f4xx_hal_can.c ****     (+) TxMailbox1AbortCallback      : Tx Mailbox 1 Abort Callback.
 176:Drivers/STM32F4xx_HAL_Driver/Src/stm32f4xx_hal_can.c ****     (+) TxMailbox2AbortCallback      : Tx Mailbox 2 Abort Callback.
 177:Drivers/STM32F4xx_HAL_Driver/Src/stm32f4xx_hal_can.c ****     (+) RxFifo0MsgPendingCallback    : Rx Fifo 0 Message Pending Callback.
 178:Drivers/STM32F4xx_HAL_Driver/Src/stm32f4xx_hal_can.c ****     (+) RxFifo0FullCallback          : Rx Fifo 0 Full Callback.
 179:Drivers/STM32F4xx_HAL_Driver/Src/stm32f4xx_hal_can.c ****     (+) RxFifo1MsgPendingCallback    : Rx Fifo 1 Message Pending Callback.
 180:Drivers/STM32F4xx_HAL_Driver/Src/stm32f4xx_hal_can.c ****     (+) RxFifo1FullCallback          : Rx Fifo 1 Full Callback.
 181:Drivers/STM32F4xx_HAL_Driver/Src/stm32f4xx_hal_can.c ****     (+) SleepCallback                : Sleep Callback.
 182:Drivers/STM32F4xx_HAL_Driver/Src/stm32f4xx_hal_can.c ****     (+) WakeUpFromRxMsgCallback      : Wake Up From Rx Message Callback.
 183:Drivers/STM32F4xx_HAL_Driver/Src/stm32f4xx_hal_can.c ****     (+) ErrorCallback                : Error Callback.
 184:Drivers/STM32F4xx_HAL_Driver/Src/stm32f4xx_hal_can.c ****     (+) MspInitCallback              : CAN MspInit.
 185:Drivers/STM32F4xx_HAL_Driver/Src/stm32f4xx_hal_can.c ****     (+) MspDeInitCallback            : CAN MspDeInit.
 186:Drivers/STM32F4xx_HAL_Driver/Src/stm32f4xx_hal_can.c **** 
 187:Drivers/STM32F4xx_HAL_Driver/Src/stm32f4xx_hal_can.c ****   By default, after the HAL_CAN_Init() and when the state is HAL_CAN_STATE_RESET,
 188:Drivers/STM32F4xx_HAL_Driver/Src/stm32f4xx_hal_can.c ****   all callbacks are set to the corresponding weak functions:
 189:Drivers/STM32F4xx_HAL_Driver/Src/stm32f4xx_hal_can.c ****   example HAL_CAN_ErrorCallback().
 190:Drivers/STM32F4xx_HAL_Driver/Src/stm32f4xx_hal_can.c ****   Exception done for MspInit and MspDeInit functions that are
 191:Drivers/STM32F4xx_HAL_Driver/Src/stm32f4xx_hal_can.c ****   reset to the legacy weak function in the HAL_CAN_Init()/ HAL_CAN_DeInit() only when
 192:Drivers/STM32F4xx_HAL_Driver/Src/stm32f4xx_hal_can.c ****   these callbacks are null (not registered beforehand).
 193:Drivers/STM32F4xx_HAL_Driver/Src/stm32f4xx_hal_can.c ****   if not, MspInit or MspDeInit are not null, the HAL_CAN_Init()/ HAL_CAN_DeInit()
 194:Drivers/STM32F4xx_HAL_Driver/Src/stm32f4xx_hal_can.c ****   keep and use the user MspInit/MspDeInit callbacks (registered beforehand)
 195:Drivers/STM32F4xx_HAL_Driver/Src/stm32f4xx_hal_can.c **** 
 196:Drivers/STM32F4xx_HAL_Driver/Src/stm32f4xx_hal_can.c ****   Callbacks can be registered/unregistered in HAL_CAN_STATE_READY state only.
 197:Drivers/STM32F4xx_HAL_Driver/Src/stm32f4xx_hal_can.c ****   Exception done MspInit/MspDeInit that can be registered/unregistered
 198:Drivers/STM32F4xx_HAL_Driver/Src/stm32f4xx_hal_can.c ****   in HAL_CAN_STATE_READY or HAL_CAN_STATE_RESET state,
 199:Drivers/STM32F4xx_HAL_Driver/Src/stm32f4xx_hal_can.c ****   thus registered (user) MspInit/DeInit callbacks can be used during the Init/DeInit.
 200:Drivers/STM32F4xx_HAL_Driver/Src/stm32f4xx_hal_can.c ****   In that case first register the MspInit/MspDeInit user callbacks
ARM GAS  C:\Users\12990\AppData\Local\Temp\ccxhiVmA.s 			page 5


 201:Drivers/STM32F4xx_HAL_Driver/Src/stm32f4xx_hal_can.c ****   using HAL_CAN_RegisterCallback() before calling HAL_CAN_DeInit()
 202:Drivers/STM32F4xx_HAL_Driver/Src/stm32f4xx_hal_can.c ****   or HAL_CAN_Init() function.
 203:Drivers/STM32F4xx_HAL_Driver/Src/stm32f4xx_hal_can.c **** 
 204:Drivers/STM32F4xx_HAL_Driver/Src/stm32f4xx_hal_can.c ****   When The compilation define USE_HAL_CAN_REGISTER_CALLBACKS is set to 0 or
 205:Drivers/STM32F4xx_HAL_Driver/Src/stm32f4xx_hal_can.c ****   not defined, the callback registration feature is not available and all callbacks
 206:Drivers/STM32F4xx_HAL_Driver/Src/stm32f4xx_hal_can.c ****   are set to the corresponding weak functions.
 207:Drivers/STM32F4xx_HAL_Driver/Src/stm32f4xx_hal_can.c **** 
 208:Drivers/STM32F4xx_HAL_Driver/Src/stm32f4xx_hal_can.c ****   @endverbatim
 209:Drivers/STM32F4xx_HAL_Driver/Src/stm32f4xx_hal_can.c ****   ******************************************************************************
 210:Drivers/STM32F4xx_HAL_Driver/Src/stm32f4xx_hal_can.c ****   */
 211:Drivers/STM32F4xx_HAL_Driver/Src/stm32f4xx_hal_can.c **** 
 212:Drivers/STM32F4xx_HAL_Driver/Src/stm32f4xx_hal_can.c **** /* Includes ------------------------------------------------------------------*/
 213:Drivers/STM32F4xx_HAL_Driver/Src/stm32f4xx_hal_can.c **** #include "stm32f4xx_hal.h"
 214:Drivers/STM32F4xx_HAL_Driver/Src/stm32f4xx_hal_can.c **** 
 215:Drivers/STM32F4xx_HAL_Driver/Src/stm32f4xx_hal_can.c **** /** @addtogroup STM32F4xx_HAL_Driver
 216:Drivers/STM32F4xx_HAL_Driver/Src/stm32f4xx_hal_can.c ****   * @{
 217:Drivers/STM32F4xx_HAL_Driver/Src/stm32f4xx_hal_can.c ****   */
 218:Drivers/STM32F4xx_HAL_Driver/Src/stm32f4xx_hal_can.c **** 
 219:Drivers/STM32F4xx_HAL_Driver/Src/stm32f4xx_hal_can.c **** #if defined(CAN1)
 220:Drivers/STM32F4xx_HAL_Driver/Src/stm32f4xx_hal_can.c **** 
 221:Drivers/STM32F4xx_HAL_Driver/Src/stm32f4xx_hal_can.c **** /** @defgroup CAN CAN
 222:Drivers/STM32F4xx_HAL_Driver/Src/stm32f4xx_hal_can.c ****   * @brief CAN driver modules
 223:Drivers/STM32F4xx_HAL_Driver/Src/stm32f4xx_hal_can.c ****   * @{
 224:Drivers/STM32F4xx_HAL_Driver/Src/stm32f4xx_hal_can.c ****   */
 225:Drivers/STM32F4xx_HAL_Driver/Src/stm32f4xx_hal_can.c **** 
 226:Drivers/STM32F4xx_HAL_Driver/Src/stm32f4xx_hal_can.c **** #ifdef HAL_CAN_MODULE_ENABLED
 227:Drivers/STM32F4xx_HAL_Driver/Src/stm32f4xx_hal_can.c **** 
 228:Drivers/STM32F4xx_HAL_Driver/Src/stm32f4xx_hal_can.c **** #ifdef HAL_CAN_LEGACY_MODULE_ENABLED
 229:Drivers/STM32F4xx_HAL_Driver/Src/stm32f4xx_hal_can.c ****   #error "The CAN driver cannot be used with its legacy, Please enable only one CAN module at once"
 230:Drivers/STM32F4xx_HAL_Driver/Src/stm32f4xx_hal_can.c **** #endif
 231:Drivers/STM32F4xx_HAL_Driver/Src/stm32f4xx_hal_can.c **** 
 232:Drivers/STM32F4xx_HAL_Driver/Src/stm32f4xx_hal_can.c **** /* Private typedef -----------------------------------------------------------*/
 233:Drivers/STM32F4xx_HAL_Driver/Src/stm32f4xx_hal_can.c **** /* Private define ------------------------------------------------------------*/
 234:Drivers/STM32F4xx_HAL_Driver/Src/stm32f4xx_hal_can.c **** /** @defgroup CAN_Private_Constants CAN Private Constants
 235:Drivers/STM32F4xx_HAL_Driver/Src/stm32f4xx_hal_can.c ****   * @{
 236:Drivers/STM32F4xx_HAL_Driver/Src/stm32f4xx_hal_can.c ****   */
 237:Drivers/STM32F4xx_HAL_Driver/Src/stm32f4xx_hal_can.c **** #define CAN_TIMEOUT_VALUE 10U
 238:Drivers/STM32F4xx_HAL_Driver/Src/stm32f4xx_hal_can.c **** /**
 239:Drivers/STM32F4xx_HAL_Driver/Src/stm32f4xx_hal_can.c ****   * @}
 240:Drivers/STM32F4xx_HAL_Driver/Src/stm32f4xx_hal_can.c ****   */
 241:Drivers/STM32F4xx_HAL_Driver/Src/stm32f4xx_hal_can.c **** /* Private macro -------------------------------------------------------------*/
 242:Drivers/STM32F4xx_HAL_Driver/Src/stm32f4xx_hal_can.c **** /* Private variables ---------------------------------------------------------*/
 243:Drivers/STM32F4xx_HAL_Driver/Src/stm32f4xx_hal_can.c **** /* Private function prototypes -----------------------------------------------*/
 244:Drivers/STM32F4xx_HAL_Driver/Src/stm32f4xx_hal_can.c **** /* Exported functions --------------------------------------------------------*/
 245:Drivers/STM32F4xx_HAL_Driver/Src/stm32f4xx_hal_can.c **** 
 246:Drivers/STM32F4xx_HAL_Driver/Src/stm32f4xx_hal_can.c **** /** @defgroup CAN_Exported_Functions CAN Exported Functions
 247:Drivers/STM32F4xx_HAL_Driver/Src/stm32f4xx_hal_can.c ****   * @{
 248:Drivers/STM32F4xx_HAL_Driver/Src/stm32f4xx_hal_can.c ****   */
 249:Drivers/STM32F4xx_HAL_Driver/Src/stm32f4xx_hal_can.c **** 
 250:Drivers/STM32F4xx_HAL_Driver/Src/stm32f4xx_hal_can.c **** /** @defgroup CAN_Exported_Functions_Group1 Initialization and de-initialization functions
 251:Drivers/STM32F4xx_HAL_Driver/Src/stm32f4xx_hal_can.c ****  *  @brief    Initialization and Configuration functions
 252:Drivers/STM32F4xx_HAL_Driver/Src/stm32f4xx_hal_can.c ****  *
 253:Drivers/STM32F4xx_HAL_Driver/Src/stm32f4xx_hal_can.c **** @verbatim
 254:Drivers/STM32F4xx_HAL_Driver/Src/stm32f4xx_hal_can.c ****   ==============================================================================
 255:Drivers/STM32F4xx_HAL_Driver/Src/stm32f4xx_hal_can.c ****               ##### Initialization and de-initialization functions #####
 256:Drivers/STM32F4xx_HAL_Driver/Src/stm32f4xx_hal_can.c ****   ==============================================================================
 257:Drivers/STM32F4xx_HAL_Driver/Src/stm32f4xx_hal_can.c ****     [..]  This section provides functions allowing to:
ARM GAS  C:\Users\12990\AppData\Local\Temp\ccxhiVmA.s 			page 6


 258:Drivers/STM32F4xx_HAL_Driver/Src/stm32f4xx_hal_can.c ****       (+) HAL_CAN_Init                       : Initialize and configure the CAN.
 259:Drivers/STM32F4xx_HAL_Driver/Src/stm32f4xx_hal_can.c ****       (+) HAL_CAN_DeInit                     : De-initialize the CAN.
 260:Drivers/STM32F4xx_HAL_Driver/Src/stm32f4xx_hal_can.c ****       (+) HAL_CAN_MspInit                    : Initialize the CAN MSP.
 261:Drivers/STM32F4xx_HAL_Driver/Src/stm32f4xx_hal_can.c ****       (+) HAL_CAN_MspDeInit                  : DeInitialize the CAN MSP.
 262:Drivers/STM32F4xx_HAL_Driver/Src/stm32f4xx_hal_can.c **** 
 263:Drivers/STM32F4xx_HAL_Driver/Src/stm32f4xx_hal_can.c **** @endverbatim
 264:Drivers/STM32F4xx_HAL_Driver/Src/stm32f4xx_hal_can.c ****   * @{
 265:Drivers/STM32F4xx_HAL_Driver/Src/stm32f4xx_hal_can.c ****   */
 266:Drivers/STM32F4xx_HAL_Driver/Src/stm32f4xx_hal_can.c **** 
 267:Drivers/STM32F4xx_HAL_Driver/Src/stm32f4xx_hal_can.c **** /**
 268:Drivers/STM32F4xx_HAL_Driver/Src/stm32f4xx_hal_can.c ****   * @brief  Initializes the CAN peripheral according to the specified
 269:Drivers/STM32F4xx_HAL_Driver/Src/stm32f4xx_hal_can.c ****   *         parameters in the CAN_InitStruct.
 270:Drivers/STM32F4xx_HAL_Driver/Src/stm32f4xx_hal_can.c ****   * @param  hcan pointer to a CAN_HandleTypeDef structure that contains
 271:Drivers/STM32F4xx_HAL_Driver/Src/stm32f4xx_hal_can.c ****   *         the configuration information for the specified CAN.
 272:Drivers/STM32F4xx_HAL_Driver/Src/stm32f4xx_hal_can.c ****   * @retval HAL status
 273:Drivers/STM32F4xx_HAL_Driver/Src/stm32f4xx_hal_can.c ****   */
 274:Drivers/STM32F4xx_HAL_Driver/Src/stm32f4xx_hal_can.c **** HAL_StatusTypeDef HAL_CAN_Init(CAN_HandleTypeDef *hcan)
 275:Drivers/STM32F4xx_HAL_Driver/Src/stm32f4xx_hal_can.c **** {
 276:Drivers/STM32F4xx_HAL_Driver/Src/stm32f4xx_hal_can.c ****   uint32_t tickstart;
 277:Drivers/STM32F4xx_HAL_Driver/Src/stm32f4xx_hal_can.c **** 
 278:Drivers/STM32F4xx_HAL_Driver/Src/stm32f4xx_hal_can.c ****   /* Check CAN handle */
 279:Drivers/STM32F4xx_HAL_Driver/Src/stm32f4xx_hal_can.c ****   if (hcan == NULL)
 280:Drivers/STM32F4xx_HAL_Driver/Src/stm32f4xx_hal_can.c ****   {
 281:Drivers/STM32F4xx_HAL_Driver/Src/stm32f4xx_hal_can.c ****     return HAL_ERROR;
 282:Drivers/STM32F4xx_HAL_Driver/Src/stm32f4xx_hal_can.c ****   }
 283:Drivers/STM32F4xx_HAL_Driver/Src/stm32f4xx_hal_can.c **** 
 284:Drivers/STM32F4xx_HAL_Driver/Src/stm32f4xx_hal_can.c ****   /* Check the parameters */
 285:Drivers/STM32F4xx_HAL_Driver/Src/stm32f4xx_hal_can.c ****   assert_param(IS_CAN_ALL_INSTANCE(hcan->Instance));
 286:Drivers/STM32F4xx_HAL_Driver/Src/stm32f4xx_hal_can.c ****   assert_param(IS_FUNCTIONAL_STATE(hcan->Init.TimeTriggeredMode));
 287:Drivers/STM32F4xx_HAL_Driver/Src/stm32f4xx_hal_can.c ****   assert_param(IS_FUNCTIONAL_STATE(hcan->Init.AutoBusOff));
 288:Drivers/STM32F4xx_HAL_Driver/Src/stm32f4xx_hal_can.c ****   assert_param(IS_FUNCTIONAL_STATE(hcan->Init.AutoWakeUp));
 289:Drivers/STM32F4xx_HAL_Driver/Src/stm32f4xx_hal_can.c ****   assert_param(IS_FUNCTIONAL_STATE(hcan->Init.AutoRetransmission));
 290:Drivers/STM32F4xx_HAL_Driver/Src/stm32f4xx_hal_can.c ****   assert_param(IS_FUNCTIONAL_STATE(hcan->Init.ReceiveFifoLocked));
 291:Drivers/STM32F4xx_HAL_Driver/Src/stm32f4xx_hal_can.c ****   assert_param(IS_FUNCTIONAL_STATE(hcan->Init.TransmitFifoPriority));
 292:Drivers/STM32F4xx_HAL_Driver/Src/stm32f4xx_hal_can.c ****   assert_param(IS_CAN_MODE(hcan->Init.Mode));
 293:Drivers/STM32F4xx_HAL_Driver/Src/stm32f4xx_hal_can.c ****   assert_param(IS_CAN_SJW(hcan->Init.SyncJumpWidth));
 294:Drivers/STM32F4xx_HAL_Driver/Src/stm32f4xx_hal_can.c ****   assert_param(IS_CAN_BS1(hcan->Init.TimeSeg1));
 295:Drivers/STM32F4xx_HAL_Driver/Src/stm32f4xx_hal_can.c ****   assert_param(IS_CAN_BS2(hcan->Init.TimeSeg2));
 296:Drivers/STM32F4xx_HAL_Driver/Src/stm32f4xx_hal_can.c ****   assert_param(IS_CAN_PRESCALER(hcan->Init.Prescaler));
 297:Drivers/STM32F4xx_HAL_Driver/Src/stm32f4xx_hal_can.c **** 
 298:Drivers/STM32F4xx_HAL_Driver/Src/stm32f4xx_hal_can.c **** #if USE_HAL_CAN_REGISTER_CALLBACKS == 1
 299:Drivers/STM32F4xx_HAL_Driver/Src/stm32f4xx_hal_can.c ****   if (hcan->State == HAL_CAN_STATE_RESET)
 300:Drivers/STM32F4xx_HAL_Driver/Src/stm32f4xx_hal_can.c ****   {
 301:Drivers/STM32F4xx_HAL_Driver/Src/stm32f4xx_hal_can.c ****     /* Reset callbacks to legacy functions */
 302:Drivers/STM32F4xx_HAL_Driver/Src/stm32f4xx_hal_can.c ****     hcan->RxFifo0MsgPendingCallback  =  HAL_CAN_RxFifo0MsgPendingCallback;  /* Legacy weak RxFifo0M
 303:Drivers/STM32F4xx_HAL_Driver/Src/stm32f4xx_hal_can.c ****     hcan->RxFifo0FullCallback        =  HAL_CAN_RxFifo0FullCallback;        /* Legacy weak RxFifo0F
 304:Drivers/STM32F4xx_HAL_Driver/Src/stm32f4xx_hal_can.c ****     hcan->RxFifo1MsgPendingCallback  =  HAL_CAN_RxFifo1MsgPendingCallback;  /* Legacy weak RxFifo1M
 305:Drivers/STM32F4xx_HAL_Driver/Src/stm32f4xx_hal_can.c ****     hcan->RxFifo1FullCallback        =  HAL_CAN_RxFifo1FullCallback;        /* Legacy weak RxFifo1F
 306:Drivers/STM32F4xx_HAL_Driver/Src/stm32f4xx_hal_can.c ****     hcan->TxMailbox0CompleteCallback =  HAL_CAN_TxMailbox0CompleteCallback; /* Legacy weak TxMailbo
 307:Drivers/STM32F4xx_HAL_Driver/Src/stm32f4xx_hal_can.c ****     hcan->TxMailbox1CompleteCallback =  HAL_CAN_TxMailbox1CompleteCallback; /* Legacy weak TxMailbo
 308:Drivers/STM32F4xx_HAL_Driver/Src/stm32f4xx_hal_can.c ****     hcan->TxMailbox2CompleteCallback =  HAL_CAN_TxMailbox2CompleteCallback; /* Legacy weak TxMailbo
 309:Drivers/STM32F4xx_HAL_Driver/Src/stm32f4xx_hal_can.c ****     hcan->TxMailbox0AbortCallback    =  HAL_CAN_TxMailbox0AbortCallback;    /* Legacy weak TxMailbo
 310:Drivers/STM32F4xx_HAL_Driver/Src/stm32f4xx_hal_can.c ****     hcan->TxMailbox1AbortCallback    =  HAL_CAN_TxMailbox1AbortCallback;    /* Legacy weak TxMailbo
 311:Drivers/STM32F4xx_HAL_Driver/Src/stm32f4xx_hal_can.c ****     hcan->TxMailbox2AbortCallback    =  HAL_CAN_TxMailbox2AbortCallback;    /* Legacy weak TxMailbo
 312:Drivers/STM32F4xx_HAL_Driver/Src/stm32f4xx_hal_can.c ****     hcan->SleepCallback              =  HAL_CAN_SleepCallback;              /* Legacy weak SleepCal
 313:Drivers/STM32F4xx_HAL_Driver/Src/stm32f4xx_hal_can.c ****     hcan->WakeUpFromRxMsgCallback    =  HAL_CAN_WakeUpFromRxMsgCallback;    /* Legacy weak WakeUpFr
 314:Drivers/STM32F4xx_HAL_Driver/Src/stm32f4xx_hal_can.c ****     hcan->ErrorCallback              =  HAL_CAN_ErrorCallback;              /* Legacy weak ErrorCal
ARM GAS  C:\Users\12990\AppData\Local\Temp\ccxhiVmA.s 			page 7


 315:Drivers/STM32F4xx_HAL_Driver/Src/stm32f4xx_hal_can.c **** 
 316:Drivers/STM32F4xx_HAL_Driver/Src/stm32f4xx_hal_can.c ****     if (hcan->MspInitCallback == NULL)
 317:Drivers/STM32F4xx_HAL_Driver/Src/stm32f4xx_hal_can.c ****     {
 318:Drivers/STM32F4xx_HAL_Driver/Src/stm32f4xx_hal_can.c ****       hcan->MspInitCallback = HAL_CAN_MspInit; /* Legacy weak MspInit */
 319:Drivers/STM32F4xx_HAL_Driver/Src/stm32f4xx_hal_can.c ****     }
 320:Drivers/STM32F4xx_HAL_Driver/Src/stm32f4xx_hal_can.c **** 
 321:Drivers/STM32F4xx_HAL_Driver/Src/stm32f4xx_hal_can.c ****     /* Init the low level hardware: CLOCK, NVIC */
 322:Drivers/STM32F4xx_HAL_Driver/Src/stm32f4xx_hal_can.c ****     hcan->MspInitCallback(hcan);
 323:Drivers/STM32F4xx_HAL_Driver/Src/stm32f4xx_hal_can.c ****   }
 324:Drivers/STM32F4xx_HAL_Driver/Src/stm32f4xx_hal_can.c **** 
 325:Drivers/STM32F4xx_HAL_Driver/Src/stm32f4xx_hal_can.c **** #else
 326:Drivers/STM32F4xx_HAL_Driver/Src/stm32f4xx_hal_can.c ****   if (hcan->State == HAL_CAN_STATE_RESET)
 327:Drivers/STM32F4xx_HAL_Driver/Src/stm32f4xx_hal_can.c ****   {
 328:Drivers/STM32F4xx_HAL_Driver/Src/stm32f4xx_hal_can.c ****     /* Init the low level hardware: CLOCK, NVIC */
 329:Drivers/STM32F4xx_HAL_Driver/Src/stm32f4xx_hal_can.c ****     HAL_CAN_MspInit(hcan);
 330:Drivers/STM32F4xx_HAL_Driver/Src/stm32f4xx_hal_can.c ****   }
 331:Drivers/STM32F4xx_HAL_Driver/Src/stm32f4xx_hal_can.c **** #endif /* (USE_HAL_CAN_REGISTER_CALLBACKS) */
 332:Drivers/STM32F4xx_HAL_Driver/Src/stm32f4xx_hal_can.c **** 
 333:Drivers/STM32F4xx_HAL_Driver/Src/stm32f4xx_hal_can.c ****   /* Request initialisation */
 334:Drivers/STM32F4xx_HAL_Driver/Src/stm32f4xx_hal_can.c ****   SET_BIT(hcan->Instance->MCR, CAN_MCR_INRQ);
 335:Drivers/STM32F4xx_HAL_Driver/Src/stm32f4xx_hal_can.c **** 
 336:Drivers/STM32F4xx_HAL_Driver/Src/stm32f4xx_hal_can.c ****   /* Get tick */
 337:Drivers/STM32F4xx_HAL_Driver/Src/stm32f4xx_hal_can.c ****   tickstart = HAL_GetTick();
 338:Drivers/STM32F4xx_HAL_Driver/Src/stm32f4xx_hal_can.c **** 
 339:Drivers/STM32F4xx_HAL_Driver/Src/stm32f4xx_hal_can.c ****   /* Wait initialisation acknowledge */
 340:Drivers/STM32F4xx_HAL_Driver/Src/stm32f4xx_hal_can.c ****   while ((hcan->Instance->MSR & CAN_MSR_INAK) == 0U)
 341:Drivers/STM32F4xx_HAL_Driver/Src/stm32f4xx_hal_can.c ****   {
 342:Drivers/STM32F4xx_HAL_Driver/Src/stm32f4xx_hal_can.c ****     if ((HAL_GetTick() - tickstart) > CAN_TIMEOUT_VALUE)
 343:Drivers/STM32F4xx_HAL_Driver/Src/stm32f4xx_hal_can.c ****     {
 344:Drivers/STM32F4xx_HAL_Driver/Src/stm32f4xx_hal_can.c ****       /* Update error code */
 345:Drivers/STM32F4xx_HAL_Driver/Src/stm32f4xx_hal_can.c ****       hcan->ErrorCode |= HAL_CAN_ERROR_TIMEOUT;
 346:Drivers/STM32F4xx_HAL_Driver/Src/stm32f4xx_hal_can.c **** 
 347:Drivers/STM32F4xx_HAL_Driver/Src/stm32f4xx_hal_can.c ****       /* Change CAN state */
 348:Drivers/STM32F4xx_HAL_Driver/Src/stm32f4xx_hal_can.c ****       hcan->State = HAL_CAN_STATE_ERROR;
 349:Drivers/STM32F4xx_HAL_Driver/Src/stm32f4xx_hal_can.c **** 
 350:Drivers/STM32F4xx_HAL_Driver/Src/stm32f4xx_hal_can.c ****       return HAL_ERROR;
 351:Drivers/STM32F4xx_HAL_Driver/Src/stm32f4xx_hal_can.c ****     }
 352:Drivers/STM32F4xx_HAL_Driver/Src/stm32f4xx_hal_can.c ****   }
 353:Drivers/STM32F4xx_HAL_Driver/Src/stm32f4xx_hal_can.c **** 
 354:Drivers/STM32F4xx_HAL_Driver/Src/stm32f4xx_hal_can.c ****   /* Exit from sleep mode */
 355:Drivers/STM32F4xx_HAL_Driver/Src/stm32f4xx_hal_can.c ****   CLEAR_BIT(hcan->Instance->MCR, CAN_MCR_SLEEP);
 356:Drivers/STM32F4xx_HAL_Driver/Src/stm32f4xx_hal_can.c **** 
 357:Drivers/STM32F4xx_HAL_Driver/Src/stm32f4xx_hal_can.c ****   /* Get tick */
 358:Drivers/STM32F4xx_HAL_Driver/Src/stm32f4xx_hal_can.c ****   tickstart = HAL_GetTick();
 359:Drivers/STM32F4xx_HAL_Driver/Src/stm32f4xx_hal_can.c **** 
 360:Drivers/STM32F4xx_HAL_Driver/Src/stm32f4xx_hal_can.c ****   /* Check Sleep mode leave acknowledge */
 361:Drivers/STM32F4xx_HAL_Driver/Src/stm32f4xx_hal_can.c ****   while ((hcan->Instance->MSR & CAN_MSR_SLAK) != 0U)
 362:Drivers/STM32F4xx_HAL_Driver/Src/stm32f4xx_hal_can.c ****   {
 363:Drivers/STM32F4xx_HAL_Driver/Src/stm32f4xx_hal_can.c ****     if ((HAL_GetTick() - tickstart) > CAN_TIMEOUT_VALUE)
 364:Drivers/STM32F4xx_HAL_Driver/Src/stm32f4xx_hal_can.c ****     {
 365:Drivers/STM32F4xx_HAL_Driver/Src/stm32f4xx_hal_can.c ****       /* Update error code */
 366:Drivers/STM32F4xx_HAL_Driver/Src/stm32f4xx_hal_can.c ****       hcan->ErrorCode |= HAL_CAN_ERROR_TIMEOUT;
 367:Drivers/STM32F4xx_HAL_Driver/Src/stm32f4xx_hal_can.c **** 
 368:Drivers/STM32F4xx_HAL_Driver/Src/stm32f4xx_hal_can.c ****       /* Change CAN state */
 369:Drivers/STM32F4xx_HAL_Driver/Src/stm32f4xx_hal_can.c ****       hcan->State = HAL_CAN_STATE_ERROR;
 370:Drivers/STM32F4xx_HAL_Driver/Src/stm32f4xx_hal_can.c **** 
 371:Drivers/STM32F4xx_HAL_Driver/Src/stm32f4xx_hal_can.c ****       return HAL_ERROR;
ARM GAS  C:\Users\12990\AppData\Local\Temp\ccxhiVmA.s 			page 8


 372:Drivers/STM32F4xx_HAL_Driver/Src/stm32f4xx_hal_can.c ****     }
 373:Drivers/STM32F4xx_HAL_Driver/Src/stm32f4xx_hal_can.c ****   }
 374:Drivers/STM32F4xx_HAL_Driver/Src/stm32f4xx_hal_can.c **** 
 375:Drivers/STM32F4xx_HAL_Driver/Src/stm32f4xx_hal_can.c ****   /* Set the time triggered communication mode */
 376:Drivers/STM32F4xx_HAL_Driver/Src/stm32f4xx_hal_can.c ****   if (hcan->Init.TimeTriggeredMode == ENABLE)
 377:Drivers/STM32F4xx_HAL_Driver/Src/stm32f4xx_hal_can.c ****   {
 378:Drivers/STM32F4xx_HAL_Driver/Src/stm32f4xx_hal_can.c ****     SET_BIT(hcan->Instance->MCR, CAN_MCR_TTCM);
 379:Drivers/STM32F4xx_HAL_Driver/Src/stm32f4xx_hal_can.c ****   }
 380:Drivers/STM32F4xx_HAL_Driver/Src/stm32f4xx_hal_can.c ****   else
 381:Drivers/STM32F4xx_HAL_Driver/Src/stm32f4xx_hal_can.c ****   {
 382:Drivers/STM32F4xx_HAL_Driver/Src/stm32f4xx_hal_can.c ****     CLEAR_BIT(hcan->Instance->MCR, CAN_MCR_TTCM);
 383:Drivers/STM32F4xx_HAL_Driver/Src/stm32f4xx_hal_can.c ****   }
 384:Drivers/STM32F4xx_HAL_Driver/Src/stm32f4xx_hal_can.c **** 
 385:Drivers/STM32F4xx_HAL_Driver/Src/stm32f4xx_hal_can.c ****   /* Set the automatic bus-off management */
 386:Drivers/STM32F4xx_HAL_Driver/Src/stm32f4xx_hal_can.c ****   if (hcan->Init.AutoBusOff == ENABLE)
 387:Drivers/STM32F4xx_HAL_Driver/Src/stm32f4xx_hal_can.c ****   {
 388:Drivers/STM32F4xx_HAL_Driver/Src/stm32f4xx_hal_can.c ****     SET_BIT(hcan->Instance->MCR, CAN_MCR_ABOM);
 389:Drivers/STM32F4xx_HAL_Driver/Src/stm32f4xx_hal_can.c ****   }
 390:Drivers/STM32F4xx_HAL_Driver/Src/stm32f4xx_hal_can.c ****   else
 391:Drivers/STM32F4xx_HAL_Driver/Src/stm32f4xx_hal_can.c ****   {
 392:Drivers/STM32F4xx_HAL_Driver/Src/stm32f4xx_hal_can.c ****     CLEAR_BIT(hcan->Instance->MCR, CAN_MCR_ABOM);
 393:Drivers/STM32F4xx_HAL_Driver/Src/stm32f4xx_hal_can.c ****   }
 394:Drivers/STM32F4xx_HAL_Driver/Src/stm32f4xx_hal_can.c **** 
 395:Drivers/STM32F4xx_HAL_Driver/Src/stm32f4xx_hal_can.c ****   /* Set the automatic wake-up mode */
 396:Drivers/STM32F4xx_HAL_Driver/Src/stm32f4xx_hal_can.c ****   if (hcan->Init.AutoWakeUp == ENABLE)
 397:Drivers/STM32F4xx_HAL_Driver/Src/stm32f4xx_hal_can.c ****   {
 398:Drivers/STM32F4xx_HAL_Driver/Src/stm32f4xx_hal_can.c ****     SET_BIT(hcan->Instance->MCR, CAN_MCR_AWUM);
 399:Drivers/STM32F4xx_HAL_Driver/Src/stm32f4xx_hal_can.c ****   }
 400:Drivers/STM32F4xx_HAL_Driver/Src/stm32f4xx_hal_can.c ****   else
 401:Drivers/STM32F4xx_HAL_Driver/Src/stm32f4xx_hal_can.c ****   {
 402:Drivers/STM32F4xx_HAL_Driver/Src/stm32f4xx_hal_can.c ****     CLEAR_BIT(hcan->Instance->MCR, CAN_MCR_AWUM);
 403:Drivers/STM32F4xx_HAL_Driver/Src/stm32f4xx_hal_can.c ****   }
 404:Drivers/STM32F4xx_HAL_Driver/Src/stm32f4xx_hal_can.c **** 
 405:Drivers/STM32F4xx_HAL_Driver/Src/stm32f4xx_hal_can.c ****   /* Set the automatic retransmission */
 406:Drivers/STM32F4xx_HAL_Driver/Src/stm32f4xx_hal_can.c ****   if (hcan->Init.AutoRetransmission == ENABLE)
 407:Drivers/STM32F4xx_HAL_Driver/Src/stm32f4xx_hal_can.c ****   {
 408:Drivers/STM32F4xx_HAL_Driver/Src/stm32f4xx_hal_can.c ****     CLEAR_BIT(hcan->Instance->MCR, CAN_MCR_NART);
 409:Drivers/STM32F4xx_HAL_Driver/Src/stm32f4xx_hal_can.c ****   }
 410:Drivers/STM32F4xx_HAL_Driver/Src/stm32f4xx_hal_can.c ****   else
 411:Drivers/STM32F4xx_HAL_Driver/Src/stm32f4xx_hal_can.c ****   {
 412:Drivers/STM32F4xx_HAL_Driver/Src/stm32f4xx_hal_can.c ****     SET_BIT(hcan->Instance->MCR, CAN_MCR_NART);
 413:Drivers/STM32F4xx_HAL_Driver/Src/stm32f4xx_hal_can.c ****   }
 414:Drivers/STM32F4xx_HAL_Driver/Src/stm32f4xx_hal_can.c **** 
 415:Drivers/STM32F4xx_HAL_Driver/Src/stm32f4xx_hal_can.c ****   /* Set the receive FIFO locked mode */
 416:Drivers/STM32F4xx_HAL_Driver/Src/stm32f4xx_hal_can.c ****   if (hcan->Init.ReceiveFifoLocked == ENABLE)
 417:Drivers/STM32F4xx_HAL_Driver/Src/stm32f4xx_hal_can.c ****   {
 418:Drivers/STM32F4xx_HAL_Driver/Src/stm32f4xx_hal_can.c ****     SET_BIT(hcan->Instance->MCR, CAN_MCR_RFLM);
 419:Drivers/STM32F4xx_HAL_Driver/Src/stm32f4xx_hal_can.c ****   }
 420:Drivers/STM32F4xx_HAL_Driver/Src/stm32f4xx_hal_can.c ****   else
 421:Drivers/STM32F4xx_HAL_Driver/Src/stm32f4xx_hal_can.c ****   {
 422:Drivers/STM32F4xx_HAL_Driver/Src/stm32f4xx_hal_can.c ****     CLEAR_BIT(hcan->Instance->MCR, CAN_MCR_RFLM);
 423:Drivers/STM32F4xx_HAL_Driver/Src/stm32f4xx_hal_can.c ****   }
 424:Drivers/STM32F4xx_HAL_Driver/Src/stm32f4xx_hal_can.c **** 
 425:Drivers/STM32F4xx_HAL_Driver/Src/stm32f4xx_hal_can.c ****   /* Set the transmit FIFO priority */
 426:Drivers/STM32F4xx_HAL_Driver/Src/stm32f4xx_hal_can.c ****   if (hcan->Init.TransmitFifoPriority == ENABLE)
 427:Drivers/STM32F4xx_HAL_Driver/Src/stm32f4xx_hal_can.c ****   {
 428:Drivers/STM32F4xx_HAL_Driver/Src/stm32f4xx_hal_can.c ****     SET_BIT(hcan->Instance->MCR, CAN_MCR_TXFP);
ARM GAS  C:\Users\12990\AppData\Local\Temp\ccxhiVmA.s 			page 9


 429:Drivers/STM32F4xx_HAL_Driver/Src/stm32f4xx_hal_can.c ****   }
 430:Drivers/STM32F4xx_HAL_Driver/Src/stm32f4xx_hal_can.c ****   else
 431:Drivers/STM32F4xx_HAL_Driver/Src/stm32f4xx_hal_can.c ****   {
 432:Drivers/STM32F4xx_HAL_Driver/Src/stm32f4xx_hal_can.c ****     CLEAR_BIT(hcan->Instance->MCR, CAN_MCR_TXFP);
 433:Drivers/STM32F4xx_HAL_Driver/Src/stm32f4xx_hal_can.c ****   }
 434:Drivers/STM32F4xx_HAL_Driver/Src/stm32f4xx_hal_can.c **** 
 435:Drivers/STM32F4xx_HAL_Driver/Src/stm32f4xx_hal_can.c ****   /* Set the bit timing register */
 436:Drivers/STM32F4xx_HAL_Driver/Src/stm32f4xx_hal_can.c ****   WRITE_REG(hcan->Instance->BTR, (uint32_t)(hcan->Init.Mode           |
 437:Drivers/STM32F4xx_HAL_Driver/Src/stm32f4xx_hal_can.c ****                                             hcan->Init.SyncJumpWidth  |
 438:Drivers/STM32F4xx_HAL_Driver/Src/stm32f4xx_hal_can.c ****                                             hcan->Init.TimeSeg1       |
 439:Drivers/STM32F4xx_HAL_Driver/Src/stm32f4xx_hal_can.c ****                                             hcan->Init.TimeSeg2       |
 440:Drivers/STM32F4xx_HAL_Driver/Src/stm32f4xx_hal_can.c ****                                             (hcan->Init.Prescaler - 1U)));
 441:Drivers/STM32F4xx_HAL_Driver/Src/stm32f4xx_hal_can.c **** 
 442:Drivers/STM32F4xx_HAL_Driver/Src/stm32f4xx_hal_can.c ****   /* Initialize the error code */
 443:Drivers/STM32F4xx_HAL_Driver/Src/stm32f4xx_hal_can.c ****   hcan->ErrorCode = HAL_CAN_ERROR_NONE;
 444:Drivers/STM32F4xx_HAL_Driver/Src/stm32f4xx_hal_can.c **** 
 445:Drivers/STM32F4xx_HAL_Driver/Src/stm32f4xx_hal_can.c ****   /* Initialize the CAN state */
 446:Drivers/STM32F4xx_HAL_Driver/Src/stm32f4xx_hal_can.c ****   hcan->State = HAL_CAN_STATE_READY;
 447:Drivers/STM32F4xx_HAL_Driver/Src/stm32f4xx_hal_can.c **** 
 448:Drivers/STM32F4xx_HAL_Driver/Src/stm32f4xx_hal_can.c ****   /* Return function status */
 449:Drivers/STM32F4xx_HAL_Driver/Src/stm32f4xx_hal_can.c ****   return HAL_OK;
 450:Drivers/STM32F4xx_HAL_Driver/Src/stm32f4xx_hal_can.c **** }
 451:Drivers/STM32F4xx_HAL_Driver/Src/stm32f4xx_hal_can.c **** 
 452:Drivers/STM32F4xx_HAL_Driver/Src/stm32f4xx_hal_can.c **** /**
 453:Drivers/STM32F4xx_HAL_Driver/Src/stm32f4xx_hal_can.c ****   * @brief  Deinitializes the CAN peripheral registers to their default
 454:Drivers/STM32F4xx_HAL_Driver/Src/stm32f4xx_hal_can.c ****   *         reset values.
 455:Drivers/STM32F4xx_HAL_Driver/Src/stm32f4xx_hal_can.c ****   * @param  hcan pointer to a CAN_HandleTypeDef structure that contains
 456:Drivers/STM32F4xx_HAL_Driver/Src/stm32f4xx_hal_can.c ****   *         the configuration information for the specified CAN.
 457:Drivers/STM32F4xx_HAL_Driver/Src/stm32f4xx_hal_can.c ****   * @retval HAL status
 458:Drivers/STM32F4xx_HAL_Driver/Src/stm32f4xx_hal_can.c ****   */
 459:Drivers/STM32F4xx_HAL_Driver/Src/stm32f4xx_hal_can.c **** HAL_StatusTypeDef HAL_CAN_DeInit(CAN_HandleTypeDef *hcan)
 460:Drivers/STM32F4xx_HAL_Driver/Src/stm32f4xx_hal_can.c **** {
 461:Drivers/STM32F4xx_HAL_Driver/Src/stm32f4xx_hal_can.c ****   /* Check CAN handle */
 462:Drivers/STM32F4xx_HAL_Driver/Src/stm32f4xx_hal_can.c ****   if (hcan == NULL)
 463:Drivers/STM32F4xx_HAL_Driver/Src/stm32f4xx_hal_can.c ****   {
 464:Drivers/STM32F4xx_HAL_Driver/Src/stm32f4xx_hal_can.c ****     return HAL_ERROR;
 465:Drivers/STM32F4xx_HAL_Driver/Src/stm32f4xx_hal_can.c ****   }
 466:Drivers/STM32F4xx_HAL_Driver/Src/stm32f4xx_hal_can.c **** 
 467:Drivers/STM32F4xx_HAL_Driver/Src/stm32f4xx_hal_can.c ****   /* Check the parameters */
 468:Drivers/STM32F4xx_HAL_Driver/Src/stm32f4xx_hal_can.c ****   assert_param(IS_CAN_ALL_INSTANCE(hcan->Instance));
 469:Drivers/STM32F4xx_HAL_Driver/Src/stm32f4xx_hal_can.c **** 
 470:Drivers/STM32F4xx_HAL_Driver/Src/stm32f4xx_hal_can.c ****   /* Stop the CAN module */
 471:Drivers/STM32F4xx_HAL_Driver/Src/stm32f4xx_hal_can.c ****   (void)HAL_CAN_Stop(hcan);
 472:Drivers/STM32F4xx_HAL_Driver/Src/stm32f4xx_hal_can.c **** 
 473:Drivers/STM32F4xx_HAL_Driver/Src/stm32f4xx_hal_can.c **** #if USE_HAL_CAN_REGISTER_CALLBACKS == 1
 474:Drivers/STM32F4xx_HAL_Driver/Src/stm32f4xx_hal_can.c ****   if (hcan->MspDeInitCallback == NULL)
 475:Drivers/STM32F4xx_HAL_Driver/Src/stm32f4xx_hal_can.c ****   {
 476:Drivers/STM32F4xx_HAL_Driver/Src/stm32f4xx_hal_can.c ****     hcan->MspDeInitCallback = HAL_CAN_MspDeInit; /* Legacy weak MspDeInit */
 477:Drivers/STM32F4xx_HAL_Driver/Src/stm32f4xx_hal_can.c ****   }
 478:Drivers/STM32F4xx_HAL_Driver/Src/stm32f4xx_hal_can.c **** 
 479:Drivers/STM32F4xx_HAL_Driver/Src/stm32f4xx_hal_can.c ****   /* DeInit the low level hardware: CLOCK, NVIC */
 480:Drivers/STM32F4xx_HAL_Driver/Src/stm32f4xx_hal_can.c ****   hcan->MspDeInitCallback(hcan);
 481:Drivers/STM32F4xx_HAL_Driver/Src/stm32f4xx_hal_can.c **** 
 482:Drivers/STM32F4xx_HAL_Driver/Src/stm32f4xx_hal_can.c **** #else
 483:Drivers/STM32F4xx_HAL_Driver/Src/stm32f4xx_hal_can.c ****   /* DeInit the low level hardware: CLOCK, NVIC */
 484:Drivers/STM32F4xx_HAL_Driver/Src/stm32f4xx_hal_can.c ****   HAL_CAN_MspDeInit(hcan);
 485:Drivers/STM32F4xx_HAL_Driver/Src/stm32f4xx_hal_can.c **** #endif /* (USE_HAL_CAN_REGISTER_CALLBACKS) */
ARM GAS  C:\Users\12990\AppData\Local\Temp\ccxhiVmA.s 			page 10


 486:Drivers/STM32F4xx_HAL_Driver/Src/stm32f4xx_hal_can.c **** 
 487:Drivers/STM32F4xx_HAL_Driver/Src/stm32f4xx_hal_can.c ****   /* Reset the CAN peripheral */
 488:Drivers/STM32F4xx_HAL_Driver/Src/stm32f4xx_hal_can.c ****   SET_BIT(hcan->Instance->MCR, CAN_MCR_RESET);
 489:Drivers/STM32F4xx_HAL_Driver/Src/stm32f4xx_hal_can.c **** 
 490:Drivers/STM32F4xx_HAL_Driver/Src/stm32f4xx_hal_can.c ****   /* Reset the CAN ErrorCode */
 491:Drivers/STM32F4xx_HAL_Driver/Src/stm32f4xx_hal_can.c ****   hcan->ErrorCode = HAL_CAN_ERROR_NONE;
 492:Drivers/STM32F4xx_HAL_Driver/Src/stm32f4xx_hal_can.c **** 
 493:Drivers/STM32F4xx_HAL_Driver/Src/stm32f4xx_hal_can.c ****   /* Change CAN state */
 494:Drivers/STM32F4xx_HAL_Driver/Src/stm32f4xx_hal_can.c ****   hcan->State = HAL_CAN_STATE_RESET;
 495:Drivers/STM32F4xx_HAL_Driver/Src/stm32f4xx_hal_can.c **** 
 496:Drivers/STM32F4xx_HAL_Driver/Src/stm32f4xx_hal_can.c ****   /* Return function status */
 497:Drivers/STM32F4xx_HAL_Driver/Src/stm32f4xx_hal_can.c ****   return HAL_OK;
 498:Drivers/STM32F4xx_HAL_Driver/Src/stm32f4xx_hal_can.c **** }
 499:Drivers/STM32F4xx_HAL_Driver/Src/stm32f4xx_hal_can.c **** 
 500:Drivers/STM32F4xx_HAL_Driver/Src/stm32f4xx_hal_can.c **** /**
 501:Drivers/STM32F4xx_HAL_Driver/Src/stm32f4xx_hal_can.c ****   * @brief  Initializes the CAN MSP.
 502:Drivers/STM32F4xx_HAL_Driver/Src/stm32f4xx_hal_can.c ****   * @param  hcan pointer to a CAN_HandleTypeDef structure that contains
 503:Drivers/STM32F4xx_HAL_Driver/Src/stm32f4xx_hal_can.c ****   *         the configuration information for the specified CAN.
 504:Drivers/STM32F4xx_HAL_Driver/Src/stm32f4xx_hal_can.c ****   * @retval None
 505:Drivers/STM32F4xx_HAL_Driver/Src/stm32f4xx_hal_can.c ****   */
 506:Drivers/STM32F4xx_HAL_Driver/Src/stm32f4xx_hal_can.c **** __weak void HAL_CAN_MspInit(CAN_HandleTypeDef *hcan)
 507:Drivers/STM32F4xx_HAL_Driver/Src/stm32f4xx_hal_can.c **** {
  30              		.loc 1 507 1 view -0
  31              		.cfi_startproc
  32              		@ args = 0, pretend = 0, frame = 0
  33              		@ frame_needed = 0, uses_anonymous_args = 0
  34              		@ link register save eliminated.
 508:Drivers/STM32F4xx_HAL_Driver/Src/stm32f4xx_hal_can.c ****   /* Prevent unused argument(s) compilation warning */
 509:Drivers/STM32F4xx_HAL_Driver/Src/stm32f4xx_hal_can.c ****   UNUSED(hcan);
  35              		.loc 1 509 3 view .LVU1
 510:Drivers/STM32F4xx_HAL_Driver/Src/stm32f4xx_hal_can.c **** 
 511:Drivers/STM32F4xx_HAL_Driver/Src/stm32f4xx_hal_can.c ****   /* NOTE : This function Should not be modified, when the callback is needed,
 512:Drivers/STM32F4xx_HAL_Driver/Src/stm32f4xx_hal_can.c ****             the HAL_CAN_MspInit could be implemented in the user file
 513:Drivers/STM32F4xx_HAL_Driver/Src/stm32f4xx_hal_can.c ****    */
 514:Drivers/STM32F4xx_HAL_Driver/Src/stm32f4xx_hal_can.c **** }
  36              		.loc 1 514 1 is_stmt 0 view .LVU2
  37 0000 7047     		bx	lr
  38              		.cfi_endproc
  39              	.LFE132:
  41              		.section	.text.HAL_CAN_Init,"ax",%progbits
  42              		.align	1
  43              		.global	HAL_CAN_Init
  44              		.syntax unified
  45              		.thumb
  46              		.thumb_func
  48              	HAL_CAN_Init:
  49              	.LVL1:
  50              	.LFB130:
 275:Drivers/STM32F4xx_HAL_Driver/Src/stm32f4xx_hal_can.c ****   uint32_t tickstart;
  51              		.loc 1 275 1 is_stmt 1 view -0
  52              		.cfi_startproc
  53              		@ args = 0, pretend = 0, frame = 0
  54              		@ frame_needed = 0, uses_anonymous_args = 0
 276:Drivers/STM32F4xx_HAL_Driver/Src/stm32f4xx_hal_can.c **** 
  55              		.loc 1 276 3 view .LVU4
 279:Drivers/STM32F4xx_HAL_Driver/Src/stm32f4xx_hal_can.c ****   {
  56              		.loc 1 279 3 view .LVU5
ARM GAS  C:\Users\12990\AppData\Local\Temp\ccxhiVmA.s 			page 11


 279:Drivers/STM32F4xx_HAL_Driver/Src/stm32f4xx_hal_can.c ****   {
  57              		.loc 1 279 6 is_stmt 0 view .LVU6
  58 0000 0028     		cmp	r0, #0
  59 0002 00F0A180 		beq	.L21
 275:Drivers/STM32F4xx_HAL_Driver/Src/stm32f4xx_hal_can.c ****   uint32_t tickstart;
  60              		.loc 1 275 1 view .LVU7
  61 0006 38B5     		push	{r3, r4, r5, lr}
  62              	.LCFI0:
  63              		.cfi_def_cfa_offset 16
  64              		.cfi_offset 3, -16
  65              		.cfi_offset 4, -12
  66              		.cfi_offset 5, -8
  67              		.cfi_offset 14, -4
  68 0008 0446     		mov	r4, r0
 285:Drivers/STM32F4xx_HAL_Driver/Src/stm32f4xx_hal_can.c ****   assert_param(IS_FUNCTIONAL_STATE(hcan->Init.TimeTriggeredMode));
  69              		.loc 1 285 3 is_stmt 1 view .LVU8
 286:Drivers/STM32F4xx_HAL_Driver/Src/stm32f4xx_hal_can.c ****   assert_param(IS_FUNCTIONAL_STATE(hcan->Init.AutoBusOff));
  70              		.loc 1 286 3 view .LVU9
 287:Drivers/STM32F4xx_HAL_Driver/Src/stm32f4xx_hal_can.c ****   assert_param(IS_FUNCTIONAL_STATE(hcan->Init.AutoWakeUp));
  71              		.loc 1 287 3 view .LVU10
 288:Drivers/STM32F4xx_HAL_Driver/Src/stm32f4xx_hal_can.c ****   assert_param(IS_FUNCTIONAL_STATE(hcan->Init.AutoRetransmission));
  72              		.loc 1 288 3 view .LVU11
 289:Drivers/STM32F4xx_HAL_Driver/Src/stm32f4xx_hal_can.c ****   assert_param(IS_FUNCTIONAL_STATE(hcan->Init.ReceiveFifoLocked));
  73              		.loc 1 289 3 view .LVU12
 290:Drivers/STM32F4xx_HAL_Driver/Src/stm32f4xx_hal_can.c ****   assert_param(IS_FUNCTIONAL_STATE(hcan->Init.TransmitFifoPriority));
  74              		.loc 1 290 3 view .LVU13
 291:Drivers/STM32F4xx_HAL_Driver/Src/stm32f4xx_hal_can.c ****   assert_param(IS_CAN_MODE(hcan->Init.Mode));
  75              		.loc 1 291 3 view .LVU14
 292:Drivers/STM32F4xx_HAL_Driver/Src/stm32f4xx_hal_can.c ****   assert_param(IS_CAN_SJW(hcan->Init.SyncJumpWidth));
  76              		.loc 1 292 3 view .LVU15
 293:Drivers/STM32F4xx_HAL_Driver/Src/stm32f4xx_hal_can.c ****   assert_param(IS_CAN_BS1(hcan->Init.TimeSeg1));
  77              		.loc 1 293 3 view .LVU16
 294:Drivers/STM32F4xx_HAL_Driver/Src/stm32f4xx_hal_can.c ****   assert_param(IS_CAN_BS2(hcan->Init.TimeSeg2));
  78              		.loc 1 294 3 view .LVU17
 295:Drivers/STM32F4xx_HAL_Driver/Src/stm32f4xx_hal_can.c ****   assert_param(IS_CAN_PRESCALER(hcan->Init.Prescaler));
  79              		.loc 1 295 3 view .LVU18
 296:Drivers/STM32F4xx_HAL_Driver/Src/stm32f4xx_hal_can.c **** 
  80              		.loc 1 296 3 view .LVU19
 326:Drivers/STM32F4xx_HAL_Driver/Src/stm32f4xx_hal_can.c ****   {
  81              		.loc 1 326 3 view .LVU20
 326:Drivers/STM32F4xx_HAL_Driver/Src/stm32f4xx_hal_can.c ****   {
  82              		.loc 1 326 11 is_stmt 0 view .LVU21
  83 000a 90F82030 		ldrb	r3, [r0, #32]	@ zero_extendqisi2
 326:Drivers/STM32F4xx_HAL_Driver/Src/stm32f4xx_hal_can.c ****   {
  84              		.loc 1 326 6 view .LVU22
  85 000e D3B1     		cbz	r3, .L26
  86              	.LVL2:
  87              	.L4:
 334:Drivers/STM32F4xx_HAL_Driver/Src/stm32f4xx_hal_can.c **** 
  88              		.loc 1 334 3 is_stmt 1 view .LVU23
  89 0010 2268     		ldr	r2, [r4]
  90 0012 1368     		ldr	r3, [r2]
  91 0014 43F00103 		orr	r3, r3, #1
  92 0018 1360     		str	r3, [r2]
 337:Drivers/STM32F4xx_HAL_Driver/Src/stm32f4xx_hal_can.c **** 
  93              		.loc 1 337 3 view .LVU24
 337:Drivers/STM32F4xx_HAL_Driver/Src/stm32f4xx_hal_can.c **** 
ARM GAS  C:\Users\12990\AppData\Local\Temp\ccxhiVmA.s 			page 12


  94              		.loc 1 337 15 is_stmt 0 view .LVU25
  95 001a FFF7FEFF 		bl	HAL_GetTick
  96              	.LVL3:
  97 001e 0546     		mov	r5, r0
  98              	.LVL4:
 340:Drivers/STM32F4xx_HAL_Driver/Src/stm32f4xx_hal_can.c ****   {
  99              		.loc 1 340 3 is_stmt 1 view .LVU26
 100              	.L5:
 340:Drivers/STM32F4xx_HAL_Driver/Src/stm32f4xx_hal_can.c ****   {
 101              		.loc 1 340 9 view .LVU27
 340:Drivers/STM32F4xx_HAL_Driver/Src/stm32f4xx_hal_can.c ****   {
 102              		.loc 1 340 15 is_stmt 0 view .LVU28
 103 0020 2368     		ldr	r3, [r4]
 340:Drivers/STM32F4xx_HAL_Driver/Src/stm32f4xx_hal_can.c ****   {
 104              		.loc 1 340 25 view .LVU29
 105 0022 5A68     		ldr	r2, [r3, #4]
 340:Drivers/STM32F4xx_HAL_Driver/Src/stm32f4xx_hal_can.c ****   {
 106              		.loc 1 340 9 view .LVU30
 107 0024 12F0010F 		tst	r2, #1
 108 0028 10D1     		bne	.L27
 342:Drivers/STM32F4xx_HAL_Driver/Src/stm32f4xx_hal_can.c ****     {
 109              		.loc 1 342 5 is_stmt 1 view .LVU31
 342:Drivers/STM32F4xx_HAL_Driver/Src/stm32f4xx_hal_can.c ****     {
 110              		.loc 1 342 10 is_stmt 0 view .LVU32
 111 002a FFF7FEFF 		bl	HAL_GetTick
 112              	.LVL5:
 342:Drivers/STM32F4xx_HAL_Driver/Src/stm32f4xx_hal_can.c ****     {
 113              		.loc 1 342 24 view .LVU33
 114 002e 401B     		subs	r0, r0, r5
 342:Drivers/STM32F4xx_HAL_Driver/Src/stm32f4xx_hal_can.c ****     {
 115              		.loc 1 342 8 view .LVU34
 116 0030 0A28     		cmp	r0, #10
 117 0032 F5D9     		bls	.L5
 345:Drivers/STM32F4xx_HAL_Driver/Src/stm32f4xx_hal_can.c **** 
 118              		.loc 1 345 7 is_stmt 1 view .LVU35
 345:Drivers/STM32F4xx_HAL_Driver/Src/stm32f4xx_hal_can.c **** 
 119              		.loc 1 345 23 is_stmt 0 view .LVU36
 120 0034 636A     		ldr	r3, [r4, #36]
 121 0036 43F40033 		orr	r3, r3, #131072
 122 003a 6362     		str	r3, [r4, #36]
 348:Drivers/STM32F4xx_HAL_Driver/Src/stm32f4xx_hal_can.c **** 
 123              		.loc 1 348 7 is_stmt 1 view .LVU37
 348:Drivers/STM32F4xx_HAL_Driver/Src/stm32f4xx_hal_can.c **** 
 124              		.loc 1 348 19 is_stmt 0 view .LVU38
 125 003c 0523     		movs	r3, #5
 126 003e 84F82030 		strb	r3, [r4, #32]
 350:Drivers/STM32F4xx_HAL_Driver/Src/stm32f4xx_hal_can.c ****     }
 127              		.loc 1 350 7 is_stmt 1 view .LVU39
 350:Drivers/STM32F4xx_HAL_Driver/Src/stm32f4xx_hal_can.c ****     }
 128              		.loc 1 350 14 is_stmt 0 view .LVU40
 129 0042 0120     		movs	r0, #1
 130              	.L3:
 450:Drivers/STM32F4xx_HAL_Driver/Src/stm32f4xx_hal_can.c **** 
 131              		.loc 1 450 1 view .LVU41
 132 0044 38BD     		pop	{r3, r4, r5, pc}
 133              	.LVL6:
 134              	.L26:
ARM GAS  C:\Users\12990\AppData\Local\Temp\ccxhiVmA.s 			page 13


 329:Drivers/STM32F4xx_HAL_Driver/Src/stm32f4xx_hal_can.c ****   }
 135              		.loc 1 329 5 is_stmt 1 view .LVU42
 136 0046 FFF7FEFF 		bl	HAL_CAN_MspInit
 137              	.LVL7:
 329:Drivers/STM32F4xx_HAL_Driver/Src/stm32f4xx_hal_can.c ****   }
 138              		.loc 1 329 5 is_stmt 0 view .LVU43
 139 004a E1E7     		b	.L4
 140              	.LVL8:
 141              	.L27:
 355:Drivers/STM32F4xx_HAL_Driver/Src/stm32f4xx_hal_can.c **** 
 142              		.loc 1 355 3 is_stmt 1 view .LVU44
 143 004c 1A68     		ldr	r2, [r3]
 144 004e 22F00202 		bic	r2, r2, #2
 145 0052 1A60     		str	r2, [r3]
 358:Drivers/STM32F4xx_HAL_Driver/Src/stm32f4xx_hal_can.c **** 
 146              		.loc 1 358 3 view .LVU45
 358:Drivers/STM32F4xx_HAL_Driver/Src/stm32f4xx_hal_can.c **** 
 147              		.loc 1 358 15 is_stmt 0 view .LVU46
 148 0054 FFF7FEFF 		bl	HAL_GetTick
 149              	.LVL9:
 150 0058 0546     		mov	r5, r0
 151              	.LVL10:
 361:Drivers/STM32F4xx_HAL_Driver/Src/stm32f4xx_hal_can.c ****   {
 152              		.loc 1 361 3 is_stmt 1 view .LVU47
 153              	.L7:
 361:Drivers/STM32F4xx_HAL_Driver/Src/stm32f4xx_hal_can.c ****   {
 154              		.loc 1 361 9 view .LVU48
 361:Drivers/STM32F4xx_HAL_Driver/Src/stm32f4xx_hal_can.c ****   {
 155              		.loc 1 361 15 is_stmt 0 view .LVU49
 156 005a 2368     		ldr	r3, [r4]
 361:Drivers/STM32F4xx_HAL_Driver/Src/stm32f4xx_hal_can.c ****   {
 157              		.loc 1 361 25 view .LVU50
 158 005c 5A68     		ldr	r2, [r3, #4]
 361:Drivers/STM32F4xx_HAL_Driver/Src/stm32f4xx_hal_can.c ****   {
 159              		.loc 1 361 9 view .LVU51
 160 005e 12F0020F 		tst	r2, #2
 161 0062 0DD0     		beq	.L28
 363:Drivers/STM32F4xx_HAL_Driver/Src/stm32f4xx_hal_can.c ****     {
 162              		.loc 1 363 5 is_stmt 1 view .LVU52
 363:Drivers/STM32F4xx_HAL_Driver/Src/stm32f4xx_hal_can.c ****     {
 163              		.loc 1 363 10 is_stmt 0 view .LVU53
 164 0064 FFF7FEFF 		bl	HAL_GetTick
 165              	.LVL11:
 363:Drivers/STM32F4xx_HAL_Driver/Src/stm32f4xx_hal_can.c ****     {
 166              		.loc 1 363 24 view .LVU54
 167 0068 401B     		subs	r0, r0, r5
 363:Drivers/STM32F4xx_HAL_Driver/Src/stm32f4xx_hal_can.c ****     {
 168              		.loc 1 363 8 view .LVU55
 169 006a 0A28     		cmp	r0, #10
 170 006c F5D9     		bls	.L7
 366:Drivers/STM32F4xx_HAL_Driver/Src/stm32f4xx_hal_can.c **** 
 171              		.loc 1 366 7 is_stmt 1 view .LVU56
 366:Drivers/STM32F4xx_HAL_Driver/Src/stm32f4xx_hal_can.c **** 
 172              		.loc 1 366 23 is_stmt 0 view .LVU57
 173 006e 636A     		ldr	r3, [r4, #36]
 174 0070 43F40033 		orr	r3, r3, #131072
 175 0074 6362     		str	r3, [r4, #36]
ARM GAS  C:\Users\12990\AppData\Local\Temp\ccxhiVmA.s 			page 14


 369:Drivers/STM32F4xx_HAL_Driver/Src/stm32f4xx_hal_can.c **** 
 176              		.loc 1 369 7 is_stmt 1 view .LVU58
 369:Drivers/STM32F4xx_HAL_Driver/Src/stm32f4xx_hal_can.c **** 
 177              		.loc 1 369 19 is_stmt 0 view .LVU59
 178 0076 0523     		movs	r3, #5
 179 0078 84F82030 		strb	r3, [r4, #32]
 371:Drivers/STM32F4xx_HAL_Driver/Src/stm32f4xx_hal_can.c ****     }
 180              		.loc 1 371 7 is_stmt 1 view .LVU60
 371:Drivers/STM32F4xx_HAL_Driver/Src/stm32f4xx_hal_can.c ****     }
 181              		.loc 1 371 14 is_stmt 0 view .LVU61
 182 007c 0120     		movs	r0, #1
 183 007e E1E7     		b	.L3
 184              	.L28:
 376:Drivers/STM32F4xx_HAL_Driver/Src/stm32f4xx_hal_can.c ****   {
 185              		.loc 1 376 3 is_stmt 1 view .LVU62
 376:Drivers/STM32F4xx_HAL_Driver/Src/stm32f4xx_hal_can.c ****   {
 186              		.loc 1 376 17 is_stmt 0 view .LVU63
 187 0080 227E     		ldrb	r2, [r4, #24]	@ zero_extendqisi2
 376:Drivers/STM32F4xx_HAL_Driver/Src/stm32f4xx_hal_can.c ****   {
 188              		.loc 1 376 6 view .LVU64
 189 0082 012A     		cmp	r2, #1
 190 0084 3DD0     		beq	.L29
 382:Drivers/STM32F4xx_HAL_Driver/Src/stm32f4xx_hal_can.c ****   }
 191              		.loc 1 382 5 is_stmt 1 view .LVU65
 192 0086 1A68     		ldr	r2, [r3]
 193 0088 22F08002 		bic	r2, r2, #128
 194 008c 1A60     		str	r2, [r3]
 195              	.L10:
 386:Drivers/STM32F4xx_HAL_Driver/Src/stm32f4xx_hal_can.c ****   {
 196              		.loc 1 386 3 view .LVU66
 386:Drivers/STM32F4xx_HAL_Driver/Src/stm32f4xx_hal_can.c ****   {
 197              		.loc 1 386 17 is_stmt 0 view .LVU67
 198 008e 637E     		ldrb	r3, [r4, #25]	@ zero_extendqisi2
 386:Drivers/STM32F4xx_HAL_Driver/Src/stm32f4xx_hal_can.c ****   {
 199              		.loc 1 386 6 view .LVU68
 200 0090 012B     		cmp	r3, #1
 201 0092 3BD0     		beq	.L30
 392:Drivers/STM32F4xx_HAL_Driver/Src/stm32f4xx_hal_can.c ****   }
 202              		.loc 1 392 5 is_stmt 1 view .LVU69
 203 0094 2268     		ldr	r2, [r4]
 204 0096 1368     		ldr	r3, [r2]
 205 0098 23F04003 		bic	r3, r3, #64
 206 009c 1360     		str	r3, [r2]
 207              	.L12:
 396:Drivers/STM32F4xx_HAL_Driver/Src/stm32f4xx_hal_can.c ****   {
 208              		.loc 1 396 3 view .LVU70
 396:Drivers/STM32F4xx_HAL_Driver/Src/stm32f4xx_hal_can.c ****   {
 209              		.loc 1 396 17 is_stmt 0 view .LVU71
 210 009e A37E     		ldrb	r3, [r4, #26]	@ zero_extendqisi2
 396:Drivers/STM32F4xx_HAL_Driver/Src/stm32f4xx_hal_can.c ****   {
 211              		.loc 1 396 6 view .LVU72
 212 00a0 012B     		cmp	r3, #1
 213 00a2 39D0     		beq	.L31
 402:Drivers/STM32F4xx_HAL_Driver/Src/stm32f4xx_hal_can.c ****   }
 214              		.loc 1 402 5 is_stmt 1 view .LVU73
 215 00a4 2268     		ldr	r2, [r4]
 216 00a6 1368     		ldr	r3, [r2]
ARM GAS  C:\Users\12990\AppData\Local\Temp\ccxhiVmA.s 			page 15


 217 00a8 23F02003 		bic	r3, r3, #32
 218 00ac 1360     		str	r3, [r2]
 219              	.L14:
 406:Drivers/STM32F4xx_HAL_Driver/Src/stm32f4xx_hal_can.c ****   {
 220              		.loc 1 406 3 view .LVU74
 406:Drivers/STM32F4xx_HAL_Driver/Src/stm32f4xx_hal_can.c ****   {
 221              		.loc 1 406 17 is_stmt 0 view .LVU75
 222 00ae E37E     		ldrb	r3, [r4, #27]	@ zero_extendqisi2
 406:Drivers/STM32F4xx_HAL_Driver/Src/stm32f4xx_hal_can.c ****   {
 223              		.loc 1 406 6 view .LVU76
 224 00b0 012B     		cmp	r3, #1
 225 00b2 37D0     		beq	.L32
 412:Drivers/STM32F4xx_HAL_Driver/Src/stm32f4xx_hal_can.c ****   }
 226              		.loc 1 412 5 is_stmt 1 view .LVU77
 227 00b4 2268     		ldr	r2, [r4]
 228 00b6 1368     		ldr	r3, [r2]
 229 00b8 43F01003 		orr	r3, r3, #16
 230 00bc 1360     		str	r3, [r2]
 231              	.L16:
 416:Drivers/STM32F4xx_HAL_Driver/Src/stm32f4xx_hal_can.c ****   {
 232              		.loc 1 416 3 view .LVU78
 416:Drivers/STM32F4xx_HAL_Driver/Src/stm32f4xx_hal_can.c ****   {
 233              		.loc 1 416 17 is_stmt 0 view .LVU79
 234 00be 237F     		ldrb	r3, [r4, #28]	@ zero_extendqisi2
 416:Drivers/STM32F4xx_HAL_Driver/Src/stm32f4xx_hal_can.c ****   {
 235              		.loc 1 416 6 view .LVU80
 236 00c0 012B     		cmp	r3, #1
 237 00c2 35D0     		beq	.L33
 422:Drivers/STM32F4xx_HAL_Driver/Src/stm32f4xx_hal_can.c ****   }
 238              		.loc 1 422 5 is_stmt 1 view .LVU81
 239 00c4 2268     		ldr	r2, [r4]
 240 00c6 1368     		ldr	r3, [r2]
 241 00c8 23F00803 		bic	r3, r3, #8
 242 00cc 1360     		str	r3, [r2]
 243              	.L18:
 426:Drivers/STM32F4xx_HAL_Driver/Src/stm32f4xx_hal_can.c ****   {
 244              		.loc 1 426 3 view .LVU82
 426:Drivers/STM32F4xx_HAL_Driver/Src/stm32f4xx_hal_can.c ****   {
 245              		.loc 1 426 17 is_stmt 0 view .LVU83
 246 00ce 637F     		ldrb	r3, [r4, #29]	@ zero_extendqisi2
 426:Drivers/STM32F4xx_HAL_Driver/Src/stm32f4xx_hal_can.c ****   {
 247              		.loc 1 426 6 view .LVU84
 248 00d0 012B     		cmp	r3, #1
 249 00d2 33D0     		beq	.L34
 432:Drivers/STM32F4xx_HAL_Driver/Src/stm32f4xx_hal_can.c ****   }
 250              		.loc 1 432 5 is_stmt 1 view .LVU85
 251 00d4 2268     		ldr	r2, [r4]
 252 00d6 1368     		ldr	r3, [r2]
 253 00d8 23F00403 		bic	r3, r3, #4
 254 00dc 1360     		str	r3, [r2]
 255              	.L20:
 436:Drivers/STM32F4xx_HAL_Driver/Src/stm32f4xx_hal_can.c ****                                             hcan->Init.SyncJumpWidth  |
 256              		.loc 1 436 3 view .LVU86
 257 00de A368     		ldr	r3, [r4, #8]
 258 00e0 E268     		ldr	r2, [r4, #12]
 259 00e2 1343     		orrs	r3, r3, r2
 260 00e4 2269     		ldr	r2, [r4, #16]
ARM GAS  C:\Users\12990\AppData\Local\Temp\ccxhiVmA.s 			page 16


 261 00e6 1343     		orrs	r3, r3, r2
 262 00e8 6269     		ldr	r2, [r4, #20]
 263 00ea 1343     		orrs	r3, r3, r2
 264 00ec 6268     		ldr	r2, [r4, #4]
 265 00ee 013A     		subs	r2, r2, #1
 266 00f0 2168     		ldr	r1, [r4]
 267 00f2 1343     		orrs	r3, r3, r2
 268 00f4 CB61     		str	r3, [r1, #28]
 443:Drivers/STM32F4xx_HAL_Driver/Src/stm32f4xx_hal_can.c **** 
 269              		.loc 1 443 3 view .LVU87
 443:Drivers/STM32F4xx_HAL_Driver/Src/stm32f4xx_hal_can.c **** 
 270              		.loc 1 443 19 is_stmt 0 view .LVU88
 271 00f6 0020     		movs	r0, #0
 272 00f8 6062     		str	r0, [r4, #36]
 446:Drivers/STM32F4xx_HAL_Driver/Src/stm32f4xx_hal_can.c **** 
 273              		.loc 1 446 3 is_stmt 1 view .LVU89
 446:Drivers/STM32F4xx_HAL_Driver/Src/stm32f4xx_hal_can.c **** 
 274              		.loc 1 446 15 is_stmt 0 view .LVU90
 275 00fa 0123     		movs	r3, #1
 276 00fc 84F82030 		strb	r3, [r4, #32]
 449:Drivers/STM32F4xx_HAL_Driver/Src/stm32f4xx_hal_can.c **** }
 277              		.loc 1 449 3 is_stmt 1 view .LVU91
 449:Drivers/STM32F4xx_HAL_Driver/Src/stm32f4xx_hal_can.c **** }
 278              		.loc 1 449 10 is_stmt 0 view .LVU92
 279 0100 A0E7     		b	.L3
 280              	.L29:
 378:Drivers/STM32F4xx_HAL_Driver/Src/stm32f4xx_hal_can.c ****   }
 281              		.loc 1 378 5 is_stmt 1 view .LVU93
 282 0102 1A68     		ldr	r2, [r3]
 283 0104 42F08002 		orr	r2, r2, #128
 284 0108 1A60     		str	r2, [r3]
 285 010a C0E7     		b	.L10
 286              	.L30:
 388:Drivers/STM32F4xx_HAL_Driver/Src/stm32f4xx_hal_can.c ****   }
 287              		.loc 1 388 5 view .LVU94
 288 010c 2268     		ldr	r2, [r4]
 289 010e 1368     		ldr	r3, [r2]
 290 0110 43F04003 		orr	r3, r3, #64
 291 0114 1360     		str	r3, [r2]
 292 0116 C2E7     		b	.L12
 293              	.L31:
 398:Drivers/STM32F4xx_HAL_Driver/Src/stm32f4xx_hal_can.c ****   }
 294              		.loc 1 398 5 view .LVU95
 295 0118 2268     		ldr	r2, [r4]
 296 011a 1368     		ldr	r3, [r2]
 297 011c 43F02003 		orr	r3, r3, #32
 298 0120 1360     		str	r3, [r2]
 299 0122 C4E7     		b	.L14
 300              	.L32:
 408:Drivers/STM32F4xx_HAL_Driver/Src/stm32f4xx_hal_can.c ****   }
 301              		.loc 1 408 5 view .LVU96
 302 0124 2268     		ldr	r2, [r4]
 303 0126 1368     		ldr	r3, [r2]
 304 0128 23F01003 		bic	r3, r3, #16
 305 012c 1360     		str	r3, [r2]
 306 012e C6E7     		b	.L16
 307              	.L33:
ARM GAS  C:\Users\12990\AppData\Local\Temp\ccxhiVmA.s 			page 17


 418:Drivers/STM32F4xx_HAL_Driver/Src/stm32f4xx_hal_can.c ****   }
 308              		.loc 1 418 5 view .LVU97
 309 0130 2268     		ldr	r2, [r4]
 310 0132 1368     		ldr	r3, [r2]
 311 0134 43F00803 		orr	r3, r3, #8
 312 0138 1360     		str	r3, [r2]
 313 013a C8E7     		b	.L18
 314              	.L34:
 428:Drivers/STM32F4xx_HAL_Driver/Src/stm32f4xx_hal_can.c ****   }
 315              		.loc 1 428 5 view .LVU98
 316 013c 2268     		ldr	r2, [r4]
 317 013e 1368     		ldr	r3, [r2]
 318 0140 43F00403 		orr	r3, r3, #4
 319 0144 1360     		str	r3, [r2]
 320 0146 CAE7     		b	.L20
 321              	.LVL12:
 322              	.L21:
 323              	.LCFI1:
 324              		.cfi_def_cfa_offset 0
 325              		.cfi_restore 3
 326              		.cfi_restore 4
 327              		.cfi_restore 5
 328              		.cfi_restore 14
 281:Drivers/STM32F4xx_HAL_Driver/Src/stm32f4xx_hal_can.c ****   }
 329              		.loc 1 281 12 is_stmt 0 view .LVU99
 330 0148 0120     		movs	r0, #1
 331              	.LVL13:
 450:Drivers/STM32F4xx_HAL_Driver/Src/stm32f4xx_hal_can.c **** 
 332              		.loc 1 450 1 view .LVU100
 333 014a 7047     		bx	lr
 334              		.cfi_endproc
 335              	.LFE130:
 337              		.section	.text.HAL_CAN_MspDeInit,"ax",%progbits
 338              		.align	1
 339              		.weak	HAL_CAN_MspDeInit
 340              		.syntax unified
 341              		.thumb
 342              		.thumb_func
 344              	HAL_CAN_MspDeInit:
 345              	.LVL14:
 346              	.LFB133:
 515:Drivers/STM32F4xx_HAL_Driver/Src/stm32f4xx_hal_can.c **** 
 516:Drivers/STM32F4xx_HAL_Driver/Src/stm32f4xx_hal_can.c **** /**
 517:Drivers/STM32F4xx_HAL_Driver/Src/stm32f4xx_hal_can.c ****   * @brief  DeInitializes the CAN MSP.
 518:Drivers/STM32F4xx_HAL_Driver/Src/stm32f4xx_hal_can.c ****   * @param  hcan pointer to a CAN_HandleTypeDef structure that contains
 519:Drivers/STM32F4xx_HAL_Driver/Src/stm32f4xx_hal_can.c ****   *         the configuration information for the specified CAN.
 520:Drivers/STM32F4xx_HAL_Driver/Src/stm32f4xx_hal_can.c ****   * @retval None
 521:Drivers/STM32F4xx_HAL_Driver/Src/stm32f4xx_hal_can.c ****   */
 522:Drivers/STM32F4xx_HAL_Driver/Src/stm32f4xx_hal_can.c **** __weak void HAL_CAN_MspDeInit(CAN_HandleTypeDef *hcan)
 523:Drivers/STM32F4xx_HAL_Driver/Src/stm32f4xx_hal_can.c **** {
 347              		.loc 1 523 1 is_stmt 1 view -0
 348              		.cfi_startproc
 349              		@ args = 0, pretend = 0, frame = 0
 350              		@ frame_needed = 0, uses_anonymous_args = 0
 351              		@ link register save eliminated.
 524:Drivers/STM32F4xx_HAL_Driver/Src/stm32f4xx_hal_can.c ****   /* Prevent unused argument(s) compilation warning */
 525:Drivers/STM32F4xx_HAL_Driver/Src/stm32f4xx_hal_can.c ****   UNUSED(hcan);
ARM GAS  C:\Users\12990\AppData\Local\Temp\ccxhiVmA.s 			page 18


 352              		.loc 1 525 3 view .LVU102
 526:Drivers/STM32F4xx_HAL_Driver/Src/stm32f4xx_hal_can.c **** 
 527:Drivers/STM32F4xx_HAL_Driver/Src/stm32f4xx_hal_can.c ****   /* NOTE : This function Should not be modified, when the callback is needed,
 528:Drivers/STM32F4xx_HAL_Driver/Src/stm32f4xx_hal_can.c ****             the HAL_CAN_MspDeInit could be implemented in the user file
 529:Drivers/STM32F4xx_HAL_Driver/Src/stm32f4xx_hal_can.c ****    */
 530:Drivers/STM32F4xx_HAL_Driver/Src/stm32f4xx_hal_can.c **** }
 353              		.loc 1 530 1 is_stmt 0 view .LVU103
 354 0000 7047     		bx	lr
 355              		.cfi_endproc
 356              	.LFE133:
 358              		.section	.text.HAL_CAN_ConfigFilter,"ax",%progbits
 359              		.align	1
 360              		.global	HAL_CAN_ConfigFilter
 361              		.syntax unified
 362              		.thumb
 363              		.thumb_func
 365              	HAL_CAN_ConfigFilter:
 366              	.LVL15:
 367              	.LFB134:
 531:Drivers/STM32F4xx_HAL_Driver/Src/stm32f4xx_hal_can.c **** 
 532:Drivers/STM32F4xx_HAL_Driver/Src/stm32f4xx_hal_can.c **** #if USE_HAL_CAN_REGISTER_CALLBACKS == 1
 533:Drivers/STM32F4xx_HAL_Driver/Src/stm32f4xx_hal_can.c **** /**
 534:Drivers/STM32F4xx_HAL_Driver/Src/stm32f4xx_hal_can.c ****   * @brief  Register a CAN CallBack.
 535:Drivers/STM32F4xx_HAL_Driver/Src/stm32f4xx_hal_can.c ****   *         To be used instead of the weak predefined callback
 536:Drivers/STM32F4xx_HAL_Driver/Src/stm32f4xx_hal_can.c ****   * @param  hcan pointer to a CAN_HandleTypeDef structure that contains
 537:Drivers/STM32F4xx_HAL_Driver/Src/stm32f4xx_hal_can.c ****   *         the configuration information for CAN module
 538:Drivers/STM32F4xx_HAL_Driver/Src/stm32f4xx_hal_can.c ****   * @param  CallbackID ID of the callback to be registered
 539:Drivers/STM32F4xx_HAL_Driver/Src/stm32f4xx_hal_can.c ****   *         This parameter can be one of the following values:
 540:Drivers/STM32F4xx_HAL_Driver/Src/stm32f4xx_hal_can.c ****   *           @arg @ref HAL_CAN_TX_MAILBOX0_COMPLETE_CB_ID Tx Mailbox 0 Complete callback ID
 541:Drivers/STM32F4xx_HAL_Driver/Src/stm32f4xx_hal_can.c ****   *           @arg @ref HAL_CAN_TX_MAILBOX1_COMPLETE_CB_ID Tx Mailbox 1 Complete callback ID
 542:Drivers/STM32F4xx_HAL_Driver/Src/stm32f4xx_hal_can.c ****   *           @arg @ref HAL_CAN_TX_MAILBOX2_COMPLETE_CB_ID Tx Mailbox 2 Complete callback ID
 543:Drivers/STM32F4xx_HAL_Driver/Src/stm32f4xx_hal_can.c ****   *           @arg @ref HAL_CAN_TX_MAILBOX0_ABORT_CB_ID Tx Mailbox 0 Abort callback ID
 544:Drivers/STM32F4xx_HAL_Driver/Src/stm32f4xx_hal_can.c ****   *           @arg @ref HAL_CAN_TX_MAILBOX1_ABORT_CB_ID Tx Mailbox 1 Abort callback ID
 545:Drivers/STM32F4xx_HAL_Driver/Src/stm32f4xx_hal_can.c ****   *           @arg @ref HAL_CAN_TX_MAILBOX2_ABORT_CB_ID Tx Mailbox 2 Abort callback ID
 546:Drivers/STM32F4xx_HAL_Driver/Src/stm32f4xx_hal_can.c ****   *           @arg @ref HAL_CAN_RX_FIFO0_MSG_PENDING_CB_ID Rx Fifo 0 message pending callback ID
 547:Drivers/STM32F4xx_HAL_Driver/Src/stm32f4xx_hal_can.c ****   *           @arg @ref HAL_CAN_RX_FIFO0_FULL_CB_ID Rx Fifo 0 full callback ID
 548:Drivers/STM32F4xx_HAL_Driver/Src/stm32f4xx_hal_can.c ****   *           @arg @ref HAL_CAN_RX_FIFO1_MSG_PENDING_CB_ID Rx Fifo 1 message pending callback ID
 549:Drivers/STM32F4xx_HAL_Driver/Src/stm32f4xx_hal_can.c ****   *           @arg @ref HAL_CAN_RX_FIFO1_FULL_CB_ID Rx Fifo 1 full callback ID
 550:Drivers/STM32F4xx_HAL_Driver/Src/stm32f4xx_hal_can.c ****   *           @arg @ref HAL_CAN_SLEEP_CB_ID Sleep callback ID
 551:Drivers/STM32F4xx_HAL_Driver/Src/stm32f4xx_hal_can.c ****   *           @arg @ref HAL_CAN_WAKEUP_FROM_RX_MSG_CB_ID Wake Up from Rx message callback ID
 552:Drivers/STM32F4xx_HAL_Driver/Src/stm32f4xx_hal_can.c ****   *           @arg @ref HAL_CAN_ERROR_CB_ID Error callback ID
 553:Drivers/STM32F4xx_HAL_Driver/Src/stm32f4xx_hal_can.c ****   *           @arg @ref HAL_CAN_MSPINIT_CB_ID MspInit callback ID
 554:Drivers/STM32F4xx_HAL_Driver/Src/stm32f4xx_hal_can.c ****   *           @arg @ref HAL_CAN_MSPDEINIT_CB_ID MspDeInit callback ID
 555:Drivers/STM32F4xx_HAL_Driver/Src/stm32f4xx_hal_can.c ****   * @param  pCallback pointer to the Callback function
 556:Drivers/STM32F4xx_HAL_Driver/Src/stm32f4xx_hal_can.c ****   * @retval HAL status
 557:Drivers/STM32F4xx_HAL_Driver/Src/stm32f4xx_hal_can.c ****   */
 558:Drivers/STM32F4xx_HAL_Driver/Src/stm32f4xx_hal_can.c **** HAL_StatusTypeDef HAL_CAN_RegisterCallback(CAN_HandleTypeDef *hcan, HAL_CAN_CallbackIDTypeDef Callb
 559:Drivers/STM32F4xx_HAL_Driver/Src/stm32f4xx_hal_can.c **** {
 560:Drivers/STM32F4xx_HAL_Driver/Src/stm32f4xx_hal_can.c ****   HAL_StatusTypeDef status = HAL_OK;
 561:Drivers/STM32F4xx_HAL_Driver/Src/stm32f4xx_hal_can.c **** 
 562:Drivers/STM32F4xx_HAL_Driver/Src/stm32f4xx_hal_can.c ****   if (pCallback == NULL)
 563:Drivers/STM32F4xx_HAL_Driver/Src/stm32f4xx_hal_can.c ****   {
 564:Drivers/STM32F4xx_HAL_Driver/Src/stm32f4xx_hal_can.c ****     /* Update the error code */
 565:Drivers/STM32F4xx_HAL_Driver/Src/stm32f4xx_hal_can.c ****     hcan->ErrorCode |= HAL_CAN_ERROR_INVALID_CALLBACK;
 566:Drivers/STM32F4xx_HAL_Driver/Src/stm32f4xx_hal_can.c **** 
 567:Drivers/STM32F4xx_HAL_Driver/Src/stm32f4xx_hal_can.c ****     return HAL_ERROR;
 568:Drivers/STM32F4xx_HAL_Driver/Src/stm32f4xx_hal_can.c ****   }
ARM GAS  C:\Users\12990\AppData\Local\Temp\ccxhiVmA.s 			page 19


 569:Drivers/STM32F4xx_HAL_Driver/Src/stm32f4xx_hal_can.c **** 
 570:Drivers/STM32F4xx_HAL_Driver/Src/stm32f4xx_hal_can.c ****   if (hcan->State == HAL_CAN_STATE_READY)
 571:Drivers/STM32F4xx_HAL_Driver/Src/stm32f4xx_hal_can.c ****   {
 572:Drivers/STM32F4xx_HAL_Driver/Src/stm32f4xx_hal_can.c ****     switch (CallbackID)
 573:Drivers/STM32F4xx_HAL_Driver/Src/stm32f4xx_hal_can.c ****     {
 574:Drivers/STM32F4xx_HAL_Driver/Src/stm32f4xx_hal_can.c ****       case HAL_CAN_TX_MAILBOX0_COMPLETE_CB_ID :
 575:Drivers/STM32F4xx_HAL_Driver/Src/stm32f4xx_hal_can.c ****         hcan->TxMailbox0CompleteCallback = pCallback;
 576:Drivers/STM32F4xx_HAL_Driver/Src/stm32f4xx_hal_can.c ****         break;
 577:Drivers/STM32F4xx_HAL_Driver/Src/stm32f4xx_hal_can.c **** 
 578:Drivers/STM32F4xx_HAL_Driver/Src/stm32f4xx_hal_can.c ****       case HAL_CAN_TX_MAILBOX1_COMPLETE_CB_ID :
 579:Drivers/STM32F4xx_HAL_Driver/Src/stm32f4xx_hal_can.c ****         hcan->TxMailbox1CompleteCallback = pCallback;
 580:Drivers/STM32F4xx_HAL_Driver/Src/stm32f4xx_hal_can.c ****         break;
 581:Drivers/STM32F4xx_HAL_Driver/Src/stm32f4xx_hal_can.c **** 
 582:Drivers/STM32F4xx_HAL_Driver/Src/stm32f4xx_hal_can.c ****       case HAL_CAN_TX_MAILBOX2_COMPLETE_CB_ID :
 583:Drivers/STM32F4xx_HAL_Driver/Src/stm32f4xx_hal_can.c ****         hcan->TxMailbox2CompleteCallback = pCallback;
 584:Drivers/STM32F4xx_HAL_Driver/Src/stm32f4xx_hal_can.c ****         break;
 585:Drivers/STM32F4xx_HAL_Driver/Src/stm32f4xx_hal_can.c **** 
 586:Drivers/STM32F4xx_HAL_Driver/Src/stm32f4xx_hal_can.c ****       case HAL_CAN_TX_MAILBOX0_ABORT_CB_ID :
 587:Drivers/STM32F4xx_HAL_Driver/Src/stm32f4xx_hal_can.c ****         hcan->TxMailbox0AbortCallback = pCallback;
 588:Drivers/STM32F4xx_HAL_Driver/Src/stm32f4xx_hal_can.c ****         break;
 589:Drivers/STM32F4xx_HAL_Driver/Src/stm32f4xx_hal_can.c **** 
 590:Drivers/STM32F4xx_HAL_Driver/Src/stm32f4xx_hal_can.c ****       case HAL_CAN_TX_MAILBOX1_ABORT_CB_ID :
 591:Drivers/STM32F4xx_HAL_Driver/Src/stm32f4xx_hal_can.c ****         hcan->TxMailbox1AbortCallback = pCallback;
 592:Drivers/STM32F4xx_HAL_Driver/Src/stm32f4xx_hal_can.c ****         break;
 593:Drivers/STM32F4xx_HAL_Driver/Src/stm32f4xx_hal_can.c **** 
 594:Drivers/STM32F4xx_HAL_Driver/Src/stm32f4xx_hal_can.c ****       case HAL_CAN_TX_MAILBOX2_ABORT_CB_ID :
 595:Drivers/STM32F4xx_HAL_Driver/Src/stm32f4xx_hal_can.c ****         hcan->TxMailbox2AbortCallback = pCallback;
 596:Drivers/STM32F4xx_HAL_Driver/Src/stm32f4xx_hal_can.c ****         break;
 597:Drivers/STM32F4xx_HAL_Driver/Src/stm32f4xx_hal_can.c **** 
 598:Drivers/STM32F4xx_HAL_Driver/Src/stm32f4xx_hal_can.c ****       case HAL_CAN_RX_FIFO0_MSG_PENDING_CB_ID :
 599:Drivers/STM32F4xx_HAL_Driver/Src/stm32f4xx_hal_can.c ****         hcan->RxFifo0MsgPendingCallback = pCallback;
 600:Drivers/STM32F4xx_HAL_Driver/Src/stm32f4xx_hal_can.c ****         break;
 601:Drivers/STM32F4xx_HAL_Driver/Src/stm32f4xx_hal_can.c **** 
 602:Drivers/STM32F4xx_HAL_Driver/Src/stm32f4xx_hal_can.c ****       case HAL_CAN_RX_FIFO0_FULL_CB_ID :
 603:Drivers/STM32F4xx_HAL_Driver/Src/stm32f4xx_hal_can.c ****         hcan->RxFifo0FullCallback = pCallback;
 604:Drivers/STM32F4xx_HAL_Driver/Src/stm32f4xx_hal_can.c ****         break;
 605:Drivers/STM32F4xx_HAL_Driver/Src/stm32f4xx_hal_can.c **** 
 606:Drivers/STM32F4xx_HAL_Driver/Src/stm32f4xx_hal_can.c ****       case HAL_CAN_RX_FIFO1_MSG_PENDING_CB_ID :
 607:Drivers/STM32F4xx_HAL_Driver/Src/stm32f4xx_hal_can.c ****         hcan->RxFifo1MsgPendingCallback = pCallback;
 608:Drivers/STM32F4xx_HAL_Driver/Src/stm32f4xx_hal_can.c ****         break;
 609:Drivers/STM32F4xx_HAL_Driver/Src/stm32f4xx_hal_can.c **** 
 610:Drivers/STM32F4xx_HAL_Driver/Src/stm32f4xx_hal_can.c ****       case HAL_CAN_RX_FIFO1_FULL_CB_ID :
 611:Drivers/STM32F4xx_HAL_Driver/Src/stm32f4xx_hal_can.c ****         hcan->RxFifo1FullCallback = pCallback;
 612:Drivers/STM32F4xx_HAL_Driver/Src/stm32f4xx_hal_can.c ****         break;
 613:Drivers/STM32F4xx_HAL_Driver/Src/stm32f4xx_hal_can.c **** 
 614:Drivers/STM32F4xx_HAL_Driver/Src/stm32f4xx_hal_can.c ****       case HAL_CAN_SLEEP_CB_ID :
 615:Drivers/STM32F4xx_HAL_Driver/Src/stm32f4xx_hal_can.c ****         hcan->SleepCallback = pCallback;
 616:Drivers/STM32F4xx_HAL_Driver/Src/stm32f4xx_hal_can.c ****         break;
 617:Drivers/STM32F4xx_HAL_Driver/Src/stm32f4xx_hal_can.c **** 
 618:Drivers/STM32F4xx_HAL_Driver/Src/stm32f4xx_hal_can.c ****       case HAL_CAN_WAKEUP_FROM_RX_MSG_CB_ID :
 619:Drivers/STM32F4xx_HAL_Driver/Src/stm32f4xx_hal_can.c ****         hcan->WakeUpFromRxMsgCallback = pCallback;
 620:Drivers/STM32F4xx_HAL_Driver/Src/stm32f4xx_hal_can.c ****         break;
 621:Drivers/STM32F4xx_HAL_Driver/Src/stm32f4xx_hal_can.c **** 
 622:Drivers/STM32F4xx_HAL_Driver/Src/stm32f4xx_hal_can.c ****       case HAL_CAN_ERROR_CB_ID :
 623:Drivers/STM32F4xx_HAL_Driver/Src/stm32f4xx_hal_can.c ****         hcan->ErrorCallback = pCallback;
 624:Drivers/STM32F4xx_HAL_Driver/Src/stm32f4xx_hal_can.c ****         break;
 625:Drivers/STM32F4xx_HAL_Driver/Src/stm32f4xx_hal_can.c **** 
ARM GAS  C:\Users\12990\AppData\Local\Temp\ccxhiVmA.s 			page 20


 626:Drivers/STM32F4xx_HAL_Driver/Src/stm32f4xx_hal_can.c ****       case HAL_CAN_MSPINIT_CB_ID :
 627:Drivers/STM32F4xx_HAL_Driver/Src/stm32f4xx_hal_can.c ****         hcan->MspInitCallback = pCallback;
 628:Drivers/STM32F4xx_HAL_Driver/Src/stm32f4xx_hal_can.c ****         break;
 629:Drivers/STM32F4xx_HAL_Driver/Src/stm32f4xx_hal_can.c **** 
 630:Drivers/STM32F4xx_HAL_Driver/Src/stm32f4xx_hal_can.c ****       case HAL_CAN_MSPDEINIT_CB_ID :
 631:Drivers/STM32F4xx_HAL_Driver/Src/stm32f4xx_hal_can.c ****         hcan->MspDeInitCallback = pCallback;
 632:Drivers/STM32F4xx_HAL_Driver/Src/stm32f4xx_hal_can.c ****         break;
 633:Drivers/STM32F4xx_HAL_Driver/Src/stm32f4xx_hal_can.c **** 
 634:Drivers/STM32F4xx_HAL_Driver/Src/stm32f4xx_hal_can.c ****       default :
 635:Drivers/STM32F4xx_HAL_Driver/Src/stm32f4xx_hal_can.c ****         /* Update the error code */
 636:Drivers/STM32F4xx_HAL_Driver/Src/stm32f4xx_hal_can.c ****         hcan->ErrorCode |= HAL_CAN_ERROR_INVALID_CALLBACK;
 637:Drivers/STM32F4xx_HAL_Driver/Src/stm32f4xx_hal_can.c **** 
 638:Drivers/STM32F4xx_HAL_Driver/Src/stm32f4xx_hal_can.c ****         /* Return error status */
 639:Drivers/STM32F4xx_HAL_Driver/Src/stm32f4xx_hal_can.c ****         status =  HAL_ERROR;
 640:Drivers/STM32F4xx_HAL_Driver/Src/stm32f4xx_hal_can.c ****         break;
 641:Drivers/STM32F4xx_HAL_Driver/Src/stm32f4xx_hal_can.c ****     }
 642:Drivers/STM32F4xx_HAL_Driver/Src/stm32f4xx_hal_can.c ****   }
 643:Drivers/STM32F4xx_HAL_Driver/Src/stm32f4xx_hal_can.c ****   else if (hcan->State == HAL_CAN_STATE_RESET)
 644:Drivers/STM32F4xx_HAL_Driver/Src/stm32f4xx_hal_can.c ****   {
 645:Drivers/STM32F4xx_HAL_Driver/Src/stm32f4xx_hal_can.c ****     switch (CallbackID)
 646:Drivers/STM32F4xx_HAL_Driver/Src/stm32f4xx_hal_can.c ****     {
 647:Drivers/STM32F4xx_HAL_Driver/Src/stm32f4xx_hal_can.c ****       case HAL_CAN_MSPINIT_CB_ID :
 648:Drivers/STM32F4xx_HAL_Driver/Src/stm32f4xx_hal_can.c ****         hcan->MspInitCallback = pCallback;
 649:Drivers/STM32F4xx_HAL_Driver/Src/stm32f4xx_hal_can.c ****         break;
 650:Drivers/STM32F4xx_HAL_Driver/Src/stm32f4xx_hal_can.c **** 
 651:Drivers/STM32F4xx_HAL_Driver/Src/stm32f4xx_hal_can.c ****       case HAL_CAN_MSPDEINIT_CB_ID :
 652:Drivers/STM32F4xx_HAL_Driver/Src/stm32f4xx_hal_can.c ****         hcan->MspDeInitCallback = pCallback;
 653:Drivers/STM32F4xx_HAL_Driver/Src/stm32f4xx_hal_can.c ****         break;
 654:Drivers/STM32F4xx_HAL_Driver/Src/stm32f4xx_hal_can.c **** 
 655:Drivers/STM32F4xx_HAL_Driver/Src/stm32f4xx_hal_can.c ****       default :
 656:Drivers/STM32F4xx_HAL_Driver/Src/stm32f4xx_hal_can.c ****         /* Update the error code */
 657:Drivers/STM32F4xx_HAL_Driver/Src/stm32f4xx_hal_can.c ****         hcan->ErrorCode |= HAL_CAN_ERROR_INVALID_CALLBACK;
 658:Drivers/STM32F4xx_HAL_Driver/Src/stm32f4xx_hal_can.c **** 
 659:Drivers/STM32F4xx_HAL_Driver/Src/stm32f4xx_hal_can.c ****         /* Return error status */
 660:Drivers/STM32F4xx_HAL_Driver/Src/stm32f4xx_hal_can.c ****         status =  HAL_ERROR;
 661:Drivers/STM32F4xx_HAL_Driver/Src/stm32f4xx_hal_can.c ****         break;
 662:Drivers/STM32F4xx_HAL_Driver/Src/stm32f4xx_hal_can.c ****     }
 663:Drivers/STM32F4xx_HAL_Driver/Src/stm32f4xx_hal_can.c ****   }
 664:Drivers/STM32F4xx_HAL_Driver/Src/stm32f4xx_hal_can.c ****   else
 665:Drivers/STM32F4xx_HAL_Driver/Src/stm32f4xx_hal_can.c ****   {
 666:Drivers/STM32F4xx_HAL_Driver/Src/stm32f4xx_hal_can.c ****     /* Update the error code */
 667:Drivers/STM32F4xx_HAL_Driver/Src/stm32f4xx_hal_can.c ****     hcan->ErrorCode |= HAL_CAN_ERROR_INVALID_CALLBACK;
 668:Drivers/STM32F4xx_HAL_Driver/Src/stm32f4xx_hal_can.c **** 
 669:Drivers/STM32F4xx_HAL_Driver/Src/stm32f4xx_hal_can.c ****     /* Return error status */
 670:Drivers/STM32F4xx_HAL_Driver/Src/stm32f4xx_hal_can.c ****     status =  HAL_ERROR;
 671:Drivers/STM32F4xx_HAL_Driver/Src/stm32f4xx_hal_can.c ****   }
 672:Drivers/STM32F4xx_HAL_Driver/Src/stm32f4xx_hal_can.c **** 
 673:Drivers/STM32F4xx_HAL_Driver/Src/stm32f4xx_hal_can.c ****   return status;
 674:Drivers/STM32F4xx_HAL_Driver/Src/stm32f4xx_hal_can.c **** }
 675:Drivers/STM32F4xx_HAL_Driver/Src/stm32f4xx_hal_can.c **** 
 676:Drivers/STM32F4xx_HAL_Driver/Src/stm32f4xx_hal_can.c **** /**
 677:Drivers/STM32F4xx_HAL_Driver/Src/stm32f4xx_hal_can.c ****   * @brief  Unregister a CAN CallBack.
 678:Drivers/STM32F4xx_HAL_Driver/Src/stm32f4xx_hal_can.c ****   *         CAN callback is redirected to the weak predefined callback
 679:Drivers/STM32F4xx_HAL_Driver/Src/stm32f4xx_hal_can.c ****   * @param  hcan pointer to a CAN_HandleTypeDef structure that contains
 680:Drivers/STM32F4xx_HAL_Driver/Src/stm32f4xx_hal_can.c ****   *         the configuration information for CAN module
 681:Drivers/STM32F4xx_HAL_Driver/Src/stm32f4xx_hal_can.c ****   * @param  CallbackID ID of the callback to be unregistered
 682:Drivers/STM32F4xx_HAL_Driver/Src/stm32f4xx_hal_can.c ****   *         This parameter can be one of the following values:
ARM GAS  C:\Users\12990\AppData\Local\Temp\ccxhiVmA.s 			page 21


 683:Drivers/STM32F4xx_HAL_Driver/Src/stm32f4xx_hal_can.c ****   *           @arg @ref HAL_CAN_TX_MAILBOX0_COMPLETE_CB_ID Tx Mailbox 0 Complete callback ID
 684:Drivers/STM32F4xx_HAL_Driver/Src/stm32f4xx_hal_can.c ****   *           @arg @ref HAL_CAN_TX_MAILBOX1_COMPLETE_CB_ID Tx Mailbox 1 Complete callback ID
 685:Drivers/STM32F4xx_HAL_Driver/Src/stm32f4xx_hal_can.c ****   *           @arg @ref HAL_CAN_TX_MAILBOX2_COMPLETE_CB_ID Tx Mailbox 2 Complete callback ID
 686:Drivers/STM32F4xx_HAL_Driver/Src/stm32f4xx_hal_can.c ****   *           @arg @ref HAL_CAN_TX_MAILBOX0_ABORT_CB_ID Tx Mailbox 0 Abort callback ID
 687:Drivers/STM32F4xx_HAL_Driver/Src/stm32f4xx_hal_can.c ****   *           @arg @ref HAL_CAN_TX_MAILBOX1_ABORT_CB_ID Tx Mailbox 1 Abort callback ID
 688:Drivers/STM32F4xx_HAL_Driver/Src/stm32f4xx_hal_can.c ****   *           @arg @ref HAL_CAN_TX_MAILBOX2_ABORT_CB_ID Tx Mailbox 2 Abort callback ID
 689:Drivers/STM32F4xx_HAL_Driver/Src/stm32f4xx_hal_can.c ****   *           @arg @ref HAL_CAN_RX_FIFO0_MSG_PENDING_CB_ID Rx Fifo 0 message pending callback ID
 690:Drivers/STM32F4xx_HAL_Driver/Src/stm32f4xx_hal_can.c ****   *           @arg @ref HAL_CAN_RX_FIFO0_FULL_CB_ID Rx Fifo 0 full callback ID
 691:Drivers/STM32F4xx_HAL_Driver/Src/stm32f4xx_hal_can.c ****   *           @arg @ref HAL_CAN_RX_FIFO1_MSG_PENDING_CB_ID Rx Fifo 1 message pending callback ID
 692:Drivers/STM32F4xx_HAL_Driver/Src/stm32f4xx_hal_can.c ****   *           @arg @ref HAL_CAN_RX_FIFO1_FULL_CB_ID Rx Fifo 1 full callback ID
 693:Drivers/STM32F4xx_HAL_Driver/Src/stm32f4xx_hal_can.c ****   *           @arg @ref HAL_CAN_SLEEP_CB_ID Sleep callback ID
 694:Drivers/STM32F4xx_HAL_Driver/Src/stm32f4xx_hal_can.c ****   *           @arg @ref HAL_CAN_WAKEUP_FROM_RX_MSG_CB_ID Wake Up from Rx message callback ID
 695:Drivers/STM32F4xx_HAL_Driver/Src/stm32f4xx_hal_can.c ****   *           @arg @ref HAL_CAN_ERROR_CB_ID Error callback ID
 696:Drivers/STM32F4xx_HAL_Driver/Src/stm32f4xx_hal_can.c ****   *           @arg @ref HAL_CAN_MSPINIT_CB_ID MspInit callback ID
 697:Drivers/STM32F4xx_HAL_Driver/Src/stm32f4xx_hal_can.c ****   *           @arg @ref HAL_CAN_MSPDEINIT_CB_ID MspDeInit callback ID
 698:Drivers/STM32F4xx_HAL_Driver/Src/stm32f4xx_hal_can.c ****   * @retval HAL status
 699:Drivers/STM32F4xx_HAL_Driver/Src/stm32f4xx_hal_can.c ****   */
 700:Drivers/STM32F4xx_HAL_Driver/Src/stm32f4xx_hal_can.c **** HAL_StatusTypeDef HAL_CAN_UnRegisterCallback(CAN_HandleTypeDef *hcan, HAL_CAN_CallbackIDTypeDef Cal
 701:Drivers/STM32F4xx_HAL_Driver/Src/stm32f4xx_hal_can.c **** {
 702:Drivers/STM32F4xx_HAL_Driver/Src/stm32f4xx_hal_can.c ****   HAL_StatusTypeDef status = HAL_OK;
 703:Drivers/STM32F4xx_HAL_Driver/Src/stm32f4xx_hal_can.c **** 
 704:Drivers/STM32F4xx_HAL_Driver/Src/stm32f4xx_hal_can.c ****   if (hcan->State == HAL_CAN_STATE_READY)
 705:Drivers/STM32F4xx_HAL_Driver/Src/stm32f4xx_hal_can.c ****   {
 706:Drivers/STM32F4xx_HAL_Driver/Src/stm32f4xx_hal_can.c ****     switch (CallbackID)
 707:Drivers/STM32F4xx_HAL_Driver/Src/stm32f4xx_hal_can.c ****     {
 708:Drivers/STM32F4xx_HAL_Driver/Src/stm32f4xx_hal_can.c ****       case HAL_CAN_TX_MAILBOX0_COMPLETE_CB_ID :
 709:Drivers/STM32F4xx_HAL_Driver/Src/stm32f4xx_hal_can.c ****         hcan->TxMailbox0CompleteCallback = HAL_CAN_TxMailbox0CompleteCallback;
 710:Drivers/STM32F4xx_HAL_Driver/Src/stm32f4xx_hal_can.c ****         break;
 711:Drivers/STM32F4xx_HAL_Driver/Src/stm32f4xx_hal_can.c **** 
 712:Drivers/STM32F4xx_HAL_Driver/Src/stm32f4xx_hal_can.c ****       case HAL_CAN_TX_MAILBOX1_COMPLETE_CB_ID :
 713:Drivers/STM32F4xx_HAL_Driver/Src/stm32f4xx_hal_can.c ****         hcan->TxMailbox1CompleteCallback = HAL_CAN_TxMailbox1CompleteCallback;
 714:Drivers/STM32F4xx_HAL_Driver/Src/stm32f4xx_hal_can.c ****         break;
 715:Drivers/STM32F4xx_HAL_Driver/Src/stm32f4xx_hal_can.c **** 
 716:Drivers/STM32F4xx_HAL_Driver/Src/stm32f4xx_hal_can.c ****       case HAL_CAN_TX_MAILBOX2_COMPLETE_CB_ID :
 717:Drivers/STM32F4xx_HAL_Driver/Src/stm32f4xx_hal_can.c ****         hcan->TxMailbox2CompleteCallback = HAL_CAN_TxMailbox2CompleteCallback;
 718:Drivers/STM32F4xx_HAL_Driver/Src/stm32f4xx_hal_can.c ****         break;
 719:Drivers/STM32F4xx_HAL_Driver/Src/stm32f4xx_hal_can.c **** 
 720:Drivers/STM32F4xx_HAL_Driver/Src/stm32f4xx_hal_can.c ****       case HAL_CAN_TX_MAILBOX0_ABORT_CB_ID :
 721:Drivers/STM32F4xx_HAL_Driver/Src/stm32f4xx_hal_can.c ****         hcan->TxMailbox0AbortCallback = HAL_CAN_TxMailbox0AbortCallback;
 722:Drivers/STM32F4xx_HAL_Driver/Src/stm32f4xx_hal_can.c ****         break;
 723:Drivers/STM32F4xx_HAL_Driver/Src/stm32f4xx_hal_can.c **** 
 724:Drivers/STM32F4xx_HAL_Driver/Src/stm32f4xx_hal_can.c ****       case HAL_CAN_TX_MAILBOX1_ABORT_CB_ID :
 725:Drivers/STM32F4xx_HAL_Driver/Src/stm32f4xx_hal_can.c ****         hcan->TxMailbox1AbortCallback = HAL_CAN_TxMailbox1AbortCallback;
 726:Drivers/STM32F4xx_HAL_Driver/Src/stm32f4xx_hal_can.c ****         break;
 727:Drivers/STM32F4xx_HAL_Driver/Src/stm32f4xx_hal_can.c **** 
 728:Drivers/STM32F4xx_HAL_Driver/Src/stm32f4xx_hal_can.c ****       case HAL_CAN_TX_MAILBOX2_ABORT_CB_ID :
 729:Drivers/STM32F4xx_HAL_Driver/Src/stm32f4xx_hal_can.c ****         hcan->TxMailbox2AbortCallback = HAL_CAN_TxMailbox2AbortCallback;
 730:Drivers/STM32F4xx_HAL_Driver/Src/stm32f4xx_hal_can.c ****         break;
 731:Drivers/STM32F4xx_HAL_Driver/Src/stm32f4xx_hal_can.c **** 
 732:Drivers/STM32F4xx_HAL_Driver/Src/stm32f4xx_hal_can.c ****       case HAL_CAN_RX_FIFO0_MSG_PENDING_CB_ID :
 733:Drivers/STM32F4xx_HAL_Driver/Src/stm32f4xx_hal_can.c ****         hcan->RxFifo0MsgPendingCallback = HAL_CAN_RxFifo0MsgPendingCallback;
 734:Drivers/STM32F4xx_HAL_Driver/Src/stm32f4xx_hal_can.c ****         break;
 735:Drivers/STM32F4xx_HAL_Driver/Src/stm32f4xx_hal_can.c **** 
 736:Drivers/STM32F4xx_HAL_Driver/Src/stm32f4xx_hal_can.c ****       case HAL_CAN_RX_FIFO0_FULL_CB_ID :
 737:Drivers/STM32F4xx_HAL_Driver/Src/stm32f4xx_hal_can.c ****         hcan->RxFifo0FullCallback = HAL_CAN_RxFifo0FullCallback;
 738:Drivers/STM32F4xx_HAL_Driver/Src/stm32f4xx_hal_can.c ****         break;
 739:Drivers/STM32F4xx_HAL_Driver/Src/stm32f4xx_hal_can.c **** 
ARM GAS  C:\Users\12990\AppData\Local\Temp\ccxhiVmA.s 			page 22


 740:Drivers/STM32F4xx_HAL_Driver/Src/stm32f4xx_hal_can.c ****       case HAL_CAN_RX_FIFO1_MSG_PENDING_CB_ID :
 741:Drivers/STM32F4xx_HAL_Driver/Src/stm32f4xx_hal_can.c ****         hcan->RxFifo1MsgPendingCallback = HAL_CAN_RxFifo1MsgPendingCallback;
 742:Drivers/STM32F4xx_HAL_Driver/Src/stm32f4xx_hal_can.c ****         break;
 743:Drivers/STM32F4xx_HAL_Driver/Src/stm32f4xx_hal_can.c **** 
 744:Drivers/STM32F4xx_HAL_Driver/Src/stm32f4xx_hal_can.c ****       case HAL_CAN_RX_FIFO1_FULL_CB_ID :
 745:Drivers/STM32F4xx_HAL_Driver/Src/stm32f4xx_hal_can.c ****         hcan->RxFifo1FullCallback = HAL_CAN_RxFifo1FullCallback;
 746:Drivers/STM32F4xx_HAL_Driver/Src/stm32f4xx_hal_can.c ****         break;
 747:Drivers/STM32F4xx_HAL_Driver/Src/stm32f4xx_hal_can.c **** 
 748:Drivers/STM32F4xx_HAL_Driver/Src/stm32f4xx_hal_can.c ****       case HAL_CAN_SLEEP_CB_ID :
 749:Drivers/STM32F4xx_HAL_Driver/Src/stm32f4xx_hal_can.c ****         hcan->SleepCallback = HAL_CAN_SleepCallback;
 750:Drivers/STM32F4xx_HAL_Driver/Src/stm32f4xx_hal_can.c ****         break;
 751:Drivers/STM32F4xx_HAL_Driver/Src/stm32f4xx_hal_can.c **** 
 752:Drivers/STM32F4xx_HAL_Driver/Src/stm32f4xx_hal_can.c ****       case HAL_CAN_WAKEUP_FROM_RX_MSG_CB_ID :
 753:Drivers/STM32F4xx_HAL_Driver/Src/stm32f4xx_hal_can.c ****         hcan->WakeUpFromRxMsgCallback = HAL_CAN_WakeUpFromRxMsgCallback;
 754:Drivers/STM32F4xx_HAL_Driver/Src/stm32f4xx_hal_can.c ****         break;
 755:Drivers/STM32F4xx_HAL_Driver/Src/stm32f4xx_hal_can.c **** 
 756:Drivers/STM32F4xx_HAL_Driver/Src/stm32f4xx_hal_can.c ****       case HAL_CAN_ERROR_CB_ID :
 757:Drivers/STM32F4xx_HAL_Driver/Src/stm32f4xx_hal_can.c ****         hcan->ErrorCallback = HAL_CAN_ErrorCallback;
 758:Drivers/STM32F4xx_HAL_Driver/Src/stm32f4xx_hal_can.c ****         break;
 759:Drivers/STM32F4xx_HAL_Driver/Src/stm32f4xx_hal_can.c **** 
 760:Drivers/STM32F4xx_HAL_Driver/Src/stm32f4xx_hal_can.c ****       case HAL_CAN_MSPINIT_CB_ID :
 761:Drivers/STM32F4xx_HAL_Driver/Src/stm32f4xx_hal_can.c ****         hcan->MspInitCallback = HAL_CAN_MspInit;
 762:Drivers/STM32F4xx_HAL_Driver/Src/stm32f4xx_hal_can.c ****         break;
 763:Drivers/STM32F4xx_HAL_Driver/Src/stm32f4xx_hal_can.c **** 
 764:Drivers/STM32F4xx_HAL_Driver/Src/stm32f4xx_hal_can.c ****       case HAL_CAN_MSPDEINIT_CB_ID :
 765:Drivers/STM32F4xx_HAL_Driver/Src/stm32f4xx_hal_can.c ****         hcan->MspDeInitCallback = HAL_CAN_MspDeInit;
 766:Drivers/STM32F4xx_HAL_Driver/Src/stm32f4xx_hal_can.c ****         break;
 767:Drivers/STM32F4xx_HAL_Driver/Src/stm32f4xx_hal_can.c **** 
 768:Drivers/STM32F4xx_HAL_Driver/Src/stm32f4xx_hal_can.c ****       default :
 769:Drivers/STM32F4xx_HAL_Driver/Src/stm32f4xx_hal_can.c ****         /* Update the error code */
 770:Drivers/STM32F4xx_HAL_Driver/Src/stm32f4xx_hal_can.c ****         hcan->ErrorCode |= HAL_CAN_ERROR_INVALID_CALLBACK;
 771:Drivers/STM32F4xx_HAL_Driver/Src/stm32f4xx_hal_can.c **** 
 772:Drivers/STM32F4xx_HAL_Driver/Src/stm32f4xx_hal_can.c ****         /* Return error status */
 773:Drivers/STM32F4xx_HAL_Driver/Src/stm32f4xx_hal_can.c ****         status =  HAL_ERROR;
 774:Drivers/STM32F4xx_HAL_Driver/Src/stm32f4xx_hal_can.c ****         break;
 775:Drivers/STM32F4xx_HAL_Driver/Src/stm32f4xx_hal_can.c ****     }
 776:Drivers/STM32F4xx_HAL_Driver/Src/stm32f4xx_hal_can.c ****   }
 777:Drivers/STM32F4xx_HAL_Driver/Src/stm32f4xx_hal_can.c ****   else if (hcan->State == HAL_CAN_STATE_RESET)
 778:Drivers/STM32F4xx_HAL_Driver/Src/stm32f4xx_hal_can.c ****   {
 779:Drivers/STM32F4xx_HAL_Driver/Src/stm32f4xx_hal_can.c ****     switch (CallbackID)
 780:Drivers/STM32F4xx_HAL_Driver/Src/stm32f4xx_hal_can.c ****     {
 781:Drivers/STM32F4xx_HAL_Driver/Src/stm32f4xx_hal_can.c ****       case HAL_CAN_MSPINIT_CB_ID :
 782:Drivers/STM32F4xx_HAL_Driver/Src/stm32f4xx_hal_can.c ****         hcan->MspInitCallback = HAL_CAN_MspInit;
 783:Drivers/STM32F4xx_HAL_Driver/Src/stm32f4xx_hal_can.c ****         break;
 784:Drivers/STM32F4xx_HAL_Driver/Src/stm32f4xx_hal_can.c **** 
 785:Drivers/STM32F4xx_HAL_Driver/Src/stm32f4xx_hal_can.c ****       case HAL_CAN_MSPDEINIT_CB_ID :
 786:Drivers/STM32F4xx_HAL_Driver/Src/stm32f4xx_hal_can.c ****         hcan->MspDeInitCallback = HAL_CAN_MspDeInit;
 787:Drivers/STM32F4xx_HAL_Driver/Src/stm32f4xx_hal_can.c ****         break;
 788:Drivers/STM32F4xx_HAL_Driver/Src/stm32f4xx_hal_can.c **** 
 789:Drivers/STM32F4xx_HAL_Driver/Src/stm32f4xx_hal_can.c ****       default :
 790:Drivers/STM32F4xx_HAL_Driver/Src/stm32f4xx_hal_can.c ****         /* Update the error code */
 791:Drivers/STM32F4xx_HAL_Driver/Src/stm32f4xx_hal_can.c ****         hcan->ErrorCode |= HAL_CAN_ERROR_INVALID_CALLBACK;
 792:Drivers/STM32F4xx_HAL_Driver/Src/stm32f4xx_hal_can.c **** 
 793:Drivers/STM32F4xx_HAL_Driver/Src/stm32f4xx_hal_can.c ****         /* Return error status */
 794:Drivers/STM32F4xx_HAL_Driver/Src/stm32f4xx_hal_can.c ****         status =  HAL_ERROR;
 795:Drivers/STM32F4xx_HAL_Driver/Src/stm32f4xx_hal_can.c ****         break;
 796:Drivers/STM32F4xx_HAL_Driver/Src/stm32f4xx_hal_can.c ****     }
ARM GAS  C:\Users\12990\AppData\Local\Temp\ccxhiVmA.s 			page 23


 797:Drivers/STM32F4xx_HAL_Driver/Src/stm32f4xx_hal_can.c ****   }
 798:Drivers/STM32F4xx_HAL_Driver/Src/stm32f4xx_hal_can.c ****   else
 799:Drivers/STM32F4xx_HAL_Driver/Src/stm32f4xx_hal_can.c ****   {
 800:Drivers/STM32F4xx_HAL_Driver/Src/stm32f4xx_hal_can.c ****     /* Update the error code */
 801:Drivers/STM32F4xx_HAL_Driver/Src/stm32f4xx_hal_can.c ****     hcan->ErrorCode |= HAL_CAN_ERROR_INVALID_CALLBACK;
 802:Drivers/STM32F4xx_HAL_Driver/Src/stm32f4xx_hal_can.c **** 
 803:Drivers/STM32F4xx_HAL_Driver/Src/stm32f4xx_hal_can.c ****     /* Return error status */
 804:Drivers/STM32F4xx_HAL_Driver/Src/stm32f4xx_hal_can.c ****     status =  HAL_ERROR;
 805:Drivers/STM32F4xx_HAL_Driver/Src/stm32f4xx_hal_can.c ****   }
 806:Drivers/STM32F4xx_HAL_Driver/Src/stm32f4xx_hal_can.c **** 
 807:Drivers/STM32F4xx_HAL_Driver/Src/stm32f4xx_hal_can.c ****   return status;
 808:Drivers/STM32F4xx_HAL_Driver/Src/stm32f4xx_hal_can.c **** }
 809:Drivers/STM32F4xx_HAL_Driver/Src/stm32f4xx_hal_can.c **** #endif /* USE_HAL_CAN_REGISTER_CALLBACKS */
 810:Drivers/STM32F4xx_HAL_Driver/Src/stm32f4xx_hal_can.c **** 
 811:Drivers/STM32F4xx_HAL_Driver/Src/stm32f4xx_hal_can.c **** /**
 812:Drivers/STM32F4xx_HAL_Driver/Src/stm32f4xx_hal_can.c ****   * @}
 813:Drivers/STM32F4xx_HAL_Driver/Src/stm32f4xx_hal_can.c ****   */
 814:Drivers/STM32F4xx_HAL_Driver/Src/stm32f4xx_hal_can.c **** 
 815:Drivers/STM32F4xx_HAL_Driver/Src/stm32f4xx_hal_can.c **** /** @defgroup CAN_Exported_Functions_Group2 Configuration functions
 816:Drivers/STM32F4xx_HAL_Driver/Src/stm32f4xx_hal_can.c ****  *  @brief    Configuration functions.
 817:Drivers/STM32F4xx_HAL_Driver/Src/stm32f4xx_hal_can.c ****  *
 818:Drivers/STM32F4xx_HAL_Driver/Src/stm32f4xx_hal_can.c **** @verbatim
 819:Drivers/STM32F4xx_HAL_Driver/Src/stm32f4xx_hal_can.c ****   ==============================================================================
 820:Drivers/STM32F4xx_HAL_Driver/Src/stm32f4xx_hal_can.c ****               ##### Configuration functions #####
 821:Drivers/STM32F4xx_HAL_Driver/Src/stm32f4xx_hal_can.c ****   ==============================================================================
 822:Drivers/STM32F4xx_HAL_Driver/Src/stm32f4xx_hal_can.c ****     [..]  This section provides functions allowing to:
 823:Drivers/STM32F4xx_HAL_Driver/Src/stm32f4xx_hal_can.c ****       (+) HAL_CAN_ConfigFilter            : Configure the CAN reception filters
 824:Drivers/STM32F4xx_HAL_Driver/Src/stm32f4xx_hal_can.c **** 
 825:Drivers/STM32F4xx_HAL_Driver/Src/stm32f4xx_hal_can.c **** @endverbatim
 826:Drivers/STM32F4xx_HAL_Driver/Src/stm32f4xx_hal_can.c ****   * @{
 827:Drivers/STM32F4xx_HAL_Driver/Src/stm32f4xx_hal_can.c ****   */
 828:Drivers/STM32F4xx_HAL_Driver/Src/stm32f4xx_hal_can.c **** 
 829:Drivers/STM32F4xx_HAL_Driver/Src/stm32f4xx_hal_can.c **** /**
 830:Drivers/STM32F4xx_HAL_Driver/Src/stm32f4xx_hal_can.c ****   * @brief  Configures the CAN reception filter according to the specified
 831:Drivers/STM32F4xx_HAL_Driver/Src/stm32f4xx_hal_can.c ****   *         parameters in the CAN_FilterInitStruct.
 832:Drivers/STM32F4xx_HAL_Driver/Src/stm32f4xx_hal_can.c ****   * @param  hcan pointer to a CAN_HandleTypeDef structure that contains
 833:Drivers/STM32F4xx_HAL_Driver/Src/stm32f4xx_hal_can.c ****   *         the configuration information for the specified CAN.
 834:Drivers/STM32F4xx_HAL_Driver/Src/stm32f4xx_hal_can.c ****   * @param  sFilterConfig pointer to a CAN_FilterTypeDef structure that
 835:Drivers/STM32F4xx_HAL_Driver/Src/stm32f4xx_hal_can.c ****   *         contains the filter configuration information.
 836:Drivers/STM32F4xx_HAL_Driver/Src/stm32f4xx_hal_can.c ****   * @retval None
 837:Drivers/STM32F4xx_HAL_Driver/Src/stm32f4xx_hal_can.c ****   */
 838:Drivers/STM32F4xx_HAL_Driver/Src/stm32f4xx_hal_can.c **** HAL_StatusTypeDef HAL_CAN_ConfigFilter(CAN_HandleTypeDef *hcan, CAN_FilterTypeDef *sFilterConfig)
 839:Drivers/STM32F4xx_HAL_Driver/Src/stm32f4xx_hal_can.c **** {
 368              		.loc 1 839 1 is_stmt 1 view -0
 369              		.cfi_startproc
 370              		@ args = 0, pretend = 0, frame = 0
 371              		@ frame_needed = 0, uses_anonymous_args = 0
 840:Drivers/STM32F4xx_HAL_Driver/Src/stm32f4xx_hal_can.c ****   uint32_t filternbrbitpos;
 372              		.loc 1 840 3 view .LVU105
 841:Drivers/STM32F4xx_HAL_Driver/Src/stm32f4xx_hal_can.c ****   CAN_TypeDef *can_ip = hcan->Instance;
 373              		.loc 1 841 3 view .LVU106
 842:Drivers/STM32F4xx_HAL_Driver/Src/stm32f4xx_hal_can.c ****   HAL_CAN_StateTypeDef state = hcan->State;
 374              		.loc 1 842 3 view .LVU107
 375              		.loc 1 842 24 is_stmt 0 view .LVU108
 376 0000 90F82030 		ldrb	r3, [r0, #32]	@ zero_extendqisi2
 377              	.LVL16:
 843:Drivers/STM32F4xx_HAL_Driver/Src/stm32f4xx_hal_can.c **** 
ARM GAS  C:\Users\12990\AppData\Local\Temp\ccxhiVmA.s 			page 24


 844:Drivers/STM32F4xx_HAL_Driver/Src/stm32f4xx_hal_can.c ****   if ((state == HAL_CAN_STATE_READY) ||
 378              		.loc 1 844 3 is_stmt 1 view .LVU109
 379              		.loc 1 844 38 is_stmt 0 view .LVU110
 380 0004 013B     		subs	r3, r3, #1
 381              	.LVL17:
 382              		.loc 1 844 38 view .LVU111
 383 0006 DBB2     		uxtb	r3, r3
 384              		.loc 1 844 6 view .LVU112
 385 0008 012B     		cmp	r3, #1
 386 000a 05D9     		bls	.L50
 845:Drivers/STM32F4xx_HAL_Driver/Src/stm32f4xx_hal_can.c ****       (state == HAL_CAN_STATE_LISTENING))
 846:Drivers/STM32F4xx_HAL_Driver/Src/stm32f4xx_hal_can.c ****   {
 847:Drivers/STM32F4xx_HAL_Driver/Src/stm32f4xx_hal_can.c ****     /* Check the parameters */
 848:Drivers/STM32F4xx_HAL_Driver/Src/stm32f4xx_hal_can.c ****     assert_param(IS_CAN_FILTER_ID_HALFWORD(sFilterConfig->FilterIdHigh));
 849:Drivers/STM32F4xx_HAL_Driver/Src/stm32f4xx_hal_can.c ****     assert_param(IS_CAN_FILTER_ID_HALFWORD(sFilterConfig->FilterIdLow));
 850:Drivers/STM32F4xx_HAL_Driver/Src/stm32f4xx_hal_can.c ****     assert_param(IS_CAN_FILTER_ID_HALFWORD(sFilterConfig->FilterMaskIdHigh));
 851:Drivers/STM32F4xx_HAL_Driver/Src/stm32f4xx_hal_can.c ****     assert_param(IS_CAN_FILTER_ID_HALFWORD(sFilterConfig->FilterMaskIdLow));
 852:Drivers/STM32F4xx_HAL_Driver/Src/stm32f4xx_hal_can.c ****     assert_param(IS_CAN_FILTER_MODE(sFilterConfig->FilterMode));
 853:Drivers/STM32F4xx_HAL_Driver/Src/stm32f4xx_hal_can.c ****     assert_param(IS_CAN_FILTER_SCALE(sFilterConfig->FilterScale));
 854:Drivers/STM32F4xx_HAL_Driver/Src/stm32f4xx_hal_can.c ****     assert_param(IS_CAN_FILTER_FIFO(sFilterConfig->FilterFIFOAssignment));
 855:Drivers/STM32F4xx_HAL_Driver/Src/stm32f4xx_hal_can.c ****     assert_param(IS_CAN_FILTER_ACTIVATION(sFilterConfig->FilterActivation));
 856:Drivers/STM32F4xx_HAL_Driver/Src/stm32f4xx_hal_can.c **** 
 857:Drivers/STM32F4xx_HAL_Driver/Src/stm32f4xx_hal_can.c **** #if defined(CAN3)
 858:Drivers/STM32F4xx_HAL_Driver/Src/stm32f4xx_hal_can.c ****     /* Check the CAN instance */
 859:Drivers/STM32F4xx_HAL_Driver/Src/stm32f4xx_hal_can.c ****     if (hcan->Instance == CAN3)
 860:Drivers/STM32F4xx_HAL_Driver/Src/stm32f4xx_hal_can.c ****     {
 861:Drivers/STM32F4xx_HAL_Driver/Src/stm32f4xx_hal_can.c ****       /* CAN3 is single instance with 14 dedicated filters banks */
 862:Drivers/STM32F4xx_HAL_Driver/Src/stm32f4xx_hal_can.c **** 
 863:Drivers/STM32F4xx_HAL_Driver/Src/stm32f4xx_hal_can.c ****       /* Check the parameters */
 864:Drivers/STM32F4xx_HAL_Driver/Src/stm32f4xx_hal_can.c ****       assert_param(IS_CAN_FILTER_BANK_SINGLE(sFilterConfig->FilterBank));
 865:Drivers/STM32F4xx_HAL_Driver/Src/stm32f4xx_hal_can.c ****     }
 866:Drivers/STM32F4xx_HAL_Driver/Src/stm32f4xx_hal_can.c ****     else
 867:Drivers/STM32F4xx_HAL_Driver/Src/stm32f4xx_hal_can.c ****     {
 868:Drivers/STM32F4xx_HAL_Driver/Src/stm32f4xx_hal_can.c ****       /* CAN1 and CAN2 are dual instances with 28 common filters banks */
 869:Drivers/STM32F4xx_HAL_Driver/Src/stm32f4xx_hal_can.c ****       /* Select master instance to access the filter banks */
 870:Drivers/STM32F4xx_HAL_Driver/Src/stm32f4xx_hal_can.c ****       can_ip = CAN1;
 871:Drivers/STM32F4xx_HAL_Driver/Src/stm32f4xx_hal_can.c **** 
 872:Drivers/STM32F4xx_HAL_Driver/Src/stm32f4xx_hal_can.c ****       /* Check the parameters */
 873:Drivers/STM32F4xx_HAL_Driver/Src/stm32f4xx_hal_can.c ****       assert_param(IS_CAN_FILTER_BANK_DUAL(sFilterConfig->FilterBank));
 874:Drivers/STM32F4xx_HAL_Driver/Src/stm32f4xx_hal_can.c ****       assert_param(IS_CAN_FILTER_BANK_DUAL(sFilterConfig->SlaveStartFilterBank));
 875:Drivers/STM32F4xx_HAL_Driver/Src/stm32f4xx_hal_can.c ****     }
 876:Drivers/STM32F4xx_HAL_Driver/Src/stm32f4xx_hal_can.c **** #elif defined(CAN2)
 877:Drivers/STM32F4xx_HAL_Driver/Src/stm32f4xx_hal_can.c ****     /* CAN1 and CAN2 are dual instances with 28 common filters banks */
 878:Drivers/STM32F4xx_HAL_Driver/Src/stm32f4xx_hal_can.c ****     /* Select master instance to access the filter banks */
 879:Drivers/STM32F4xx_HAL_Driver/Src/stm32f4xx_hal_can.c ****     can_ip = CAN1;
 880:Drivers/STM32F4xx_HAL_Driver/Src/stm32f4xx_hal_can.c **** 
 881:Drivers/STM32F4xx_HAL_Driver/Src/stm32f4xx_hal_can.c ****     /* Check the parameters */
 882:Drivers/STM32F4xx_HAL_Driver/Src/stm32f4xx_hal_can.c ****     assert_param(IS_CAN_FILTER_BANK_DUAL(sFilterConfig->FilterBank));
 883:Drivers/STM32F4xx_HAL_Driver/Src/stm32f4xx_hal_can.c ****     assert_param(IS_CAN_FILTER_BANK_DUAL(sFilterConfig->SlaveStartFilterBank));
 884:Drivers/STM32F4xx_HAL_Driver/Src/stm32f4xx_hal_can.c **** #else
 885:Drivers/STM32F4xx_HAL_Driver/Src/stm32f4xx_hal_can.c ****     /* CAN1 is single instance with 14 dedicated filters banks */
 886:Drivers/STM32F4xx_HAL_Driver/Src/stm32f4xx_hal_can.c **** 
 887:Drivers/STM32F4xx_HAL_Driver/Src/stm32f4xx_hal_can.c ****     /* Check the parameters */
 888:Drivers/STM32F4xx_HAL_Driver/Src/stm32f4xx_hal_can.c ****     assert_param(IS_CAN_FILTER_BANK_SINGLE(sFilterConfig->FilterBank));
 889:Drivers/STM32F4xx_HAL_Driver/Src/stm32f4xx_hal_can.c **** #endif
 890:Drivers/STM32F4xx_HAL_Driver/Src/stm32f4xx_hal_can.c **** 
 891:Drivers/STM32F4xx_HAL_Driver/Src/stm32f4xx_hal_can.c ****     /* Initialisation mode for the filter */
ARM GAS  C:\Users\12990\AppData\Local\Temp\ccxhiVmA.s 			page 25


 892:Drivers/STM32F4xx_HAL_Driver/Src/stm32f4xx_hal_can.c ****     SET_BIT(can_ip->FMR, CAN_FMR_FINIT);
 893:Drivers/STM32F4xx_HAL_Driver/Src/stm32f4xx_hal_can.c **** 
 894:Drivers/STM32F4xx_HAL_Driver/Src/stm32f4xx_hal_can.c **** #if defined(CAN3)
 895:Drivers/STM32F4xx_HAL_Driver/Src/stm32f4xx_hal_can.c ****     /* Check the CAN instance */
 896:Drivers/STM32F4xx_HAL_Driver/Src/stm32f4xx_hal_can.c ****     if (can_ip == CAN1)
 897:Drivers/STM32F4xx_HAL_Driver/Src/stm32f4xx_hal_can.c ****     {
 898:Drivers/STM32F4xx_HAL_Driver/Src/stm32f4xx_hal_can.c ****       /* Select the start filter number of CAN2 slave instance */
 899:Drivers/STM32F4xx_HAL_Driver/Src/stm32f4xx_hal_can.c ****       CLEAR_BIT(can_ip->FMR, CAN_FMR_CAN2SB);
 900:Drivers/STM32F4xx_HAL_Driver/Src/stm32f4xx_hal_can.c ****       SET_BIT(can_ip->FMR, sFilterConfig->SlaveStartFilterBank << CAN_FMR_CAN2SB_Pos);
 901:Drivers/STM32F4xx_HAL_Driver/Src/stm32f4xx_hal_can.c ****     }
 902:Drivers/STM32F4xx_HAL_Driver/Src/stm32f4xx_hal_can.c **** 
 903:Drivers/STM32F4xx_HAL_Driver/Src/stm32f4xx_hal_can.c **** #elif defined(CAN2)
 904:Drivers/STM32F4xx_HAL_Driver/Src/stm32f4xx_hal_can.c ****     /* Select the start filter number of CAN2 slave instance */
 905:Drivers/STM32F4xx_HAL_Driver/Src/stm32f4xx_hal_can.c ****     CLEAR_BIT(can_ip->FMR, CAN_FMR_CAN2SB);
 906:Drivers/STM32F4xx_HAL_Driver/Src/stm32f4xx_hal_can.c ****     SET_BIT(can_ip->FMR, sFilterConfig->SlaveStartFilterBank << CAN_FMR_CAN2SB_Pos);
 907:Drivers/STM32F4xx_HAL_Driver/Src/stm32f4xx_hal_can.c **** 
 908:Drivers/STM32F4xx_HAL_Driver/Src/stm32f4xx_hal_can.c **** #endif
 909:Drivers/STM32F4xx_HAL_Driver/Src/stm32f4xx_hal_can.c ****     /* Convert filter number into bit position */
 910:Drivers/STM32F4xx_HAL_Driver/Src/stm32f4xx_hal_can.c ****     filternbrbitpos = (uint32_t)1 << (sFilterConfig->FilterBank & 0x1FU);
 911:Drivers/STM32F4xx_HAL_Driver/Src/stm32f4xx_hal_can.c **** 
 912:Drivers/STM32F4xx_HAL_Driver/Src/stm32f4xx_hal_can.c ****     /* Filter Deactivation */
 913:Drivers/STM32F4xx_HAL_Driver/Src/stm32f4xx_hal_can.c ****     CLEAR_BIT(can_ip->FA1R, filternbrbitpos);
 914:Drivers/STM32F4xx_HAL_Driver/Src/stm32f4xx_hal_can.c **** 
 915:Drivers/STM32F4xx_HAL_Driver/Src/stm32f4xx_hal_can.c ****     /* Filter Scale */
 916:Drivers/STM32F4xx_HAL_Driver/Src/stm32f4xx_hal_can.c ****     if (sFilterConfig->FilterScale == CAN_FILTERSCALE_16BIT)
 917:Drivers/STM32F4xx_HAL_Driver/Src/stm32f4xx_hal_can.c ****     {
 918:Drivers/STM32F4xx_HAL_Driver/Src/stm32f4xx_hal_can.c ****       /* 16-bit scale for the filter */
 919:Drivers/STM32F4xx_HAL_Driver/Src/stm32f4xx_hal_can.c ****       CLEAR_BIT(can_ip->FS1R, filternbrbitpos);
 920:Drivers/STM32F4xx_HAL_Driver/Src/stm32f4xx_hal_can.c **** 
 921:Drivers/STM32F4xx_HAL_Driver/Src/stm32f4xx_hal_can.c ****       /* First 16-bit identifier and First 16-bit mask */
 922:Drivers/STM32F4xx_HAL_Driver/Src/stm32f4xx_hal_can.c ****       /* Or First 16-bit identifier and Second 16-bit identifier */
 923:Drivers/STM32F4xx_HAL_Driver/Src/stm32f4xx_hal_can.c ****       can_ip->sFilterRegister[sFilterConfig->FilterBank].FR1 =
 924:Drivers/STM32F4xx_HAL_Driver/Src/stm32f4xx_hal_can.c ****         ((0x0000FFFFU & (uint32_t)sFilterConfig->FilterMaskIdLow) << 16U) |
 925:Drivers/STM32F4xx_HAL_Driver/Src/stm32f4xx_hal_can.c ****         (0x0000FFFFU & (uint32_t)sFilterConfig->FilterIdLow);
 926:Drivers/STM32F4xx_HAL_Driver/Src/stm32f4xx_hal_can.c **** 
 927:Drivers/STM32F4xx_HAL_Driver/Src/stm32f4xx_hal_can.c ****       /* Second 16-bit identifier and Second 16-bit mask */
 928:Drivers/STM32F4xx_HAL_Driver/Src/stm32f4xx_hal_can.c ****       /* Or Third 16-bit identifier and Fourth 16-bit identifier */
 929:Drivers/STM32F4xx_HAL_Driver/Src/stm32f4xx_hal_can.c ****       can_ip->sFilterRegister[sFilterConfig->FilterBank].FR2 =
 930:Drivers/STM32F4xx_HAL_Driver/Src/stm32f4xx_hal_can.c ****         ((0x0000FFFFU & (uint32_t)sFilterConfig->FilterMaskIdHigh) << 16U) |
 931:Drivers/STM32F4xx_HAL_Driver/Src/stm32f4xx_hal_can.c ****         (0x0000FFFFU & (uint32_t)sFilterConfig->FilterIdHigh);
 932:Drivers/STM32F4xx_HAL_Driver/Src/stm32f4xx_hal_can.c ****     }
 933:Drivers/STM32F4xx_HAL_Driver/Src/stm32f4xx_hal_can.c **** 
 934:Drivers/STM32F4xx_HAL_Driver/Src/stm32f4xx_hal_can.c ****     if (sFilterConfig->FilterScale == CAN_FILTERSCALE_32BIT)
 935:Drivers/STM32F4xx_HAL_Driver/Src/stm32f4xx_hal_can.c ****     {
 936:Drivers/STM32F4xx_HAL_Driver/Src/stm32f4xx_hal_can.c ****       /* 32-bit scale for the filter */
 937:Drivers/STM32F4xx_HAL_Driver/Src/stm32f4xx_hal_can.c ****       SET_BIT(can_ip->FS1R, filternbrbitpos);
 938:Drivers/STM32F4xx_HAL_Driver/Src/stm32f4xx_hal_can.c **** 
 939:Drivers/STM32F4xx_HAL_Driver/Src/stm32f4xx_hal_can.c ****       /* 32-bit identifier or First 32-bit identifier */
 940:Drivers/STM32F4xx_HAL_Driver/Src/stm32f4xx_hal_can.c ****       can_ip->sFilterRegister[sFilterConfig->FilterBank].FR1 =
 941:Drivers/STM32F4xx_HAL_Driver/Src/stm32f4xx_hal_can.c ****         ((0x0000FFFFU & (uint32_t)sFilterConfig->FilterIdHigh) << 16U) |
 942:Drivers/STM32F4xx_HAL_Driver/Src/stm32f4xx_hal_can.c ****         (0x0000FFFFU & (uint32_t)sFilterConfig->FilterIdLow);
 943:Drivers/STM32F4xx_HAL_Driver/Src/stm32f4xx_hal_can.c **** 
 944:Drivers/STM32F4xx_HAL_Driver/Src/stm32f4xx_hal_can.c ****       /* 32-bit mask or Second 32-bit identifier */
 945:Drivers/STM32F4xx_HAL_Driver/Src/stm32f4xx_hal_can.c ****       can_ip->sFilterRegister[sFilterConfig->FilterBank].FR2 =
 946:Drivers/STM32F4xx_HAL_Driver/Src/stm32f4xx_hal_can.c ****         ((0x0000FFFFU & (uint32_t)sFilterConfig->FilterMaskIdHigh) << 16U) |
 947:Drivers/STM32F4xx_HAL_Driver/Src/stm32f4xx_hal_can.c ****         (0x0000FFFFU & (uint32_t)sFilterConfig->FilterMaskIdLow);
 948:Drivers/STM32F4xx_HAL_Driver/Src/stm32f4xx_hal_can.c ****     }
ARM GAS  C:\Users\12990\AppData\Local\Temp\ccxhiVmA.s 			page 26


 949:Drivers/STM32F4xx_HAL_Driver/Src/stm32f4xx_hal_can.c **** 
 950:Drivers/STM32F4xx_HAL_Driver/Src/stm32f4xx_hal_can.c ****     /* Filter Mode */
 951:Drivers/STM32F4xx_HAL_Driver/Src/stm32f4xx_hal_can.c ****     if (sFilterConfig->FilterMode == CAN_FILTERMODE_IDMASK)
 952:Drivers/STM32F4xx_HAL_Driver/Src/stm32f4xx_hal_can.c ****     {
 953:Drivers/STM32F4xx_HAL_Driver/Src/stm32f4xx_hal_can.c ****       /* Id/Mask mode for the filter*/
 954:Drivers/STM32F4xx_HAL_Driver/Src/stm32f4xx_hal_can.c ****       CLEAR_BIT(can_ip->FM1R, filternbrbitpos);
 955:Drivers/STM32F4xx_HAL_Driver/Src/stm32f4xx_hal_can.c ****     }
 956:Drivers/STM32F4xx_HAL_Driver/Src/stm32f4xx_hal_can.c ****     else /* CAN_FilterInitStruct->CAN_FilterMode == CAN_FilterMode_IdList */
 957:Drivers/STM32F4xx_HAL_Driver/Src/stm32f4xx_hal_can.c ****     {
 958:Drivers/STM32F4xx_HAL_Driver/Src/stm32f4xx_hal_can.c ****       /* Identifier list mode for the filter*/
 959:Drivers/STM32F4xx_HAL_Driver/Src/stm32f4xx_hal_can.c ****       SET_BIT(can_ip->FM1R, filternbrbitpos);
 960:Drivers/STM32F4xx_HAL_Driver/Src/stm32f4xx_hal_can.c ****     }
 961:Drivers/STM32F4xx_HAL_Driver/Src/stm32f4xx_hal_can.c **** 
 962:Drivers/STM32F4xx_HAL_Driver/Src/stm32f4xx_hal_can.c ****     /* Filter FIFO assignment */
 963:Drivers/STM32F4xx_HAL_Driver/Src/stm32f4xx_hal_can.c ****     if (sFilterConfig->FilterFIFOAssignment == CAN_FILTER_FIFO0)
 964:Drivers/STM32F4xx_HAL_Driver/Src/stm32f4xx_hal_can.c ****     {
 965:Drivers/STM32F4xx_HAL_Driver/Src/stm32f4xx_hal_can.c ****       /* FIFO 0 assignation for the filter */
 966:Drivers/STM32F4xx_HAL_Driver/Src/stm32f4xx_hal_can.c ****       CLEAR_BIT(can_ip->FFA1R, filternbrbitpos);
 967:Drivers/STM32F4xx_HAL_Driver/Src/stm32f4xx_hal_can.c ****     }
 968:Drivers/STM32F4xx_HAL_Driver/Src/stm32f4xx_hal_can.c ****     else
 969:Drivers/STM32F4xx_HAL_Driver/Src/stm32f4xx_hal_can.c ****     {
 970:Drivers/STM32F4xx_HAL_Driver/Src/stm32f4xx_hal_can.c ****       /* FIFO 1 assignation for the filter */
 971:Drivers/STM32F4xx_HAL_Driver/Src/stm32f4xx_hal_can.c ****       SET_BIT(can_ip->FFA1R, filternbrbitpos);
 972:Drivers/STM32F4xx_HAL_Driver/Src/stm32f4xx_hal_can.c ****     }
 973:Drivers/STM32F4xx_HAL_Driver/Src/stm32f4xx_hal_can.c **** 
 974:Drivers/STM32F4xx_HAL_Driver/Src/stm32f4xx_hal_can.c ****     /* Filter activation */
 975:Drivers/STM32F4xx_HAL_Driver/Src/stm32f4xx_hal_can.c ****     if (sFilterConfig->FilterActivation == CAN_FILTER_ENABLE)
 976:Drivers/STM32F4xx_HAL_Driver/Src/stm32f4xx_hal_can.c ****     {
 977:Drivers/STM32F4xx_HAL_Driver/Src/stm32f4xx_hal_can.c ****       SET_BIT(can_ip->FA1R, filternbrbitpos);
 978:Drivers/STM32F4xx_HAL_Driver/Src/stm32f4xx_hal_can.c ****     }
 979:Drivers/STM32F4xx_HAL_Driver/Src/stm32f4xx_hal_can.c **** 
 980:Drivers/STM32F4xx_HAL_Driver/Src/stm32f4xx_hal_can.c ****     /* Leave the initialisation mode for the filter */
 981:Drivers/STM32F4xx_HAL_Driver/Src/stm32f4xx_hal_can.c ****     CLEAR_BIT(can_ip->FMR, CAN_FMR_FINIT);
 982:Drivers/STM32F4xx_HAL_Driver/Src/stm32f4xx_hal_can.c **** 
 983:Drivers/STM32F4xx_HAL_Driver/Src/stm32f4xx_hal_can.c ****     /* Return function status */
 984:Drivers/STM32F4xx_HAL_Driver/Src/stm32f4xx_hal_can.c ****     return HAL_OK;
 985:Drivers/STM32F4xx_HAL_Driver/Src/stm32f4xx_hal_can.c ****   }
 986:Drivers/STM32F4xx_HAL_Driver/Src/stm32f4xx_hal_can.c ****   else
 987:Drivers/STM32F4xx_HAL_Driver/Src/stm32f4xx_hal_can.c ****   {
 988:Drivers/STM32F4xx_HAL_Driver/Src/stm32f4xx_hal_can.c ****     /* Update error code */
 989:Drivers/STM32F4xx_HAL_Driver/Src/stm32f4xx_hal_can.c ****     hcan->ErrorCode |= HAL_CAN_ERROR_NOT_INITIALIZED;
 387              		.loc 1 989 5 is_stmt 1 view .LVU113
 388              		.loc 1 989 21 is_stmt 0 view .LVU114
 389 000c 436A     		ldr	r3, [r0, #36]
 390 000e 43F48023 		orr	r3, r3, #262144
 391 0012 4362     		str	r3, [r0, #36]
 990:Drivers/STM32F4xx_HAL_Driver/Src/stm32f4xx_hal_can.c **** 
 991:Drivers/STM32F4xx_HAL_Driver/Src/stm32f4xx_hal_can.c ****     return HAL_ERROR;
 392              		.loc 1 991 5 is_stmt 1 view .LVU115
 393              		.loc 1 991 12 is_stmt 0 view .LVU116
 394 0014 0120     		movs	r0, #1
 395              	.LVL18:
 992:Drivers/STM32F4xx_HAL_Driver/Src/stm32f4xx_hal_can.c ****   }
 993:Drivers/STM32F4xx_HAL_Driver/Src/stm32f4xx_hal_can.c **** }
 396              		.loc 1 993 1 view .LVU117
 397 0016 7047     		bx	lr
 398              	.LVL19:
ARM GAS  C:\Users\12990\AppData\Local\Temp\ccxhiVmA.s 			page 27


 399              	.L50:
 839:Drivers/STM32F4xx_HAL_Driver/Src/stm32f4xx_hal_can.c ****   uint32_t filternbrbitpos;
 400              		.loc 1 839 1 view .LVU118
 401 0018 30B5     		push	{r4, r5, lr}
 402              	.LCFI2:
 403              		.cfi_def_cfa_offset 12
 404              		.cfi_offset 4, -12
 405              		.cfi_offset 5, -8
 406              		.cfi_offset 14, -4
 848:Drivers/STM32F4xx_HAL_Driver/Src/stm32f4xx_hal_can.c ****     assert_param(IS_CAN_FILTER_ID_HALFWORD(sFilterConfig->FilterIdLow));
 407              		.loc 1 848 5 is_stmt 1 view .LVU119
 849:Drivers/STM32F4xx_HAL_Driver/Src/stm32f4xx_hal_can.c ****     assert_param(IS_CAN_FILTER_ID_HALFWORD(sFilterConfig->FilterMaskIdHigh));
 408              		.loc 1 849 5 view .LVU120
 850:Drivers/STM32F4xx_HAL_Driver/Src/stm32f4xx_hal_can.c ****     assert_param(IS_CAN_FILTER_ID_HALFWORD(sFilterConfig->FilterMaskIdLow));
 409              		.loc 1 850 5 view .LVU121
 851:Drivers/STM32F4xx_HAL_Driver/Src/stm32f4xx_hal_can.c ****     assert_param(IS_CAN_FILTER_MODE(sFilterConfig->FilterMode));
 410              		.loc 1 851 5 view .LVU122
 852:Drivers/STM32F4xx_HAL_Driver/Src/stm32f4xx_hal_can.c ****     assert_param(IS_CAN_FILTER_SCALE(sFilterConfig->FilterScale));
 411              		.loc 1 852 5 view .LVU123
 853:Drivers/STM32F4xx_HAL_Driver/Src/stm32f4xx_hal_can.c ****     assert_param(IS_CAN_FILTER_FIFO(sFilterConfig->FilterFIFOAssignment));
 412              		.loc 1 853 5 view .LVU124
 854:Drivers/STM32F4xx_HAL_Driver/Src/stm32f4xx_hal_can.c ****     assert_param(IS_CAN_FILTER_ACTIVATION(sFilterConfig->FilterActivation));
 413              		.loc 1 854 5 view .LVU125
 855:Drivers/STM32F4xx_HAL_Driver/Src/stm32f4xx_hal_can.c **** 
 414              		.loc 1 855 5 view .LVU126
 879:Drivers/STM32F4xx_HAL_Driver/Src/stm32f4xx_hal_can.c **** 
 415              		.loc 1 879 5 view .LVU127
 416              	.LVL20:
 882:Drivers/STM32F4xx_HAL_Driver/Src/stm32f4xx_hal_can.c ****     assert_param(IS_CAN_FILTER_BANK_DUAL(sFilterConfig->SlaveStartFilterBank));
 417              		.loc 1 882 5 view .LVU128
 883:Drivers/STM32F4xx_HAL_Driver/Src/stm32f4xx_hal_can.c **** #else
 418              		.loc 1 883 5 view .LVU129
 892:Drivers/STM32F4xx_HAL_Driver/Src/stm32f4xx_hal_can.c **** 
 419              		.loc 1 892 5 view .LVU130
 420 001a 464B     		ldr	r3, .L53
 421 001c D3F80022 		ldr	r2, [r3, #512]
 422 0020 42F00102 		orr	r2, r2, #1
 423 0024 C3F80022 		str	r2, [r3, #512]
 905:Drivers/STM32F4xx_HAL_Driver/Src/stm32f4xx_hal_can.c ****     SET_BIT(can_ip->FMR, sFilterConfig->SlaveStartFilterBank << CAN_FMR_CAN2SB_Pos);
 424              		.loc 1 905 5 view .LVU131
 425 0028 D3F80022 		ldr	r2, [r3, #512]
 426 002c 22F47C52 		bic	r2, r2, #16128
 427 0030 C3F80022 		str	r2, [r3, #512]
 906:Drivers/STM32F4xx_HAL_Driver/Src/stm32f4xx_hal_can.c **** 
 428              		.loc 1 906 5 view .LVU132
 429 0034 D3F80022 		ldr	r2, [r3, #512]
 430 0038 486A     		ldr	r0, [r1, #36]
 431              	.LVL21:
 906:Drivers/STM32F4xx_HAL_Driver/Src/stm32f4xx_hal_can.c **** 
 432              		.loc 1 906 5 is_stmt 0 view .LVU133
 433 003a 42EA0022 		orr	r2, r2, r0, lsl #8
 434 003e C3F80022 		str	r2, [r3, #512]
 910:Drivers/STM32F4xx_HAL_Driver/Src/stm32f4xx_hal_can.c **** 
 435              		.loc 1 910 5 is_stmt 1 view .LVU134
 910:Drivers/STM32F4xx_HAL_Driver/Src/stm32f4xx_hal_can.c **** 
 436              		.loc 1 910 52 is_stmt 0 view .LVU135
 437 0042 4A69     		ldr	r2, [r1, #20]
ARM GAS  C:\Users\12990\AppData\Local\Temp\ccxhiVmA.s 			page 28


 910:Drivers/STM32F4xx_HAL_Driver/Src/stm32f4xx_hal_can.c **** 
 438              		.loc 1 910 65 view .LVU136
 439 0044 02F01F02 		and	r2, r2, #31
 910:Drivers/STM32F4xx_HAL_Driver/Src/stm32f4xx_hal_can.c **** 
 440              		.loc 1 910 21 view .LVU137
 441 0048 0120     		movs	r0, #1
 442 004a 00FA02F2 		lsl	r2, r0, r2
 443              	.LVL22:
 913:Drivers/STM32F4xx_HAL_Driver/Src/stm32f4xx_hal_can.c **** 
 444              		.loc 1 913 5 is_stmt 1 view .LVU138
 445 004e D3F81C02 		ldr	r0, [r3, #540]
 446 0052 6FEA020C 		mvn	ip, r2
 447 0056 20EA0200 		bic	r0, r0, r2
 448 005a C3F81C02 		str	r0, [r3, #540]
 916:Drivers/STM32F4xx_HAL_Driver/Src/stm32f4xx_hal_can.c ****     {
 449              		.loc 1 916 5 view .LVU139
 916:Drivers/STM32F4xx_HAL_Driver/Src/stm32f4xx_hal_can.c ****     {
 450              		.loc 1 916 22 is_stmt 0 view .LVU140
 451 005e CB69     		ldr	r3, [r1, #28]
 916:Drivers/STM32F4xx_HAL_Driver/Src/stm32f4xx_hal_can.c ****     {
 452              		.loc 1 916 8 view .LVU141
 453 0060 C3B9     		cbnz	r3, .L38
 919:Drivers/STM32F4xx_HAL_Driver/Src/stm32f4xx_hal_can.c **** 
 454              		.loc 1 919 7 is_stmt 1 view .LVU142
 455 0062 344B     		ldr	r3, .L53
 456 0064 D3F80C02 		ldr	r0, [r3, #524]
 457 0068 0CEA0000 		and	r0, ip, r0
 458 006c C3F80C02 		str	r0, [r3, #524]
 923:Drivers/STM32F4xx_HAL_Driver/Src/stm32f4xx_hal_can.c ****         ((0x0000FFFFU & (uint32_t)sFilterConfig->FilterMaskIdLow) << 16U) |
 459              		.loc 1 923 7 view .LVU143
 925:Drivers/STM32F4xx_HAL_Driver/Src/stm32f4xx_hal_can.c **** 
 460              		.loc 1 925 22 is_stmt 0 view .LVU144
 461 0070 8C88     		ldrh	r4, [r1, #4]
 923:Drivers/STM32F4xx_HAL_Driver/Src/stm32f4xx_hal_can.c ****         ((0x0000FFFFU & (uint32_t)sFilterConfig->FilterMaskIdLow) << 16U) |
 462              		.loc 1 923 44 view .LVU145
 463 0072 4869     		ldr	r0, [r1, #20]
 924:Drivers/STM32F4xx_HAL_Driver/Src/stm32f4xx_hal_can.c ****         (0x0000FFFFU & (uint32_t)sFilterConfig->FilterIdLow);
 464              		.loc 1 924 75 view .LVU146
 465 0074 CD68     		ldr	r5, [r1, #12]
 466 0076 44EA0544 		orr	r4, r4, r5, lsl #16
 923:Drivers/STM32F4xx_HAL_Driver/Src/stm32f4xx_hal_can.c ****         ((0x0000FFFFU & (uint32_t)sFilterConfig->FilterMaskIdLow) << 16U) |
 467              		.loc 1 923 62 view .LVU147
 468 007a 4830     		adds	r0, r0, #72
 469 007c 43F83040 		str	r4, [r3, r0, lsl #3]
 929:Drivers/STM32F4xx_HAL_Driver/Src/stm32f4xx_hal_can.c ****         ((0x0000FFFFU & (uint32_t)sFilterConfig->FilterMaskIdHigh) << 16U) |
 470              		.loc 1 929 7 is_stmt 1 view .LVU148
 930:Drivers/STM32F4xx_HAL_Driver/Src/stm32f4xx_hal_can.c ****         (0x0000FFFFU & (uint32_t)sFilterConfig->FilterIdHigh);
 471              		.loc 1 930 48 is_stmt 0 view .LVU149
 472 0080 8C68     		ldr	r4, [r1, #8]
 931:Drivers/STM32F4xx_HAL_Driver/Src/stm32f4xx_hal_can.c ****     }
 473              		.loc 1 931 22 view .LVU150
 474 0082 0888     		ldrh	r0, [r1]
 930:Drivers/STM32F4xx_HAL_Driver/Src/stm32f4xx_hal_can.c ****         (0x0000FFFFU & (uint32_t)sFilterConfig->FilterIdHigh);
 475              		.loc 1 930 76 view .LVU151
 476 0084 40EA0440 		orr	r0, r0, r4, lsl #16
 929:Drivers/STM32F4xx_HAL_Driver/Src/stm32f4xx_hal_can.c ****         ((0x0000FFFFU & (uint32_t)sFilterConfig->FilterMaskIdHigh) << 16U) |
 477              		.loc 1 929 62 view .LVU152
ARM GAS  C:\Users\12990\AppData\Local\Temp\ccxhiVmA.s 			page 29


 478 0088 4C69     		ldr	r4, [r1, #20]
 479 008a 04F1480E 		add	lr, r4, #72
 480 008e 03EBCE03 		add	r3, r3, lr, lsl #3
 481 0092 5860     		str	r0, [r3, #4]
 482              	.L38:
 934:Drivers/STM32F4xx_HAL_Driver/Src/stm32f4xx_hal_can.c ****     {
 483              		.loc 1 934 5 is_stmt 1 view .LVU153
 934:Drivers/STM32F4xx_HAL_Driver/Src/stm32f4xx_hal_can.c ****     {
 484              		.loc 1 934 22 is_stmt 0 view .LVU154
 485 0094 CB69     		ldr	r3, [r1, #28]
 934:Drivers/STM32F4xx_HAL_Driver/Src/stm32f4xx_hal_can.c ****     {
 486              		.loc 1 934 8 view .LVU155
 487 0096 012B     		cmp	r3, #1
 488 0098 1ED0     		beq	.L51
 489              	.L39:
 951:Drivers/STM32F4xx_HAL_Driver/Src/stm32f4xx_hal_can.c ****     {
 490              		.loc 1 951 5 is_stmt 1 view .LVU156
 951:Drivers/STM32F4xx_HAL_Driver/Src/stm32f4xx_hal_can.c ****     {
 491              		.loc 1 951 22 is_stmt 0 view .LVU157
 492 009a 8B69     		ldr	r3, [r1, #24]
 951:Drivers/STM32F4xx_HAL_Driver/Src/stm32f4xx_hal_can.c ****     {
 493              		.loc 1 951 8 view .LVU158
 494 009c 002B     		cmp	r3, #0
 495 009e 33D1     		bne	.L40
 954:Drivers/STM32F4xx_HAL_Driver/Src/stm32f4xx_hal_can.c ****     }
 496              		.loc 1 954 7 is_stmt 1 view .LVU159
 497 00a0 2448     		ldr	r0, .L53
 498 00a2 D0F80432 		ldr	r3, [r0, #516]
 499 00a6 0CEA0303 		and	r3, ip, r3
 500 00aa C0F80432 		str	r3, [r0, #516]
 501              	.L41:
 963:Drivers/STM32F4xx_HAL_Driver/Src/stm32f4xx_hal_can.c ****     {
 502              		.loc 1 963 5 view .LVU160
 963:Drivers/STM32F4xx_HAL_Driver/Src/stm32f4xx_hal_can.c ****     {
 503              		.loc 1 963 22 is_stmt 0 view .LVU161
 504 00ae 0B69     		ldr	r3, [r1, #16]
 963:Drivers/STM32F4xx_HAL_Driver/Src/stm32f4xx_hal_can.c ****     {
 505              		.loc 1 963 8 view .LVU162
 506 00b0 8BBB     		cbnz	r3, .L42
 966:Drivers/STM32F4xx_HAL_Driver/Src/stm32f4xx_hal_can.c ****     }
 507              		.loc 1 966 7 is_stmt 1 view .LVU163
 508 00b2 2048     		ldr	r0, .L53
 509 00b4 D0F81432 		ldr	r3, [r0, #532]
 510 00b8 0CEA0303 		and	r3, ip, r3
 511 00bc C0F81432 		str	r3, [r0, #532]
 512              	.L43:
 975:Drivers/STM32F4xx_HAL_Driver/Src/stm32f4xx_hal_can.c ****     {
 513              		.loc 1 975 5 view .LVU164
 975:Drivers/STM32F4xx_HAL_Driver/Src/stm32f4xx_hal_can.c ****     {
 514              		.loc 1 975 22 is_stmt 0 view .LVU165
 515 00c0 0B6A     		ldr	r3, [r1, #32]
 975:Drivers/STM32F4xx_HAL_Driver/Src/stm32f4xx_hal_can.c ****     {
 516              		.loc 1 975 8 view .LVU166
 517 00c2 012B     		cmp	r3, #1
 518 00c4 2ED0     		beq	.L52
 519              	.LVL23:
 520              	.L44:
ARM GAS  C:\Users\12990\AppData\Local\Temp\ccxhiVmA.s 			page 30


 981:Drivers/STM32F4xx_HAL_Driver/Src/stm32f4xx_hal_can.c **** 
 521              		.loc 1 981 5 is_stmt 1 view .LVU167
 522 00c6 1B4A     		ldr	r2, .L53
 523 00c8 D2F80032 		ldr	r3, [r2, #512]
 524 00cc 23F00103 		bic	r3, r3, #1
 525 00d0 C2F80032 		str	r3, [r2, #512]
 984:Drivers/STM32F4xx_HAL_Driver/Src/stm32f4xx_hal_can.c ****   }
 526              		.loc 1 984 5 view .LVU168
 984:Drivers/STM32F4xx_HAL_Driver/Src/stm32f4xx_hal_can.c ****   }
 527              		.loc 1 984 12 is_stmt 0 view .LVU169
 528 00d4 0020     		movs	r0, #0
 529              		.loc 1 993 1 view .LVU170
 530 00d6 30BD     		pop	{r4, r5, pc}
 531              	.LVL24:
 532              	.L51:
 937:Drivers/STM32F4xx_HAL_Driver/Src/stm32f4xx_hal_can.c **** 
 533              		.loc 1 937 7 is_stmt 1 view .LVU171
 534 00d8 164B     		ldr	r3, .L53
 535 00da D3F80C02 		ldr	r0, [r3, #524]
 536 00de 1043     		orrs	r0, r0, r2
 537 00e0 C3F80C02 		str	r0, [r3, #524]
 940:Drivers/STM32F4xx_HAL_Driver/Src/stm32f4xx_hal_can.c ****         ((0x0000FFFFU & (uint32_t)sFilterConfig->FilterIdHigh) << 16U) |
 538              		.loc 1 940 7 view .LVU172
 942:Drivers/STM32F4xx_HAL_Driver/Src/stm32f4xx_hal_can.c **** 
 539              		.loc 1 942 22 is_stmt 0 view .LVU173
 540 00e4 8C88     		ldrh	r4, [r1, #4]
 940:Drivers/STM32F4xx_HAL_Driver/Src/stm32f4xx_hal_can.c ****         ((0x0000FFFFU & (uint32_t)sFilterConfig->FilterIdHigh) << 16U) |
 541              		.loc 1 940 44 view .LVU174
 542 00e6 4869     		ldr	r0, [r1, #20]
 941:Drivers/STM32F4xx_HAL_Driver/Src/stm32f4xx_hal_can.c ****         (0x0000FFFFU & (uint32_t)sFilterConfig->FilterIdLow);
 543              		.loc 1 941 72 view .LVU175
 544 00e8 0D68     		ldr	r5, [r1]
 545 00ea 44EA0544 		orr	r4, r4, r5, lsl #16
 940:Drivers/STM32F4xx_HAL_Driver/Src/stm32f4xx_hal_can.c ****         ((0x0000FFFFU & (uint32_t)sFilterConfig->FilterIdHigh) << 16U) |
 546              		.loc 1 940 62 view .LVU176
 547 00ee 4830     		adds	r0, r0, #72
 548 00f0 43F83040 		str	r4, [r3, r0, lsl #3]
 945:Drivers/STM32F4xx_HAL_Driver/Src/stm32f4xx_hal_can.c ****         ((0x0000FFFFU & (uint32_t)sFilterConfig->FilterMaskIdHigh) << 16U) |
 549              		.loc 1 945 7 is_stmt 1 view .LVU177
 947:Drivers/STM32F4xx_HAL_Driver/Src/stm32f4xx_hal_can.c ****     }
 550              		.loc 1 947 22 is_stmt 0 view .LVU178
 551 00f4 8889     		ldrh	r0, [r1, #12]
 945:Drivers/STM32F4xx_HAL_Driver/Src/stm32f4xx_hal_can.c ****         ((0x0000FFFFU & (uint32_t)sFilterConfig->FilterMaskIdHigh) << 16U) |
 552              		.loc 1 945 44 view .LVU179
 553 00f6 4C69     		ldr	r4, [r1, #20]
 946:Drivers/STM32F4xx_HAL_Driver/Src/stm32f4xx_hal_can.c ****         (0x0000FFFFU & (uint32_t)sFilterConfig->FilterMaskIdLow);
 554              		.loc 1 946 76 view .LVU180
 555 00f8 8D68     		ldr	r5, [r1, #8]
 556 00fa 40EA0540 		orr	r0, r0, r5, lsl #16
 945:Drivers/STM32F4xx_HAL_Driver/Src/stm32f4xx_hal_can.c ****         ((0x0000FFFFU & (uint32_t)sFilterConfig->FilterMaskIdHigh) << 16U) |
 557              		.loc 1 945 62 view .LVU181
 558 00fe 4834     		adds	r4, r4, #72
 559 0100 03EBC403 		add	r3, r3, r4, lsl #3
 560 0104 5860     		str	r0, [r3, #4]
 561 0106 C8E7     		b	.L39
 562              	.L40:
 959:Drivers/STM32F4xx_HAL_Driver/Src/stm32f4xx_hal_can.c ****     }
ARM GAS  C:\Users\12990\AppData\Local\Temp\ccxhiVmA.s 			page 31


 563              		.loc 1 959 7 is_stmt 1 view .LVU182
 564 0108 0A48     		ldr	r0, .L53
 565 010a D0F80432 		ldr	r3, [r0, #516]
 566 010e 1343     		orrs	r3, r3, r2
 567 0110 C0F80432 		str	r3, [r0, #516]
 568 0114 CBE7     		b	.L41
 569              	.L42:
 971:Drivers/STM32F4xx_HAL_Driver/Src/stm32f4xx_hal_can.c ****     }
 570              		.loc 1 971 7 view .LVU183
 571 0116 0748     		ldr	r0, .L53
 572 0118 D0F81432 		ldr	r3, [r0, #532]
 573 011c 1343     		orrs	r3, r3, r2
 574 011e C0F81432 		str	r3, [r0, #532]
 575 0122 CDE7     		b	.L43
 576              	.L52:
 977:Drivers/STM32F4xx_HAL_Driver/Src/stm32f4xx_hal_can.c ****     }
 577              		.loc 1 977 7 view .LVU184
 578 0124 0349     		ldr	r1, .L53
 579              	.LVL25:
 977:Drivers/STM32F4xx_HAL_Driver/Src/stm32f4xx_hal_can.c ****     }
 580              		.loc 1 977 7 is_stmt 0 view .LVU185
 581 0126 D1F81C32 		ldr	r3, [r1, #540]
 582 012a 1A43     		orrs	r2, r2, r3
 583              	.LVL26:
 977:Drivers/STM32F4xx_HAL_Driver/Src/stm32f4xx_hal_can.c ****     }
 584              		.loc 1 977 7 view .LVU186
 585 012c C1F81C22 		str	r2, [r1, #540]
 586 0130 C9E7     		b	.L44
 587              	.L54:
 588 0132 00BF     		.align	2
 589              	.L53:
 590 0134 00640040 		.word	1073767424
 591              		.cfi_endproc
 592              	.LFE134:
 594              		.section	.text.HAL_CAN_Start,"ax",%progbits
 595              		.align	1
 596              		.global	HAL_CAN_Start
 597              		.syntax unified
 598              		.thumb
 599              		.thumb_func
 601              	HAL_CAN_Start:
 602              	.LVL27:
 603              	.LFB135:
 994:Drivers/STM32F4xx_HAL_Driver/Src/stm32f4xx_hal_can.c **** 
 995:Drivers/STM32F4xx_HAL_Driver/Src/stm32f4xx_hal_can.c **** /**
 996:Drivers/STM32F4xx_HAL_Driver/Src/stm32f4xx_hal_can.c ****   * @}
 997:Drivers/STM32F4xx_HAL_Driver/Src/stm32f4xx_hal_can.c ****   */
 998:Drivers/STM32F4xx_HAL_Driver/Src/stm32f4xx_hal_can.c **** 
 999:Drivers/STM32F4xx_HAL_Driver/Src/stm32f4xx_hal_can.c **** /** @defgroup CAN_Exported_Functions_Group3 Control functions
1000:Drivers/STM32F4xx_HAL_Driver/Src/stm32f4xx_hal_can.c ****  *  @brief    Control functions
1001:Drivers/STM32F4xx_HAL_Driver/Src/stm32f4xx_hal_can.c ****  *
1002:Drivers/STM32F4xx_HAL_Driver/Src/stm32f4xx_hal_can.c **** @verbatim
1003:Drivers/STM32F4xx_HAL_Driver/Src/stm32f4xx_hal_can.c ****   ==============================================================================
1004:Drivers/STM32F4xx_HAL_Driver/Src/stm32f4xx_hal_can.c ****                       ##### Control functions #####
1005:Drivers/STM32F4xx_HAL_Driver/Src/stm32f4xx_hal_can.c ****   ==============================================================================
1006:Drivers/STM32F4xx_HAL_Driver/Src/stm32f4xx_hal_can.c ****     [..]  This section provides functions allowing to:
1007:Drivers/STM32F4xx_HAL_Driver/Src/stm32f4xx_hal_can.c ****       (+) HAL_CAN_Start                    : Start the CAN module
ARM GAS  C:\Users\12990\AppData\Local\Temp\ccxhiVmA.s 			page 32


1008:Drivers/STM32F4xx_HAL_Driver/Src/stm32f4xx_hal_can.c ****       (+) HAL_CAN_Stop                     : Stop the CAN module
1009:Drivers/STM32F4xx_HAL_Driver/Src/stm32f4xx_hal_can.c ****       (+) HAL_CAN_RequestSleep             : Request sleep mode entry.
1010:Drivers/STM32F4xx_HAL_Driver/Src/stm32f4xx_hal_can.c ****       (+) HAL_CAN_WakeUp                   : Wake up from sleep mode.
1011:Drivers/STM32F4xx_HAL_Driver/Src/stm32f4xx_hal_can.c ****       (+) HAL_CAN_IsSleepActive            : Check is sleep mode is active.
1012:Drivers/STM32F4xx_HAL_Driver/Src/stm32f4xx_hal_can.c ****       (+) HAL_CAN_AddTxMessage             : Add a message to the Tx mailboxes
1013:Drivers/STM32F4xx_HAL_Driver/Src/stm32f4xx_hal_can.c ****                                              and activate the corresponding
1014:Drivers/STM32F4xx_HAL_Driver/Src/stm32f4xx_hal_can.c ****                                              transmission request
1015:Drivers/STM32F4xx_HAL_Driver/Src/stm32f4xx_hal_can.c ****       (+) HAL_CAN_AbortTxRequest           : Abort transmission request
1016:Drivers/STM32F4xx_HAL_Driver/Src/stm32f4xx_hal_can.c ****       (+) HAL_CAN_GetTxMailboxesFreeLevel  : Return Tx mailboxes free level
1017:Drivers/STM32F4xx_HAL_Driver/Src/stm32f4xx_hal_can.c ****       (+) HAL_CAN_IsTxMessagePending       : Check if a transmission request is
1018:Drivers/STM32F4xx_HAL_Driver/Src/stm32f4xx_hal_can.c ****                                              pending on the selected Tx mailbox
1019:Drivers/STM32F4xx_HAL_Driver/Src/stm32f4xx_hal_can.c ****       (+) HAL_CAN_GetRxMessage             : Get a CAN frame from the Rx FIFO
1020:Drivers/STM32F4xx_HAL_Driver/Src/stm32f4xx_hal_can.c ****       (+) HAL_CAN_GetRxFifoFillLevel       : Return Rx FIFO fill level
1021:Drivers/STM32F4xx_HAL_Driver/Src/stm32f4xx_hal_can.c **** 
1022:Drivers/STM32F4xx_HAL_Driver/Src/stm32f4xx_hal_can.c **** @endverbatim
1023:Drivers/STM32F4xx_HAL_Driver/Src/stm32f4xx_hal_can.c ****   * @{
1024:Drivers/STM32F4xx_HAL_Driver/Src/stm32f4xx_hal_can.c ****   */
1025:Drivers/STM32F4xx_HAL_Driver/Src/stm32f4xx_hal_can.c **** 
1026:Drivers/STM32F4xx_HAL_Driver/Src/stm32f4xx_hal_can.c **** /**
1027:Drivers/STM32F4xx_HAL_Driver/Src/stm32f4xx_hal_can.c ****   * @brief  Start the CAN module.
1028:Drivers/STM32F4xx_HAL_Driver/Src/stm32f4xx_hal_can.c ****   * @param  hcan pointer to an CAN_HandleTypeDef structure that contains
1029:Drivers/STM32F4xx_HAL_Driver/Src/stm32f4xx_hal_can.c ****   *         the configuration information for the specified CAN.
1030:Drivers/STM32F4xx_HAL_Driver/Src/stm32f4xx_hal_can.c ****   * @retval HAL status
1031:Drivers/STM32F4xx_HAL_Driver/Src/stm32f4xx_hal_can.c ****   */
1032:Drivers/STM32F4xx_HAL_Driver/Src/stm32f4xx_hal_can.c **** HAL_StatusTypeDef HAL_CAN_Start(CAN_HandleTypeDef *hcan)
1033:Drivers/STM32F4xx_HAL_Driver/Src/stm32f4xx_hal_can.c **** {
 604              		.loc 1 1033 1 is_stmt 1 view -0
 605              		.cfi_startproc
 606              		@ args = 0, pretend = 0, frame = 0
 607              		@ frame_needed = 0, uses_anonymous_args = 0
 608              		.loc 1 1033 1 is_stmt 0 view .LVU188
 609 0000 70B5     		push	{r4, r5, r6, lr}
 610              	.LCFI3:
 611              		.cfi_def_cfa_offset 16
 612              		.cfi_offset 4, -16
 613              		.cfi_offset 5, -12
 614              		.cfi_offset 6, -8
 615              		.cfi_offset 14, -4
 616 0002 0446     		mov	r4, r0
1034:Drivers/STM32F4xx_HAL_Driver/Src/stm32f4xx_hal_can.c ****   uint32_t tickstart;
 617              		.loc 1 1034 3 is_stmt 1 view .LVU189
1035:Drivers/STM32F4xx_HAL_Driver/Src/stm32f4xx_hal_can.c **** 
1036:Drivers/STM32F4xx_HAL_Driver/Src/stm32f4xx_hal_can.c ****   if (hcan->State == HAL_CAN_STATE_READY)
 618              		.loc 1 1036 3 view .LVU190
 619              		.loc 1 1036 11 is_stmt 0 view .LVU191
 620 0004 90F82050 		ldrb	r5, [r0, #32]	@ zero_extendqisi2
 621 0008 EDB2     		uxtb	r5, r5
 622              		.loc 1 1036 6 view .LVU192
 623 000a 012D     		cmp	r5, #1
 624 000c 06D0     		beq	.L61
1037:Drivers/STM32F4xx_HAL_Driver/Src/stm32f4xx_hal_can.c ****   {
1038:Drivers/STM32F4xx_HAL_Driver/Src/stm32f4xx_hal_can.c ****     /* Change CAN peripheral state */
1039:Drivers/STM32F4xx_HAL_Driver/Src/stm32f4xx_hal_can.c ****     hcan->State = HAL_CAN_STATE_LISTENING;
1040:Drivers/STM32F4xx_HAL_Driver/Src/stm32f4xx_hal_can.c **** 
1041:Drivers/STM32F4xx_HAL_Driver/Src/stm32f4xx_hal_can.c ****     /* Request leave initialisation */
1042:Drivers/STM32F4xx_HAL_Driver/Src/stm32f4xx_hal_can.c ****     CLEAR_BIT(hcan->Instance->MCR, CAN_MCR_INRQ);
1043:Drivers/STM32F4xx_HAL_Driver/Src/stm32f4xx_hal_can.c **** 
ARM GAS  C:\Users\12990\AppData\Local\Temp\ccxhiVmA.s 			page 33


1044:Drivers/STM32F4xx_HAL_Driver/Src/stm32f4xx_hal_can.c ****     /* Get tick */
1045:Drivers/STM32F4xx_HAL_Driver/Src/stm32f4xx_hal_can.c ****     tickstart = HAL_GetTick();
1046:Drivers/STM32F4xx_HAL_Driver/Src/stm32f4xx_hal_can.c **** 
1047:Drivers/STM32F4xx_HAL_Driver/Src/stm32f4xx_hal_can.c ****     /* Wait the acknowledge */
1048:Drivers/STM32F4xx_HAL_Driver/Src/stm32f4xx_hal_can.c ****     while ((hcan->Instance->MSR & CAN_MSR_INAK) != 0U)
1049:Drivers/STM32F4xx_HAL_Driver/Src/stm32f4xx_hal_can.c ****     {
1050:Drivers/STM32F4xx_HAL_Driver/Src/stm32f4xx_hal_can.c ****       /* Check for the Timeout */
1051:Drivers/STM32F4xx_HAL_Driver/Src/stm32f4xx_hal_can.c ****       if ((HAL_GetTick() - tickstart) > CAN_TIMEOUT_VALUE)
1052:Drivers/STM32F4xx_HAL_Driver/Src/stm32f4xx_hal_can.c ****       {
1053:Drivers/STM32F4xx_HAL_Driver/Src/stm32f4xx_hal_can.c ****         /* Update error code */
1054:Drivers/STM32F4xx_HAL_Driver/Src/stm32f4xx_hal_can.c ****         hcan->ErrorCode |= HAL_CAN_ERROR_TIMEOUT;
1055:Drivers/STM32F4xx_HAL_Driver/Src/stm32f4xx_hal_can.c **** 
1056:Drivers/STM32F4xx_HAL_Driver/Src/stm32f4xx_hal_can.c ****         /* Change CAN state */
1057:Drivers/STM32F4xx_HAL_Driver/Src/stm32f4xx_hal_can.c ****         hcan->State = HAL_CAN_STATE_ERROR;
1058:Drivers/STM32F4xx_HAL_Driver/Src/stm32f4xx_hal_can.c **** 
1059:Drivers/STM32F4xx_HAL_Driver/Src/stm32f4xx_hal_can.c ****         return HAL_ERROR;
1060:Drivers/STM32F4xx_HAL_Driver/Src/stm32f4xx_hal_can.c ****       }
1061:Drivers/STM32F4xx_HAL_Driver/Src/stm32f4xx_hal_can.c ****     }
1062:Drivers/STM32F4xx_HAL_Driver/Src/stm32f4xx_hal_can.c **** 
1063:Drivers/STM32F4xx_HAL_Driver/Src/stm32f4xx_hal_can.c ****     /* Reset the CAN ErrorCode */
1064:Drivers/STM32F4xx_HAL_Driver/Src/stm32f4xx_hal_can.c ****     hcan->ErrorCode = HAL_CAN_ERROR_NONE;
1065:Drivers/STM32F4xx_HAL_Driver/Src/stm32f4xx_hal_can.c **** 
1066:Drivers/STM32F4xx_HAL_Driver/Src/stm32f4xx_hal_can.c ****     /* Return function status */
1067:Drivers/STM32F4xx_HAL_Driver/Src/stm32f4xx_hal_can.c ****     return HAL_OK;
1068:Drivers/STM32F4xx_HAL_Driver/Src/stm32f4xx_hal_can.c ****   }
1069:Drivers/STM32F4xx_HAL_Driver/Src/stm32f4xx_hal_can.c ****   else
1070:Drivers/STM32F4xx_HAL_Driver/Src/stm32f4xx_hal_can.c ****   {
1071:Drivers/STM32F4xx_HAL_Driver/Src/stm32f4xx_hal_can.c ****     /* Update error code */
1072:Drivers/STM32F4xx_HAL_Driver/Src/stm32f4xx_hal_can.c ****     hcan->ErrorCode |= HAL_CAN_ERROR_NOT_READY;
 625              		.loc 1 1072 5 is_stmt 1 view .LVU193
 626              		.loc 1 1072 21 is_stmt 0 view .LVU194
 627 000e 436A     		ldr	r3, [r0, #36]
 628 0010 43F40023 		orr	r3, r3, #524288
 629 0014 4362     		str	r3, [r0, #36]
1073:Drivers/STM32F4xx_HAL_Driver/Src/stm32f4xx_hal_can.c **** 
1074:Drivers/STM32F4xx_HAL_Driver/Src/stm32f4xx_hal_can.c ****     return HAL_ERROR;
 630              		.loc 1 1074 5 is_stmt 1 view .LVU195
 631              		.loc 1 1074 12 is_stmt 0 view .LVU196
 632 0016 0125     		movs	r5, #1
 633              	.LVL28:
 634              	.L58:
1075:Drivers/STM32F4xx_HAL_Driver/Src/stm32f4xx_hal_can.c ****   }
1076:Drivers/STM32F4xx_HAL_Driver/Src/stm32f4xx_hal_can.c **** }
 635              		.loc 1 1076 1 view .LVU197
 636 0018 2846     		mov	r0, r5
 637 001a 70BD     		pop	{r4, r5, r6, pc}
 638              	.LVL29:
 639              	.L61:
1039:Drivers/STM32F4xx_HAL_Driver/Src/stm32f4xx_hal_can.c **** 
 640              		.loc 1 1039 5 is_stmt 1 view .LVU198
1039:Drivers/STM32F4xx_HAL_Driver/Src/stm32f4xx_hal_can.c **** 
 641              		.loc 1 1039 17 is_stmt 0 view .LVU199
 642 001c 0223     		movs	r3, #2
 643 001e 80F82030 		strb	r3, [r0, #32]
1042:Drivers/STM32F4xx_HAL_Driver/Src/stm32f4xx_hal_can.c **** 
 644              		.loc 1 1042 5 is_stmt 1 view .LVU200
 645 0022 0268     		ldr	r2, [r0]
ARM GAS  C:\Users\12990\AppData\Local\Temp\ccxhiVmA.s 			page 34


 646 0024 1368     		ldr	r3, [r2]
 647 0026 23F00103 		bic	r3, r3, #1
 648 002a 1360     		str	r3, [r2]
1045:Drivers/STM32F4xx_HAL_Driver/Src/stm32f4xx_hal_can.c **** 
 649              		.loc 1 1045 5 view .LVU201
1045:Drivers/STM32F4xx_HAL_Driver/Src/stm32f4xx_hal_can.c **** 
 650              		.loc 1 1045 17 is_stmt 0 view .LVU202
 651 002c FFF7FEFF 		bl	HAL_GetTick
 652              	.LVL30:
1045:Drivers/STM32F4xx_HAL_Driver/Src/stm32f4xx_hal_can.c **** 
 653              		.loc 1 1045 17 view .LVU203
 654 0030 0646     		mov	r6, r0
 655              	.LVL31:
1048:Drivers/STM32F4xx_HAL_Driver/Src/stm32f4xx_hal_can.c ****     {
 656              		.loc 1 1048 5 is_stmt 1 view .LVU204
 657              	.L57:
1048:Drivers/STM32F4xx_HAL_Driver/Src/stm32f4xx_hal_can.c ****     {
 658              		.loc 1 1048 11 view .LVU205
1048:Drivers/STM32F4xx_HAL_Driver/Src/stm32f4xx_hal_can.c ****     {
 659              		.loc 1 1048 17 is_stmt 0 view .LVU206
 660 0032 2368     		ldr	r3, [r4]
1048:Drivers/STM32F4xx_HAL_Driver/Src/stm32f4xx_hal_can.c ****     {
 661              		.loc 1 1048 27 view .LVU207
 662 0034 5B68     		ldr	r3, [r3, #4]
1048:Drivers/STM32F4xx_HAL_Driver/Src/stm32f4xx_hal_can.c ****     {
 663              		.loc 1 1048 11 view .LVU208
 664 0036 13F0010F 		tst	r3, #1
 665 003a 0CD0     		beq	.L62
1051:Drivers/STM32F4xx_HAL_Driver/Src/stm32f4xx_hal_can.c ****       {
 666              		.loc 1 1051 7 is_stmt 1 view .LVU209
1051:Drivers/STM32F4xx_HAL_Driver/Src/stm32f4xx_hal_can.c ****       {
 667              		.loc 1 1051 12 is_stmt 0 view .LVU210
 668 003c FFF7FEFF 		bl	HAL_GetTick
 669              	.LVL32:
1051:Drivers/STM32F4xx_HAL_Driver/Src/stm32f4xx_hal_can.c ****       {
 670              		.loc 1 1051 26 view .LVU211
 671 0040 831B     		subs	r3, r0, r6
1051:Drivers/STM32F4xx_HAL_Driver/Src/stm32f4xx_hal_can.c ****       {
 672              		.loc 1 1051 10 view .LVU212
 673 0042 0A2B     		cmp	r3, #10
 674 0044 F5D9     		bls	.L57
1054:Drivers/STM32F4xx_HAL_Driver/Src/stm32f4xx_hal_can.c **** 
 675              		.loc 1 1054 9 is_stmt 1 view .LVU213
1054:Drivers/STM32F4xx_HAL_Driver/Src/stm32f4xx_hal_can.c **** 
 676              		.loc 1 1054 25 is_stmt 0 view .LVU214
 677 0046 636A     		ldr	r3, [r4, #36]
 678 0048 43F40033 		orr	r3, r3, #131072
 679 004c 6362     		str	r3, [r4, #36]
1057:Drivers/STM32F4xx_HAL_Driver/Src/stm32f4xx_hal_can.c **** 
 680              		.loc 1 1057 9 is_stmt 1 view .LVU215
1057:Drivers/STM32F4xx_HAL_Driver/Src/stm32f4xx_hal_can.c **** 
 681              		.loc 1 1057 21 is_stmt 0 view .LVU216
 682 004e 0523     		movs	r3, #5
 683 0050 84F82030 		strb	r3, [r4, #32]
1059:Drivers/STM32F4xx_HAL_Driver/Src/stm32f4xx_hal_can.c ****       }
 684              		.loc 1 1059 9 is_stmt 1 view .LVU217
1059:Drivers/STM32F4xx_HAL_Driver/Src/stm32f4xx_hal_can.c ****       }
ARM GAS  C:\Users\12990\AppData\Local\Temp\ccxhiVmA.s 			page 35


 685              		.loc 1 1059 16 is_stmt 0 view .LVU218
 686 0054 E0E7     		b	.L58
 687              	.L62:
1064:Drivers/STM32F4xx_HAL_Driver/Src/stm32f4xx_hal_can.c **** 
 688              		.loc 1 1064 5 is_stmt 1 view .LVU219
1064:Drivers/STM32F4xx_HAL_Driver/Src/stm32f4xx_hal_can.c **** 
 689              		.loc 1 1064 21 is_stmt 0 view .LVU220
 690 0056 0025     		movs	r5, #0
 691 0058 6562     		str	r5, [r4, #36]
1067:Drivers/STM32F4xx_HAL_Driver/Src/stm32f4xx_hal_can.c ****   }
 692              		.loc 1 1067 5 is_stmt 1 view .LVU221
1067:Drivers/STM32F4xx_HAL_Driver/Src/stm32f4xx_hal_can.c ****   }
 693              		.loc 1 1067 12 is_stmt 0 view .LVU222
 694 005a DDE7     		b	.L58
 695              		.cfi_endproc
 696              	.LFE135:
 698              		.section	.text.HAL_CAN_Stop,"ax",%progbits
 699              		.align	1
 700              		.global	HAL_CAN_Stop
 701              		.syntax unified
 702              		.thumb
 703              		.thumb_func
 705              	HAL_CAN_Stop:
 706              	.LVL33:
 707              	.LFB136:
1077:Drivers/STM32F4xx_HAL_Driver/Src/stm32f4xx_hal_can.c **** 
1078:Drivers/STM32F4xx_HAL_Driver/Src/stm32f4xx_hal_can.c **** /**
1079:Drivers/STM32F4xx_HAL_Driver/Src/stm32f4xx_hal_can.c ****   * @brief  Stop the CAN module and enable access to configuration registers.
1080:Drivers/STM32F4xx_HAL_Driver/Src/stm32f4xx_hal_can.c ****   * @param  hcan pointer to an CAN_HandleTypeDef structure that contains
1081:Drivers/STM32F4xx_HAL_Driver/Src/stm32f4xx_hal_can.c ****   *         the configuration information for the specified CAN.
1082:Drivers/STM32F4xx_HAL_Driver/Src/stm32f4xx_hal_can.c ****   * @retval HAL status
1083:Drivers/STM32F4xx_HAL_Driver/Src/stm32f4xx_hal_can.c ****   */
1084:Drivers/STM32F4xx_HAL_Driver/Src/stm32f4xx_hal_can.c **** HAL_StatusTypeDef HAL_CAN_Stop(CAN_HandleTypeDef *hcan)
1085:Drivers/STM32F4xx_HAL_Driver/Src/stm32f4xx_hal_can.c **** {
 708              		.loc 1 1085 1 is_stmt 1 view -0
 709              		.cfi_startproc
 710              		@ args = 0, pretend = 0, frame = 0
 711              		@ frame_needed = 0, uses_anonymous_args = 0
 712              		.loc 1 1085 1 is_stmt 0 view .LVU224
 713 0000 38B5     		push	{r3, r4, r5, lr}
 714              	.LCFI4:
 715              		.cfi_def_cfa_offset 16
 716              		.cfi_offset 3, -16
 717              		.cfi_offset 4, -12
 718              		.cfi_offset 5, -8
 719              		.cfi_offset 14, -4
 720 0002 0446     		mov	r4, r0
1086:Drivers/STM32F4xx_HAL_Driver/Src/stm32f4xx_hal_can.c ****   uint32_t tickstart;
 721              		.loc 1 1086 3 is_stmt 1 view .LVU225
1087:Drivers/STM32F4xx_HAL_Driver/Src/stm32f4xx_hal_can.c **** 
1088:Drivers/STM32F4xx_HAL_Driver/Src/stm32f4xx_hal_can.c ****   if (hcan->State == HAL_CAN_STATE_LISTENING)
 722              		.loc 1 1088 3 view .LVU226
 723              		.loc 1 1088 11 is_stmt 0 view .LVU227
 724 0004 90F82030 		ldrb	r3, [r0, #32]	@ zero_extendqisi2
 725 0008 DBB2     		uxtb	r3, r3
 726              		.loc 1 1088 6 view .LVU228
 727 000a 022B     		cmp	r3, #2
ARM GAS  C:\Users\12990\AppData\Local\Temp\ccxhiVmA.s 			page 36


 728 000c 05D0     		beq	.L69
1089:Drivers/STM32F4xx_HAL_Driver/Src/stm32f4xx_hal_can.c ****   {
1090:Drivers/STM32F4xx_HAL_Driver/Src/stm32f4xx_hal_can.c ****     /* Request initialisation */
1091:Drivers/STM32F4xx_HAL_Driver/Src/stm32f4xx_hal_can.c ****     SET_BIT(hcan->Instance->MCR, CAN_MCR_INRQ);
1092:Drivers/STM32F4xx_HAL_Driver/Src/stm32f4xx_hal_can.c **** 
1093:Drivers/STM32F4xx_HAL_Driver/Src/stm32f4xx_hal_can.c ****     /* Get tick */
1094:Drivers/STM32F4xx_HAL_Driver/Src/stm32f4xx_hal_can.c ****     tickstart = HAL_GetTick();
1095:Drivers/STM32F4xx_HAL_Driver/Src/stm32f4xx_hal_can.c **** 
1096:Drivers/STM32F4xx_HAL_Driver/Src/stm32f4xx_hal_can.c ****     /* Wait the acknowledge */
1097:Drivers/STM32F4xx_HAL_Driver/Src/stm32f4xx_hal_can.c ****     while ((hcan->Instance->MSR & CAN_MSR_INAK) == 0U)
1098:Drivers/STM32F4xx_HAL_Driver/Src/stm32f4xx_hal_can.c ****     {
1099:Drivers/STM32F4xx_HAL_Driver/Src/stm32f4xx_hal_can.c ****       /* Check for the Timeout */
1100:Drivers/STM32F4xx_HAL_Driver/Src/stm32f4xx_hal_can.c ****       if ((HAL_GetTick() - tickstart) > CAN_TIMEOUT_VALUE)
1101:Drivers/STM32F4xx_HAL_Driver/Src/stm32f4xx_hal_can.c ****       {
1102:Drivers/STM32F4xx_HAL_Driver/Src/stm32f4xx_hal_can.c ****         /* Update error code */
1103:Drivers/STM32F4xx_HAL_Driver/Src/stm32f4xx_hal_can.c ****         hcan->ErrorCode |= HAL_CAN_ERROR_TIMEOUT;
1104:Drivers/STM32F4xx_HAL_Driver/Src/stm32f4xx_hal_can.c **** 
1105:Drivers/STM32F4xx_HAL_Driver/Src/stm32f4xx_hal_can.c ****         /* Change CAN state */
1106:Drivers/STM32F4xx_HAL_Driver/Src/stm32f4xx_hal_can.c ****         hcan->State = HAL_CAN_STATE_ERROR;
1107:Drivers/STM32F4xx_HAL_Driver/Src/stm32f4xx_hal_can.c **** 
1108:Drivers/STM32F4xx_HAL_Driver/Src/stm32f4xx_hal_can.c ****         return HAL_ERROR;
1109:Drivers/STM32F4xx_HAL_Driver/Src/stm32f4xx_hal_can.c ****       }
1110:Drivers/STM32F4xx_HAL_Driver/Src/stm32f4xx_hal_can.c ****     }
1111:Drivers/STM32F4xx_HAL_Driver/Src/stm32f4xx_hal_can.c **** 
1112:Drivers/STM32F4xx_HAL_Driver/Src/stm32f4xx_hal_can.c ****     /* Exit from sleep mode */
1113:Drivers/STM32F4xx_HAL_Driver/Src/stm32f4xx_hal_can.c ****     CLEAR_BIT(hcan->Instance->MCR, CAN_MCR_SLEEP);
1114:Drivers/STM32F4xx_HAL_Driver/Src/stm32f4xx_hal_can.c **** 
1115:Drivers/STM32F4xx_HAL_Driver/Src/stm32f4xx_hal_can.c ****     /* Change CAN peripheral state */
1116:Drivers/STM32F4xx_HAL_Driver/Src/stm32f4xx_hal_can.c ****     hcan->State = HAL_CAN_STATE_READY;
1117:Drivers/STM32F4xx_HAL_Driver/Src/stm32f4xx_hal_can.c **** 
1118:Drivers/STM32F4xx_HAL_Driver/Src/stm32f4xx_hal_can.c ****     /* Return function status */
1119:Drivers/STM32F4xx_HAL_Driver/Src/stm32f4xx_hal_can.c ****     return HAL_OK;
1120:Drivers/STM32F4xx_HAL_Driver/Src/stm32f4xx_hal_can.c ****   }
1121:Drivers/STM32F4xx_HAL_Driver/Src/stm32f4xx_hal_can.c ****   else
1122:Drivers/STM32F4xx_HAL_Driver/Src/stm32f4xx_hal_can.c ****   {
1123:Drivers/STM32F4xx_HAL_Driver/Src/stm32f4xx_hal_can.c ****     /* Update error code */
1124:Drivers/STM32F4xx_HAL_Driver/Src/stm32f4xx_hal_can.c ****     hcan->ErrorCode |= HAL_CAN_ERROR_NOT_STARTED;
 729              		.loc 1 1124 5 is_stmt 1 view .LVU229
 730              		.loc 1 1124 21 is_stmt 0 view .LVU230
 731 000e 436A     		ldr	r3, [r0, #36]
 732 0010 43F48013 		orr	r3, r3, #1048576
 733 0014 4362     		str	r3, [r0, #36]
1125:Drivers/STM32F4xx_HAL_Driver/Src/stm32f4xx_hal_can.c **** 
1126:Drivers/STM32F4xx_HAL_Driver/Src/stm32f4xx_hal_can.c ****     return HAL_ERROR;
 734              		.loc 1 1126 5 is_stmt 1 view .LVU231
 735              		.loc 1 1126 12 is_stmt 0 view .LVU232
 736 0016 0120     		movs	r0, #1
 737              	.LVL34:
 738              	.L66:
1127:Drivers/STM32F4xx_HAL_Driver/Src/stm32f4xx_hal_can.c ****   }
1128:Drivers/STM32F4xx_HAL_Driver/Src/stm32f4xx_hal_can.c **** }
 739              		.loc 1 1128 1 view .LVU233
 740 0018 38BD     		pop	{r3, r4, r5, pc}
 741              	.LVL35:
 742              	.L69:
1091:Drivers/STM32F4xx_HAL_Driver/Src/stm32f4xx_hal_can.c **** 
 743              		.loc 1 1091 5 is_stmt 1 view .LVU234
ARM GAS  C:\Users\12990\AppData\Local\Temp\ccxhiVmA.s 			page 37


 744 001a 0268     		ldr	r2, [r0]
 745 001c 1368     		ldr	r3, [r2]
 746 001e 43F00103 		orr	r3, r3, #1
 747 0022 1360     		str	r3, [r2]
1094:Drivers/STM32F4xx_HAL_Driver/Src/stm32f4xx_hal_can.c **** 
 748              		.loc 1 1094 5 view .LVU235
1094:Drivers/STM32F4xx_HAL_Driver/Src/stm32f4xx_hal_can.c **** 
 749              		.loc 1 1094 17 is_stmt 0 view .LVU236
 750 0024 FFF7FEFF 		bl	HAL_GetTick
 751              	.LVL36:
1094:Drivers/STM32F4xx_HAL_Driver/Src/stm32f4xx_hal_can.c **** 
 752              		.loc 1 1094 17 view .LVU237
 753 0028 0546     		mov	r5, r0
 754              	.LVL37:
1097:Drivers/STM32F4xx_HAL_Driver/Src/stm32f4xx_hal_can.c ****     {
 755              		.loc 1 1097 5 is_stmt 1 view .LVU238
 756              	.L65:
1097:Drivers/STM32F4xx_HAL_Driver/Src/stm32f4xx_hal_can.c ****     {
 757              		.loc 1 1097 11 view .LVU239
1097:Drivers/STM32F4xx_HAL_Driver/Src/stm32f4xx_hal_can.c ****     {
 758              		.loc 1 1097 17 is_stmt 0 view .LVU240
 759 002a 2368     		ldr	r3, [r4]
1097:Drivers/STM32F4xx_HAL_Driver/Src/stm32f4xx_hal_can.c ****     {
 760              		.loc 1 1097 27 view .LVU241
 761 002c 5A68     		ldr	r2, [r3, #4]
1097:Drivers/STM32F4xx_HAL_Driver/Src/stm32f4xx_hal_can.c ****     {
 762              		.loc 1 1097 11 view .LVU242
 763 002e 12F0010F 		tst	r2, #1
 764 0032 0DD1     		bne	.L70
1100:Drivers/STM32F4xx_HAL_Driver/Src/stm32f4xx_hal_can.c ****       {
 765              		.loc 1 1100 7 is_stmt 1 view .LVU243
1100:Drivers/STM32F4xx_HAL_Driver/Src/stm32f4xx_hal_can.c ****       {
 766              		.loc 1 1100 12 is_stmt 0 view .LVU244
 767 0034 FFF7FEFF 		bl	HAL_GetTick
 768              	.LVL38:
1100:Drivers/STM32F4xx_HAL_Driver/Src/stm32f4xx_hal_can.c ****       {
 769              		.loc 1 1100 26 view .LVU245
 770 0038 431B     		subs	r3, r0, r5
1100:Drivers/STM32F4xx_HAL_Driver/Src/stm32f4xx_hal_can.c ****       {
 771              		.loc 1 1100 10 view .LVU246
 772 003a 0A2B     		cmp	r3, #10
 773 003c F5D9     		bls	.L65
1103:Drivers/STM32F4xx_HAL_Driver/Src/stm32f4xx_hal_can.c **** 
 774              		.loc 1 1103 9 is_stmt 1 view .LVU247
1103:Drivers/STM32F4xx_HAL_Driver/Src/stm32f4xx_hal_can.c **** 
 775              		.loc 1 1103 25 is_stmt 0 view .LVU248
 776 003e 636A     		ldr	r3, [r4, #36]
 777 0040 43F40033 		orr	r3, r3, #131072
 778 0044 6362     		str	r3, [r4, #36]
1106:Drivers/STM32F4xx_HAL_Driver/Src/stm32f4xx_hal_can.c **** 
 779              		.loc 1 1106 9 is_stmt 1 view .LVU249
1106:Drivers/STM32F4xx_HAL_Driver/Src/stm32f4xx_hal_can.c **** 
 780              		.loc 1 1106 21 is_stmt 0 view .LVU250
 781 0046 0523     		movs	r3, #5
 782 0048 84F82030 		strb	r3, [r4, #32]
1108:Drivers/STM32F4xx_HAL_Driver/Src/stm32f4xx_hal_can.c ****       }
 783              		.loc 1 1108 9 is_stmt 1 view .LVU251
ARM GAS  C:\Users\12990\AppData\Local\Temp\ccxhiVmA.s 			page 38


1108:Drivers/STM32F4xx_HAL_Driver/Src/stm32f4xx_hal_can.c ****       }
 784              		.loc 1 1108 16 is_stmt 0 view .LVU252
 785 004c 0120     		movs	r0, #1
 786 004e E3E7     		b	.L66
 787              	.L70:
1113:Drivers/STM32F4xx_HAL_Driver/Src/stm32f4xx_hal_can.c **** 
 788              		.loc 1 1113 5 is_stmt 1 view .LVU253
 789 0050 1A68     		ldr	r2, [r3]
 790 0052 22F00202 		bic	r2, r2, #2
 791 0056 1A60     		str	r2, [r3]
1116:Drivers/STM32F4xx_HAL_Driver/Src/stm32f4xx_hal_can.c **** 
 792              		.loc 1 1116 5 view .LVU254
1116:Drivers/STM32F4xx_HAL_Driver/Src/stm32f4xx_hal_can.c **** 
 793              		.loc 1 1116 17 is_stmt 0 view .LVU255
 794 0058 0123     		movs	r3, #1
 795 005a 84F82030 		strb	r3, [r4, #32]
1119:Drivers/STM32F4xx_HAL_Driver/Src/stm32f4xx_hal_can.c ****   }
 796              		.loc 1 1119 5 is_stmt 1 view .LVU256
1119:Drivers/STM32F4xx_HAL_Driver/Src/stm32f4xx_hal_can.c ****   }
 797              		.loc 1 1119 12 is_stmt 0 view .LVU257
 798 005e 0020     		movs	r0, #0
 799 0060 DAE7     		b	.L66
 800              		.cfi_endproc
 801              	.LFE136:
 803              		.section	.text.HAL_CAN_DeInit,"ax",%progbits
 804              		.align	1
 805              		.global	HAL_CAN_DeInit
 806              		.syntax unified
 807              		.thumb
 808              		.thumb_func
 810              	HAL_CAN_DeInit:
 811              	.LVL39:
 812              	.LFB131:
 460:Drivers/STM32F4xx_HAL_Driver/Src/stm32f4xx_hal_can.c ****   /* Check CAN handle */
 813              		.loc 1 460 1 is_stmt 1 view -0
 814              		.cfi_startproc
 815              		@ args = 0, pretend = 0, frame = 0
 816              		@ frame_needed = 0, uses_anonymous_args = 0
 462:Drivers/STM32F4xx_HAL_Driver/Src/stm32f4xx_hal_can.c ****   {
 817              		.loc 1 462 3 view .LVU259
 462:Drivers/STM32F4xx_HAL_Driver/Src/stm32f4xx_hal_can.c ****   {
 818              		.loc 1 462 6 is_stmt 0 view .LVU260
 819 0000 80B1     		cbz	r0, .L73
 460:Drivers/STM32F4xx_HAL_Driver/Src/stm32f4xx_hal_can.c ****   /* Check CAN handle */
 820              		.loc 1 460 1 view .LVU261
 821 0002 10B5     		push	{r4, lr}
 822              	.LCFI5:
 823              		.cfi_def_cfa_offset 8
 824              		.cfi_offset 4, -8
 825              		.cfi_offset 14, -4
 826 0004 0446     		mov	r4, r0
 468:Drivers/STM32F4xx_HAL_Driver/Src/stm32f4xx_hal_can.c **** 
 827              		.loc 1 468 3 is_stmt 1 view .LVU262
 471:Drivers/STM32F4xx_HAL_Driver/Src/stm32f4xx_hal_can.c **** 
 828              		.loc 1 471 3 view .LVU263
 471:Drivers/STM32F4xx_HAL_Driver/Src/stm32f4xx_hal_can.c **** 
 829              		.loc 1 471 9 is_stmt 0 view .LVU264
ARM GAS  C:\Users\12990\AppData\Local\Temp\ccxhiVmA.s 			page 39


 830 0006 FFF7FEFF 		bl	HAL_CAN_Stop
 831              	.LVL40:
 484:Drivers/STM32F4xx_HAL_Driver/Src/stm32f4xx_hal_can.c **** #endif /* (USE_HAL_CAN_REGISTER_CALLBACKS) */
 832              		.loc 1 484 3 is_stmt 1 view .LVU265
 833 000a 2046     		mov	r0, r4
 834 000c FFF7FEFF 		bl	HAL_CAN_MspDeInit
 835              	.LVL41:
 488:Drivers/STM32F4xx_HAL_Driver/Src/stm32f4xx_hal_can.c **** 
 836              		.loc 1 488 3 view .LVU266
 837 0010 2268     		ldr	r2, [r4]
 838 0012 1368     		ldr	r3, [r2]
 839 0014 43F40043 		orr	r3, r3, #32768
 840 0018 1360     		str	r3, [r2]
 491:Drivers/STM32F4xx_HAL_Driver/Src/stm32f4xx_hal_can.c **** 
 841              		.loc 1 491 3 view .LVU267
 491:Drivers/STM32F4xx_HAL_Driver/Src/stm32f4xx_hal_can.c **** 
 842              		.loc 1 491 19 is_stmt 0 view .LVU268
 843 001a 0020     		movs	r0, #0
 844 001c 6062     		str	r0, [r4, #36]
 494:Drivers/STM32F4xx_HAL_Driver/Src/stm32f4xx_hal_can.c **** 
 845              		.loc 1 494 3 is_stmt 1 view .LVU269
 494:Drivers/STM32F4xx_HAL_Driver/Src/stm32f4xx_hal_can.c **** 
 846              		.loc 1 494 15 is_stmt 0 view .LVU270
 847 001e 84F82000 		strb	r0, [r4, #32]
 497:Drivers/STM32F4xx_HAL_Driver/Src/stm32f4xx_hal_can.c **** }
 848              		.loc 1 497 3 is_stmt 1 view .LVU271
 498:Drivers/STM32F4xx_HAL_Driver/Src/stm32f4xx_hal_can.c **** 
 849              		.loc 1 498 1 is_stmt 0 view .LVU272
 850 0022 10BD     		pop	{r4, pc}
 851              	.LVL42:
 852              	.L73:
 853              	.LCFI6:
 854              		.cfi_def_cfa_offset 0
 855              		.cfi_restore 4
 856              		.cfi_restore 14
 464:Drivers/STM32F4xx_HAL_Driver/Src/stm32f4xx_hal_can.c ****   }
 857              		.loc 1 464 12 view .LVU273
 858 0024 0120     		movs	r0, #1
 859              	.LVL43:
 498:Drivers/STM32F4xx_HAL_Driver/Src/stm32f4xx_hal_can.c **** 
 860              		.loc 1 498 1 view .LVU274
 861 0026 7047     		bx	lr
 862              		.cfi_endproc
 863              	.LFE131:
 865              		.section	.text.HAL_CAN_RequestSleep,"ax",%progbits
 866              		.align	1
 867              		.global	HAL_CAN_RequestSleep
 868              		.syntax unified
 869              		.thumb
 870              		.thumb_func
 872              	HAL_CAN_RequestSleep:
 873              	.LVL44:
 874              	.LFB137:
1129:Drivers/STM32F4xx_HAL_Driver/Src/stm32f4xx_hal_can.c **** 
1130:Drivers/STM32F4xx_HAL_Driver/Src/stm32f4xx_hal_can.c **** /**
1131:Drivers/STM32F4xx_HAL_Driver/Src/stm32f4xx_hal_can.c ****   * @brief  Request the sleep mode (low power) entry.
1132:Drivers/STM32F4xx_HAL_Driver/Src/stm32f4xx_hal_can.c ****   *         When returning from this function, Sleep mode will be entered
ARM GAS  C:\Users\12990\AppData\Local\Temp\ccxhiVmA.s 			page 40


1133:Drivers/STM32F4xx_HAL_Driver/Src/stm32f4xx_hal_can.c ****   *         as soon as the current CAN activity (transmission or reception
1134:Drivers/STM32F4xx_HAL_Driver/Src/stm32f4xx_hal_can.c ****   *         of a CAN frame) has been completed.
1135:Drivers/STM32F4xx_HAL_Driver/Src/stm32f4xx_hal_can.c ****   * @param  hcan pointer to a CAN_HandleTypeDef structure that contains
1136:Drivers/STM32F4xx_HAL_Driver/Src/stm32f4xx_hal_can.c ****   *         the configuration information for the specified CAN.
1137:Drivers/STM32F4xx_HAL_Driver/Src/stm32f4xx_hal_can.c ****   * @retval HAL status.
1138:Drivers/STM32F4xx_HAL_Driver/Src/stm32f4xx_hal_can.c ****   */
1139:Drivers/STM32F4xx_HAL_Driver/Src/stm32f4xx_hal_can.c **** HAL_StatusTypeDef HAL_CAN_RequestSleep(CAN_HandleTypeDef *hcan)
1140:Drivers/STM32F4xx_HAL_Driver/Src/stm32f4xx_hal_can.c **** {
 875              		.loc 1 1140 1 is_stmt 1 view -0
 876              		.cfi_startproc
 877              		@ args = 0, pretend = 0, frame = 0
 878              		@ frame_needed = 0, uses_anonymous_args = 0
 879              		@ link register save eliminated.
1141:Drivers/STM32F4xx_HAL_Driver/Src/stm32f4xx_hal_can.c ****   HAL_CAN_StateTypeDef state = hcan->State;
 880              		.loc 1 1141 3 view .LVU276
 881              		.loc 1 1141 24 is_stmt 0 view .LVU277
 882 0000 90F82030 		ldrb	r3, [r0, #32]	@ zero_extendqisi2
 883              	.LVL45:
1142:Drivers/STM32F4xx_HAL_Driver/Src/stm32f4xx_hal_can.c **** 
1143:Drivers/STM32F4xx_HAL_Driver/Src/stm32f4xx_hal_can.c ****   if ((state == HAL_CAN_STATE_READY) ||
 884              		.loc 1 1143 3 is_stmt 1 view .LVU278
 885              		.loc 1 1143 38 is_stmt 0 view .LVU279
 886 0004 013B     		subs	r3, r3, #1
 887              	.LVL46:
 888              		.loc 1 1143 38 view .LVU280
 889 0006 DBB2     		uxtb	r3, r3
 890              		.loc 1 1143 6 view .LVU281
 891 0008 012B     		cmp	r3, #1
 892 000a 05D9     		bls	.L81
1144:Drivers/STM32F4xx_HAL_Driver/Src/stm32f4xx_hal_can.c ****       (state == HAL_CAN_STATE_LISTENING))
1145:Drivers/STM32F4xx_HAL_Driver/Src/stm32f4xx_hal_can.c ****   {
1146:Drivers/STM32F4xx_HAL_Driver/Src/stm32f4xx_hal_can.c ****     /* Request Sleep mode */
1147:Drivers/STM32F4xx_HAL_Driver/Src/stm32f4xx_hal_can.c ****     SET_BIT(hcan->Instance->MCR, CAN_MCR_SLEEP);
1148:Drivers/STM32F4xx_HAL_Driver/Src/stm32f4xx_hal_can.c **** 
1149:Drivers/STM32F4xx_HAL_Driver/Src/stm32f4xx_hal_can.c ****     /* Return function status */
1150:Drivers/STM32F4xx_HAL_Driver/Src/stm32f4xx_hal_can.c ****     return HAL_OK;
1151:Drivers/STM32F4xx_HAL_Driver/Src/stm32f4xx_hal_can.c ****   }
1152:Drivers/STM32F4xx_HAL_Driver/Src/stm32f4xx_hal_can.c ****   else
1153:Drivers/STM32F4xx_HAL_Driver/Src/stm32f4xx_hal_can.c ****   {
1154:Drivers/STM32F4xx_HAL_Driver/Src/stm32f4xx_hal_can.c ****     /* Update error code */
1155:Drivers/STM32F4xx_HAL_Driver/Src/stm32f4xx_hal_can.c ****     hcan->ErrorCode |= HAL_CAN_ERROR_NOT_INITIALIZED;
 893              		.loc 1 1155 5 is_stmt 1 view .LVU282
 894              		.loc 1 1155 21 is_stmt 0 view .LVU283
 895 000c 436A     		ldr	r3, [r0, #36]
 896 000e 43F48023 		orr	r3, r3, #262144
 897 0012 4362     		str	r3, [r0, #36]
1156:Drivers/STM32F4xx_HAL_Driver/Src/stm32f4xx_hal_can.c **** 
1157:Drivers/STM32F4xx_HAL_Driver/Src/stm32f4xx_hal_can.c ****     /* Return function status */
1158:Drivers/STM32F4xx_HAL_Driver/Src/stm32f4xx_hal_can.c ****     return HAL_ERROR;
 898              		.loc 1 1158 5 is_stmt 1 view .LVU284
 899              		.loc 1 1158 12 is_stmt 0 view .LVU285
 900 0014 0120     		movs	r0, #1
 901              	.LVL47:
1159:Drivers/STM32F4xx_HAL_Driver/Src/stm32f4xx_hal_can.c ****   }
1160:Drivers/STM32F4xx_HAL_Driver/Src/stm32f4xx_hal_can.c **** }
 902              		.loc 1 1160 1 view .LVU286
 903 0016 7047     		bx	lr
ARM GAS  C:\Users\12990\AppData\Local\Temp\ccxhiVmA.s 			page 41


 904              	.LVL48:
 905              	.L81:
1147:Drivers/STM32F4xx_HAL_Driver/Src/stm32f4xx_hal_can.c **** 
 906              		.loc 1 1147 5 is_stmt 1 view .LVU287
 907 0018 0268     		ldr	r2, [r0]
 908 001a 1368     		ldr	r3, [r2]
 909 001c 43F00203 		orr	r3, r3, #2
 910 0020 1360     		str	r3, [r2]
1150:Drivers/STM32F4xx_HAL_Driver/Src/stm32f4xx_hal_can.c ****   }
 911              		.loc 1 1150 5 view .LVU288
1150:Drivers/STM32F4xx_HAL_Driver/Src/stm32f4xx_hal_can.c ****   }
 912              		.loc 1 1150 12 is_stmt 0 view .LVU289
 913 0022 0020     		movs	r0, #0
 914              	.LVL49:
1150:Drivers/STM32F4xx_HAL_Driver/Src/stm32f4xx_hal_can.c ****   }
 915              		.loc 1 1150 12 view .LVU290
 916 0024 7047     		bx	lr
 917              		.cfi_endproc
 918              	.LFE137:
 920              		.section	.text.HAL_CAN_WakeUp,"ax",%progbits
 921              		.align	1
 922              		.global	HAL_CAN_WakeUp
 923              		.syntax unified
 924              		.thumb
 925              		.thumb_func
 927              	HAL_CAN_WakeUp:
 928              	.LVL50:
 929              	.LFB138:
1161:Drivers/STM32F4xx_HAL_Driver/Src/stm32f4xx_hal_can.c **** 
1162:Drivers/STM32F4xx_HAL_Driver/Src/stm32f4xx_hal_can.c **** /**
1163:Drivers/STM32F4xx_HAL_Driver/Src/stm32f4xx_hal_can.c ****   * @brief  Wake up from sleep mode.
1164:Drivers/STM32F4xx_HAL_Driver/Src/stm32f4xx_hal_can.c ****   *         When returning with HAL_OK status from this function, Sleep mode
1165:Drivers/STM32F4xx_HAL_Driver/Src/stm32f4xx_hal_can.c ****   *         is exited.
1166:Drivers/STM32F4xx_HAL_Driver/Src/stm32f4xx_hal_can.c ****   * @param  hcan pointer to a CAN_HandleTypeDef structure that contains
1167:Drivers/STM32F4xx_HAL_Driver/Src/stm32f4xx_hal_can.c ****   *         the configuration information for the specified CAN.
1168:Drivers/STM32F4xx_HAL_Driver/Src/stm32f4xx_hal_can.c ****   * @retval HAL status.
1169:Drivers/STM32F4xx_HAL_Driver/Src/stm32f4xx_hal_can.c ****   */
1170:Drivers/STM32F4xx_HAL_Driver/Src/stm32f4xx_hal_can.c **** HAL_StatusTypeDef HAL_CAN_WakeUp(CAN_HandleTypeDef *hcan)
1171:Drivers/STM32F4xx_HAL_Driver/Src/stm32f4xx_hal_can.c **** {
 930              		.loc 1 1171 1 is_stmt 1 view -0
 931              		.cfi_startproc
 932              		@ args = 0, pretend = 0, frame = 8
 933              		@ frame_needed = 0, uses_anonymous_args = 0
 934              		@ link register save eliminated.
 935              		.loc 1 1171 1 is_stmt 0 view .LVU292
 936 0000 82B0     		sub	sp, sp, #8
 937              	.LCFI7:
 938              		.cfi_def_cfa_offset 8
1172:Drivers/STM32F4xx_HAL_Driver/Src/stm32f4xx_hal_can.c ****   __IO uint32_t count = 0;
 939              		.loc 1 1172 3 is_stmt 1 view .LVU293
 940              		.loc 1 1172 17 is_stmt 0 view .LVU294
 941 0002 0023     		movs	r3, #0
 942 0004 0193     		str	r3, [sp, #4]
1173:Drivers/STM32F4xx_HAL_Driver/Src/stm32f4xx_hal_can.c ****   uint32_t timeout = 1000000U;
 943              		.loc 1 1173 3 is_stmt 1 view .LVU295
 944              	.LVL51:
1174:Drivers/STM32F4xx_HAL_Driver/Src/stm32f4xx_hal_can.c ****   HAL_CAN_StateTypeDef state = hcan->State;
ARM GAS  C:\Users\12990\AppData\Local\Temp\ccxhiVmA.s 			page 42


 945              		.loc 1 1174 3 view .LVU296
 946              		.loc 1 1174 24 is_stmt 0 view .LVU297
 947 0006 90F82030 		ldrb	r3, [r0, #32]	@ zero_extendqisi2
 948              	.LVL52:
1175:Drivers/STM32F4xx_HAL_Driver/Src/stm32f4xx_hal_can.c **** 
1176:Drivers/STM32F4xx_HAL_Driver/Src/stm32f4xx_hal_can.c ****   if ((state == HAL_CAN_STATE_READY) ||
 949              		.loc 1 1176 3 is_stmt 1 view .LVU298
 950              		.loc 1 1176 38 is_stmt 0 view .LVU299
 951 000a 013B     		subs	r3, r3, #1
 952              	.LVL53:
 953              		.loc 1 1176 38 view .LVU300
 954 000c DBB2     		uxtb	r3, r3
 955              		.loc 1 1176 6 view .LVU301
 956 000e 012B     		cmp	r3, #1
 957 0010 18D8     		bhi	.L83
1177:Drivers/STM32F4xx_HAL_Driver/Src/stm32f4xx_hal_can.c ****       (state == HAL_CAN_STATE_LISTENING))
1178:Drivers/STM32F4xx_HAL_Driver/Src/stm32f4xx_hal_can.c ****   {
1179:Drivers/STM32F4xx_HAL_Driver/Src/stm32f4xx_hal_can.c ****     /* Wake up request */
1180:Drivers/STM32F4xx_HAL_Driver/Src/stm32f4xx_hal_can.c ****     CLEAR_BIT(hcan->Instance->MCR, CAN_MCR_SLEEP);
 958              		.loc 1 1180 5 is_stmt 1 view .LVU302
 959 0012 0268     		ldr	r2, [r0]
 960 0014 1368     		ldr	r3, [r2]
 961 0016 23F00203 		bic	r3, r3, #2
 962 001a 1360     		str	r3, [r2]
 963              	.L86:
1181:Drivers/STM32F4xx_HAL_Driver/Src/stm32f4xx_hal_can.c **** 
1182:Drivers/STM32F4xx_HAL_Driver/Src/stm32f4xx_hal_can.c ****     /* Wait sleep mode is exited */
1183:Drivers/STM32F4xx_HAL_Driver/Src/stm32f4xx_hal_can.c ****     do
 964              		.loc 1 1183 5 view .LVU303
1184:Drivers/STM32F4xx_HAL_Driver/Src/stm32f4xx_hal_can.c ****     {
1185:Drivers/STM32F4xx_HAL_Driver/Src/stm32f4xx_hal_can.c ****       /* Increment counter */
1186:Drivers/STM32F4xx_HAL_Driver/Src/stm32f4xx_hal_can.c ****       count++;
 965              		.loc 1 1186 7 view .LVU304
 966              		.loc 1 1186 12 is_stmt 0 view .LVU305
 967 001c 019B     		ldr	r3, [sp, #4]
 968 001e 0133     		adds	r3, r3, #1
 969 0020 0193     		str	r3, [sp, #4]
1187:Drivers/STM32F4xx_HAL_Driver/Src/stm32f4xx_hal_can.c **** 
1188:Drivers/STM32F4xx_HAL_Driver/Src/stm32f4xx_hal_can.c ****       /* Check if timeout is reached */
1189:Drivers/STM32F4xx_HAL_Driver/Src/stm32f4xx_hal_can.c ****       if (count > timeout)
 970              		.loc 1 1189 7 is_stmt 1 view .LVU306
 971              		.loc 1 1189 17 is_stmt 0 view .LVU307
 972 0022 019A     		ldr	r2, [sp, #4]
 973              		.loc 1 1189 10 view .LVU308
 974 0024 0B4B     		ldr	r3, .L89
 975 0026 9A42     		cmp	r2, r3
 976 0028 06D8     		bhi	.L88
1190:Drivers/STM32F4xx_HAL_Driver/Src/stm32f4xx_hal_can.c ****       {
1191:Drivers/STM32F4xx_HAL_Driver/Src/stm32f4xx_hal_can.c ****         /* Update error code */
1192:Drivers/STM32F4xx_HAL_Driver/Src/stm32f4xx_hal_can.c ****         hcan->ErrorCode |= HAL_CAN_ERROR_TIMEOUT;
1193:Drivers/STM32F4xx_HAL_Driver/Src/stm32f4xx_hal_can.c **** 
1194:Drivers/STM32F4xx_HAL_Driver/Src/stm32f4xx_hal_can.c ****         return HAL_ERROR;
1195:Drivers/STM32F4xx_HAL_Driver/Src/stm32f4xx_hal_can.c ****       }
1196:Drivers/STM32F4xx_HAL_Driver/Src/stm32f4xx_hal_can.c ****     }
1197:Drivers/STM32F4xx_HAL_Driver/Src/stm32f4xx_hal_can.c ****     while ((hcan->Instance->MSR & CAN_MSR_SLAK) != 0U);
 977              		.loc 1 1197 11 is_stmt 1 view .LVU309
 978              		.loc 1 1197 17 is_stmt 0 view .LVU310
ARM GAS  C:\Users\12990\AppData\Local\Temp\ccxhiVmA.s 			page 43


 979 002a 0368     		ldr	r3, [r0]
 980              		.loc 1 1197 27 view .LVU311
 981 002c 5B68     		ldr	r3, [r3, #4]
 982              		.loc 1 1197 5 view .LVU312
 983 002e 13F0020F 		tst	r3, #2
 984 0032 F3D1     		bne	.L86
1198:Drivers/STM32F4xx_HAL_Driver/Src/stm32f4xx_hal_can.c **** 
1199:Drivers/STM32F4xx_HAL_Driver/Src/stm32f4xx_hal_can.c ****     /* Return function status */
1200:Drivers/STM32F4xx_HAL_Driver/Src/stm32f4xx_hal_can.c ****     return HAL_OK;
 985              		.loc 1 1200 12 view .LVU313
 986 0034 0020     		movs	r0, #0
 987              	.LVL54:
 988              		.loc 1 1200 12 view .LVU314
 989 0036 0AE0     		b	.L85
 990              	.LVL55:
 991              	.L88:
1192:Drivers/STM32F4xx_HAL_Driver/Src/stm32f4xx_hal_can.c **** 
 992              		.loc 1 1192 9 is_stmt 1 view .LVU315
1192:Drivers/STM32F4xx_HAL_Driver/Src/stm32f4xx_hal_can.c **** 
 993              		.loc 1 1192 25 is_stmt 0 view .LVU316
 994 0038 436A     		ldr	r3, [r0, #36]
 995 003a 43F40033 		orr	r3, r3, #131072
 996 003e 4362     		str	r3, [r0, #36]
1194:Drivers/STM32F4xx_HAL_Driver/Src/stm32f4xx_hal_can.c ****       }
 997              		.loc 1 1194 9 is_stmt 1 view .LVU317
1194:Drivers/STM32F4xx_HAL_Driver/Src/stm32f4xx_hal_can.c ****       }
 998              		.loc 1 1194 16 is_stmt 0 view .LVU318
 999 0040 0120     		movs	r0, #1
 1000              	.LVL56:
1194:Drivers/STM32F4xx_HAL_Driver/Src/stm32f4xx_hal_can.c ****       }
 1001              		.loc 1 1194 16 view .LVU319
 1002 0042 04E0     		b	.L85
 1003              	.LVL57:
 1004              	.L83:
1201:Drivers/STM32F4xx_HAL_Driver/Src/stm32f4xx_hal_can.c ****   }
1202:Drivers/STM32F4xx_HAL_Driver/Src/stm32f4xx_hal_can.c ****   else
1203:Drivers/STM32F4xx_HAL_Driver/Src/stm32f4xx_hal_can.c ****   {
1204:Drivers/STM32F4xx_HAL_Driver/Src/stm32f4xx_hal_can.c ****     /* Update error code */
1205:Drivers/STM32F4xx_HAL_Driver/Src/stm32f4xx_hal_can.c ****     hcan->ErrorCode |= HAL_CAN_ERROR_NOT_INITIALIZED;
 1005              		.loc 1 1205 5 is_stmt 1 view .LVU320
 1006              		.loc 1 1205 21 is_stmt 0 view .LVU321
 1007 0044 436A     		ldr	r3, [r0, #36]
 1008 0046 43F48023 		orr	r3, r3, #262144
 1009 004a 4362     		str	r3, [r0, #36]
1206:Drivers/STM32F4xx_HAL_Driver/Src/stm32f4xx_hal_can.c **** 
1207:Drivers/STM32F4xx_HAL_Driver/Src/stm32f4xx_hal_can.c ****     return HAL_ERROR;
 1010              		.loc 1 1207 5 is_stmt 1 view .LVU322
 1011              		.loc 1 1207 12 is_stmt 0 view .LVU323
 1012 004c 0120     		movs	r0, #1
 1013              	.LVL58:
 1014              	.L85:
1208:Drivers/STM32F4xx_HAL_Driver/Src/stm32f4xx_hal_can.c ****   }
1209:Drivers/STM32F4xx_HAL_Driver/Src/stm32f4xx_hal_can.c **** }
 1015              		.loc 1 1209 1 view .LVU324
 1016 004e 02B0     		add	sp, sp, #8
 1017              	.LCFI8:
 1018              		.cfi_def_cfa_offset 0
ARM GAS  C:\Users\12990\AppData\Local\Temp\ccxhiVmA.s 			page 44


 1019              		@ sp needed
 1020 0050 7047     		bx	lr
 1021              	.L90:
 1022 0052 00BF     		.align	2
 1023              	.L89:
 1024 0054 40420F00 		.word	1000000
 1025              		.cfi_endproc
 1026              	.LFE138:
 1028              		.section	.text.HAL_CAN_IsSleepActive,"ax",%progbits
 1029              		.align	1
 1030              		.global	HAL_CAN_IsSleepActive
 1031              		.syntax unified
 1032              		.thumb
 1033              		.thumb_func
 1035              	HAL_CAN_IsSleepActive:
 1036              	.LVL59:
 1037              	.LFB139:
1210:Drivers/STM32F4xx_HAL_Driver/Src/stm32f4xx_hal_can.c **** 
1211:Drivers/STM32F4xx_HAL_Driver/Src/stm32f4xx_hal_can.c **** /**
1212:Drivers/STM32F4xx_HAL_Driver/Src/stm32f4xx_hal_can.c ****   * @brief  Check is sleep mode is active.
1213:Drivers/STM32F4xx_HAL_Driver/Src/stm32f4xx_hal_can.c ****   * @param  hcan pointer to a CAN_HandleTypeDef structure that contains
1214:Drivers/STM32F4xx_HAL_Driver/Src/stm32f4xx_hal_can.c ****   *         the configuration information for the specified CAN.
1215:Drivers/STM32F4xx_HAL_Driver/Src/stm32f4xx_hal_can.c ****   * @retval Status
1216:Drivers/STM32F4xx_HAL_Driver/Src/stm32f4xx_hal_can.c ****   *          - 0 : Sleep mode is not active.
1217:Drivers/STM32F4xx_HAL_Driver/Src/stm32f4xx_hal_can.c ****   *          - 1 : Sleep mode is active.
1218:Drivers/STM32F4xx_HAL_Driver/Src/stm32f4xx_hal_can.c ****   */
1219:Drivers/STM32F4xx_HAL_Driver/Src/stm32f4xx_hal_can.c **** uint32_t HAL_CAN_IsSleepActive(CAN_HandleTypeDef *hcan)
1220:Drivers/STM32F4xx_HAL_Driver/Src/stm32f4xx_hal_can.c **** {
 1038              		.loc 1 1220 1 is_stmt 1 view -0
 1039              		.cfi_startproc
 1040              		@ args = 0, pretend = 0, frame = 0
 1041              		@ frame_needed = 0, uses_anonymous_args = 0
 1042              		@ link register save eliminated.
1221:Drivers/STM32F4xx_HAL_Driver/Src/stm32f4xx_hal_can.c ****   uint32_t status = 0U;
 1043              		.loc 1 1221 3 view .LVU326
1222:Drivers/STM32F4xx_HAL_Driver/Src/stm32f4xx_hal_can.c ****   HAL_CAN_StateTypeDef state = hcan->State;
 1044              		.loc 1 1222 3 view .LVU327
 1045              		.loc 1 1222 24 is_stmt 0 view .LVU328
 1046 0000 90F82030 		ldrb	r3, [r0, #32]	@ zero_extendqisi2
 1047              	.LVL60:
1223:Drivers/STM32F4xx_HAL_Driver/Src/stm32f4xx_hal_can.c **** 
1224:Drivers/STM32F4xx_HAL_Driver/Src/stm32f4xx_hal_can.c ****   if ((state == HAL_CAN_STATE_READY) ||
 1048              		.loc 1 1224 3 is_stmt 1 view .LVU329
 1049              		.loc 1 1224 38 is_stmt 0 view .LVU330
 1050 0004 013B     		subs	r3, r3, #1
 1051              	.LVL61:
 1052              		.loc 1 1224 38 view .LVU331
 1053 0006 DBB2     		uxtb	r3, r3
 1054              		.loc 1 1224 6 view .LVU332
 1055 0008 012B     		cmp	r3, #1
 1056 000a 01D9     		bls	.L95
1221:Drivers/STM32F4xx_HAL_Driver/Src/stm32f4xx_hal_can.c ****   HAL_CAN_StateTypeDef state = hcan->State;
 1057              		.loc 1 1221 12 view .LVU333
 1058 000c 0020     		movs	r0, #0
 1059              	.LVL62:
1221:Drivers/STM32F4xx_HAL_Driver/Src/stm32f4xx_hal_can.c ****   HAL_CAN_StateTypeDef state = hcan->State;
 1060              		.loc 1 1221 12 view .LVU334
ARM GAS  C:\Users\12990\AppData\Local\Temp\ccxhiVmA.s 			page 45


 1061 000e 7047     		bx	lr
 1062              	.LVL63:
 1063              	.L95:
1225:Drivers/STM32F4xx_HAL_Driver/Src/stm32f4xx_hal_can.c ****       (state == HAL_CAN_STATE_LISTENING))
1226:Drivers/STM32F4xx_HAL_Driver/Src/stm32f4xx_hal_can.c ****   {
1227:Drivers/STM32F4xx_HAL_Driver/Src/stm32f4xx_hal_can.c ****     /* Check Sleep mode */
1228:Drivers/STM32F4xx_HAL_Driver/Src/stm32f4xx_hal_can.c ****     if ((hcan->Instance->MSR & CAN_MSR_SLAK) != 0U)
 1064              		.loc 1 1228 5 is_stmt 1 view .LVU335
 1065              		.loc 1 1228 14 is_stmt 0 view .LVU336
 1066 0010 0368     		ldr	r3, [r0]
 1067              		.loc 1 1228 24 view .LVU337
 1068 0012 5868     		ldr	r0, [r3, #4]
 1069              	.LVL64:
 1070              		.loc 1 1228 8 view .LVU338
 1071 0014 10F00200 		ands	r0, r0, #2
 1072 0018 00D1     		bne	.L94
 1073 001a 7047     		bx	lr
 1074              	.L94:
1229:Drivers/STM32F4xx_HAL_Driver/Src/stm32f4xx_hal_can.c ****     {
1230:Drivers/STM32F4xx_HAL_Driver/Src/stm32f4xx_hal_can.c ****       status = 1U;
 1075              		.loc 1 1230 14 view .LVU339
 1076 001c 0120     		movs	r0, #1
 1077              	.LVL65:
1231:Drivers/STM32F4xx_HAL_Driver/Src/stm32f4xx_hal_can.c ****     }
1232:Drivers/STM32F4xx_HAL_Driver/Src/stm32f4xx_hal_can.c ****   }
1233:Drivers/STM32F4xx_HAL_Driver/Src/stm32f4xx_hal_can.c **** 
1234:Drivers/STM32F4xx_HAL_Driver/Src/stm32f4xx_hal_can.c ****   /* Return function status */
1235:Drivers/STM32F4xx_HAL_Driver/Src/stm32f4xx_hal_can.c ****   return status;
 1078              		.loc 1 1235 3 is_stmt 1 view .LVU340
1236:Drivers/STM32F4xx_HAL_Driver/Src/stm32f4xx_hal_can.c **** }
 1079              		.loc 1 1236 1 is_stmt 0 view .LVU341
 1080 001e 7047     		bx	lr
 1081              		.cfi_endproc
 1082              	.LFE139:
 1084              		.section	.text.HAL_CAN_AddTxMessage,"ax",%progbits
 1085              		.align	1
 1086              		.global	HAL_CAN_AddTxMessage
 1087              		.syntax unified
 1088              		.thumb
 1089              		.thumb_func
 1091              	HAL_CAN_AddTxMessage:
 1092              	.LVL66:
 1093              	.LFB140:
1237:Drivers/STM32F4xx_HAL_Driver/Src/stm32f4xx_hal_can.c **** 
1238:Drivers/STM32F4xx_HAL_Driver/Src/stm32f4xx_hal_can.c **** /**
1239:Drivers/STM32F4xx_HAL_Driver/Src/stm32f4xx_hal_can.c ****   * @brief  Add a message to the first free Tx mailbox and activate the
1240:Drivers/STM32F4xx_HAL_Driver/Src/stm32f4xx_hal_can.c ****   *         corresponding transmission request.
1241:Drivers/STM32F4xx_HAL_Driver/Src/stm32f4xx_hal_can.c ****   * @param  hcan pointer to a CAN_HandleTypeDef structure that contains
1242:Drivers/STM32F4xx_HAL_Driver/Src/stm32f4xx_hal_can.c ****   *         the configuration information for the specified CAN.
1243:Drivers/STM32F4xx_HAL_Driver/Src/stm32f4xx_hal_can.c ****   * @param  pHeader pointer to a CAN_TxHeaderTypeDef structure.
1244:Drivers/STM32F4xx_HAL_Driver/Src/stm32f4xx_hal_can.c ****   * @param  aData array containing the payload of the Tx frame.
1245:Drivers/STM32F4xx_HAL_Driver/Src/stm32f4xx_hal_can.c ****   * @param  pTxMailbox pointer to a variable where the function will return
1246:Drivers/STM32F4xx_HAL_Driver/Src/stm32f4xx_hal_can.c ****   *         the TxMailbox used to store the Tx message.
1247:Drivers/STM32F4xx_HAL_Driver/Src/stm32f4xx_hal_can.c ****   *         This parameter can be a value of @arg CAN_Tx_Mailboxes.
1248:Drivers/STM32F4xx_HAL_Driver/Src/stm32f4xx_hal_can.c ****   * @retval HAL status
1249:Drivers/STM32F4xx_HAL_Driver/Src/stm32f4xx_hal_can.c ****   */
1250:Drivers/STM32F4xx_HAL_Driver/Src/stm32f4xx_hal_can.c **** HAL_StatusTypeDef HAL_CAN_AddTxMessage(CAN_HandleTypeDef *hcan, CAN_TxHeaderTypeDef *pHeader, uint8
ARM GAS  C:\Users\12990\AppData\Local\Temp\ccxhiVmA.s 			page 46


1251:Drivers/STM32F4xx_HAL_Driver/Src/stm32f4xx_hal_can.c **** {
 1094              		.loc 1 1251 1 is_stmt 1 view -0
 1095              		.cfi_startproc
 1096              		@ args = 0, pretend = 0, frame = 0
 1097              		@ frame_needed = 0, uses_anonymous_args = 0
 1098              		.loc 1 1251 1 is_stmt 0 view .LVU343
 1099 0000 30B5     		push	{r4, r5, lr}
 1100              	.LCFI9:
 1101              		.cfi_def_cfa_offset 12
 1102              		.cfi_offset 4, -12
 1103              		.cfi_offset 5, -8
 1104              		.cfi_offset 14, -4
1252:Drivers/STM32F4xx_HAL_Driver/Src/stm32f4xx_hal_can.c ****   uint32_t transmitmailbox;
 1105              		.loc 1 1252 3 is_stmt 1 view .LVU344
1253:Drivers/STM32F4xx_HAL_Driver/Src/stm32f4xx_hal_can.c ****   HAL_CAN_StateTypeDef state = hcan->State;
 1106              		.loc 1 1253 3 view .LVU345
 1107              		.loc 1 1253 24 is_stmt 0 view .LVU346
 1108 0002 90F820C0 		ldrb	ip, [r0, #32]	@ zero_extendqisi2
 1109              	.LVL67:
1254:Drivers/STM32F4xx_HAL_Driver/Src/stm32f4xx_hal_can.c ****   uint32_t tsr = READ_REG(hcan->Instance->TSR);
 1110              		.loc 1 1254 3 is_stmt 1 view .LVU347
 1111              		.loc 1 1254 12 is_stmt 0 view .LVU348
 1112 0006 0468     		ldr	r4, [r0]
 1113 0008 A468     		ldr	r4, [r4, #8]
 1114              	.LVL68:
1255:Drivers/STM32F4xx_HAL_Driver/Src/stm32f4xx_hal_can.c **** 
1256:Drivers/STM32F4xx_HAL_Driver/Src/stm32f4xx_hal_can.c ****   /* Check the parameters */
1257:Drivers/STM32F4xx_HAL_Driver/Src/stm32f4xx_hal_can.c ****   assert_param(IS_CAN_IDTYPE(pHeader->IDE));
 1115              		.loc 1 1257 3 is_stmt 1 view .LVU349
1258:Drivers/STM32F4xx_HAL_Driver/Src/stm32f4xx_hal_can.c ****   assert_param(IS_CAN_RTR(pHeader->RTR));
 1116              		.loc 1 1258 3 view .LVU350
1259:Drivers/STM32F4xx_HAL_Driver/Src/stm32f4xx_hal_can.c ****   assert_param(IS_CAN_DLC(pHeader->DLC));
 1117              		.loc 1 1259 3 view .LVU351
1260:Drivers/STM32F4xx_HAL_Driver/Src/stm32f4xx_hal_can.c ****   if (pHeader->IDE == CAN_ID_STD)
 1118              		.loc 1 1260 3 view .LVU352
1261:Drivers/STM32F4xx_HAL_Driver/Src/stm32f4xx_hal_can.c ****   {
1262:Drivers/STM32F4xx_HAL_Driver/Src/stm32f4xx_hal_can.c ****     assert_param(IS_CAN_STDID(pHeader->StdId));
1263:Drivers/STM32F4xx_HAL_Driver/Src/stm32f4xx_hal_can.c ****   }
1264:Drivers/STM32F4xx_HAL_Driver/Src/stm32f4xx_hal_can.c ****   else
1265:Drivers/STM32F4xx_HAL_Driver/Src/stm32f4xx_hal_can.c ****   {
1266:Drivers/STM32F4xx_HAL_Driver/Src/stm32f4xx_hal_can.c ****     assert_param(IS_CAN_EXTID(pHeader->ExtId));
 1119              		.loc 1 1266 5 view .LVU353
1267:Drivers/STM32F4xx_HAL_Driver/Src/stm32f4xx_hal_can.c ****   }
1268:Drivers/STM32F4xx_HAL_Driver/Src/stm32f4xx_hal_can.c ****   assert_param(IS_FUNCTIONAL_STATE(pHeader->TransmitGlobalTime));
 1120              		.loc 1 1268 3 view .LVU354
1269:Drivers/STM32F4xx_HAL_Driver/Src/stm32f4xx_hal_can.c **** 
1270:Drivers/STM32F4xx_HAL_Driver/Src/stm32f4xx_hal_can.c ****   if ((state == HAL_CAN_STATE_READY) ||
 1121              		.loc 1 1270 3 view .LVU355
 1122              		.loc 1 1270 38 is_stmt 0 view .LVU356
 1123 000a 0CF1FF3C 		add	ip, ip, #-1
 1124              	.LVL69:
 1125              		.loc 1 1270 38 view .LVU357
 1126 000e 5FFA8CFC 		uxtb	ip, ip
 1127              		.loc 1 1270 6 view .LVU358
 1128 0012 BCF1010F 		cmp	ip, #1
 1129 0016 6BD8     		bhi	.L97
1271:Drivers/STM32F4xx_HAL_Driver/Src/stm32f4xx_hal_can.c ****       (state == HAL_CAN_STATE_LISTENING))
ARM GAS  C:\Users\12990\AppData\Local\Temp\ccxhiVmA.s 			page 47


1272:Drivers/STM32F4xx_HAL_Driver/Src/stm32f4xx_hal_can.c ****   {
1273:Drivers/STM32F4xx_HAL_Driver/Src/stm32f4xx_hal_can.c ****     /* Check that all the Tx mailboxes are not full */
1274:Drivers/STM32F4xx_HAL_Driver/Src/stm32f4xx_hal_can.c ****     if (((tsr & CAN_TSR_TME0) != 0U) ||
 1130              		.loc 1 1274 5 is_stmt 1 view .LVU359
 1131              		.loc 1 1274 8 is_stmt 0 view .LVU360
 1132 0018 14F0E05F 		tst	r4, #469762048
 1133 001c 62D0     		beq	.L98
1275:Drivers/STM32F4xx_HAL_Driver/Src/stm32f4xx_hal_can.c ****         ((tsr & CAN_TSR_TME1) != 0U) ||
1276:Drivers/STM32F4xx_HAL_Driver/Src/stm32f4xx_hal_can.c ****         ((tsr & CAN_TSR_TME2) != 0U))
1277:Drivers/STM32F4xx_HAL_Driver/Src/stm32f4xx_hal_can.c ****     {
1278:Drivers/STM32F4xx_HAL_Driver/Src/stm32f4xx_hal_can.c ****       /* Select an empty transmit mailbox */
1279:Drivers/STM32F4xx_HAL_Driver/Src/stm32f4xx_hal_can.c ****       transmitmailbox = (tsr & CAN_TSR_CODE) >> CAN_TSR_CODE_Pos;
 1134              		.loc 1 1279 7 is_stmt 1 view .LVU361
 1135              		.loc 1 1279 23 is_stmt 0 view .LVU362
 1136 001e C4F3016C 		ubfx	ip, r4, #24, #2
 1137              	.LVL70:
1280:Drivers/STM32F4xx_HAL_Driver/Src/stm32f4xx_hal_can.c **** 
1281:Drivers/STM32F4xx_HAL_Driver/Src/stm32f4xx_hal_can.c ****       /* Check transmit mailbox value */
1282:Drivers/STM32F4xx_HAL_Driver/Src/stm32f4xx_hal_can.c ****       if (transmitmailbox > 2U)
 1138              		.loc 1 1282 7 is_stmt 1 view .LVU363
 1139              		.loc 1 1282 10 is_stmt 0 view .LVU364
 1140 0022 BCF1020F 		cmp	ip, #2
 1141 0026 05D9     		bls	.L99
1283:Drivers/STM32F4xx_HAL_Driver/Src/stm32f4xx_hal_can.c ****       {
1284:Drivers/STM32F4xx_HAL_Driver/Src/stm32f4xx_hal_can.c ****         /* Update error code */
1285:Drivers/STM32F4xx_HAL_Driver/Src/stm32f4xx_hal_can.c ****         hcan->ErrorCode |= HAL_CAN_ERROR_INTERNAL;
 1142              		.loc 1 1285 9 is_stmt 1 view .LVU365
 1143              		.loc 1 1285 25 is_stmt 0 view .LVU366
 1144 0028 436A     		ldr	r3, [r0, #36]
 1145              	.LVL71:
 1146              		.loc 1 1285 25 view .LVU367
 1147 002a 43F40003 		orr	r3, r3, #8388608
 1148 002e 4362     		str	r3, [r0, #36]
1286:Drivers/STM32F4xx_HAL_Driver/Src/stm32f4xx_hal_can.c **** 
1287:Drivers/STM32F4xx_HAL_Driver/Src/stm32f4xx_hal_can.c ****         return HAL_ERROR;
 1149              		.loc 1 1287 9 is_stmt 1 view .LVU368
 1150              		.loc 1 1287 16 is_stmt 0 view .LVU369
 1151 0030 0120     		movs	r0, #1
 1152              	.LVL72:
 1153              		.loc 1 1287 16 view .LVU370
 1154 0032 62E0     		b	.L100
 1155              	.LVL73:
 1156              	.L99:
1288:Drivers/STM32F4xx_HAL_Driver/Src/stm32f4xx_hal_can.c ****       }
1289:Drivers/STM32F4xx_HAL_Driver/Src/stm32f4xx_hal_can.c **** 
1290:Drivers/STM32F4xx_HAL_Driver/Src/stm32f4xx_hal_can.c ****       /* Store the Tx mailbox */
1291:Drivers/STM32F4xx_HAL_Driver/Src/stm32f4xx_hal_can.c ****       *pTxMailbox = (uint32_t)1 << transmitmailbox;
 1157              		.loc 1 1291 7 is_stmt 1 view .LVU371
 1158              		.loc 1 1291 33 is_stmt 0 view .LVU372
 1159 0034 0124     		movs	r4, #1
 1160              	.LVL74:
 1161              		.loc 1 1291 33 view .LVU373
 1162 0036 04FA0CF4 		lsl	r4, r4, ip
 1163              		.loc 1 1291 19 view .LVU374
 1164 003a 1C60     		str	r4, [r3]
1292:Drivers/STM32F4xx_HAL_Driver/Src/stm32f4xx_hal_can.c **** 
1293:Drivers/STM32F4xx_HAL_Driver/Src/stm32f4xx_hal_can.c ****       /* Set up the Id */
ARM GAS  C:\Users\12990\AppData\Local\Temp\ccxhiVmA.s 			page 48


1294:Drivers/STM32F4xx_HAL_Driver/Src/stm32f4xx_hal_can.c ****       if (pHeader->IDE == CAN_ID_STD)
 1165              		.loc 1 1294 7 is_stmt 1 view .LVU375
 1166              		.loc 1 1294 18 is_stmt 0 view .LVU376
 1167 003c 8B68     		ldr	r3, [r1, #8]
 1168              	.LVL75:
 1169              		.loc 1 1294 10 view .LVU377
 1170 003e 002B     		cmp	r3, #0
 1171 0040 3DD1     		bne	.L101
1295:Drivers/STM32F4xx_HAL_Driver/Src/stm32f4xx_hal_can.c ****       {
1296:Drivers/STM32F4xx_HAL_Driver/Src/stm32f4xx_hal_can.c ****         hcan->Instance->sTxMailBox[transmitmailbox].TIR = ((pHeader->StdId << CAN_TI0R_STID_Pos) |
 1172              		.loc 1 1296 9 is_stmt 1 view .LVU378
 1173              		.loc 1 1296 68 is_stmt 0 view .LVU379
 1174 0042 0D68     		ldr	r5, [r1]
1297:Drivers/STM32F4xx_HAL_Driver/Src/stm32f4xx_hal_can.c ****                                                            pHeader->RTR);
 1175              		.loc 1 1297 67 view .LVU380
 1176 0044 CB68     		ldr	r3, [r1, #12]
1296:Drivers/STM32F4xx_HAL_Driver/Src/stm32f4xx_hal_can.c ****                                                            pHeader->RTR);
 1177              		.loc 1 1296 13 view .LVU381
 1178 0046 0468     		ldr	r4, [r0]
1296:Drivers/STM32F4xx_HAL_Driver/Src/stm32f4xx_hal_can.c ****                                                            pHeader->RTR);
 1179              		.loc 1 1296 98 view .LVU382
 1180 0048 43EA4555 		orr	r5, r3, r5, lsl #21
1296:Drivers/STM32F4xx_HAL_Driver/Src/stm32f4xx_hal_can.c ****                                                            pHeader->RTR);
 1181              		.loc 1 1296 57 view .LVU383
 1182 004c 0CF11803 		add	r3, ip, #24
 1183 0050 1B01     		lsls	r3, r3, #4
 1184 0052 E550     		str	r5, [r4, r3]
 1185              	.L102:
1298:Drivers/STM32F4xx_HAL_Driver/Src/stm32f4xx_hal_can.c ****       }
1299:Drivers/STM32F4xx_HAL_Driver/Src/stm32f4xx_hal_can.c ****       else
1300:Drivers/STM32F4xx_HAL_Driver/Src/stm32f4xx_hal_can.c ****       {
1301:Drivers/STM32F4xx_HAL_Driver/Src/stm32f4xx_hal_can.c ****         hcan->Instance->sTxMailBox[transmitmailbox].TIR = ((pHeader->ExtId << CAN_TI0R_EXID_Pos) |
1302:Drivers/STM32F4xx_HAL_Driver/Src/stm32f4xx_hal_can.c ****                                                            pHeader->IDE |
1303:Drivers/STM32F4xx_HAL_Driver/Src/stm32f4xx_hal_can.c ****                                                            pHeader->RTR);
1304:Drivers/STM32F4xx_HAL_Driver/Src/stm32f4xx_hal_can.c ****       }
1305:Drivers/STM32F4xx_HAL_Driver/Src/stm32f4xx_hal_can.c **** 
1306:Drivers/STM32F4xx_HAL_Driver/Src/stm32f4xx_hal_can.c ****       /* Set up the DLC */
1307:Drivers/STM32F4xx_HAL_Driver/Src/stm32f4xx_hal_can.c ****       hcan->Instance->sTxMailBox[transmitmailbox].TDTR = (pHeader->DLC);
 1186              		.loc 1 1307 7 is_stmt 1 view .LVU384
 1187              		.loc 1 1307 11 is_stmt 0 view .LVU385
 1188 0054 0368     		ldr	r3, [r0]
 1189              		.loc 1 1307 66 view .LVU386
 1190 0056 0C69     		ldr	r4, [r1, #16]
 1191              		.loc 1 1307 56 view .LVU387
 1192 0058 0CF1180E 		add	lr, ip, #24
 1193 005c 03EB0E13 		add	r3, r3, lr, lsl #4
 1194 0060 5C60     		str	r4, [r3, #4]
1308:Drivers/STM32F4xx_HAL_Driver/Src/stm32f4xx_hal_can.c **** 
1309:Drivers/STM32F4xx_HAL_Driver/Src/stm32f4xx_hal_can.c ****       /* Set up the Transmit Global Time mode */
1310:Drivers/STM32F4xx_HAL_Driver/Src/stm32f4xx_hal_can.c ****       if (pHeader->TransmitGlobalTime == ENABLE)
 1195              		.loc 1 1310 7 is_stmt 1 view .LVU388
 1196              		.loc 1 1310 18 is_stmt 0 view .LVU389
 1197 0062 0B7D     		ldrb	r3, [r1, #20]	@ zero_extendqisi2
 1198              		.loc 1 1310 10 view .LVU390
 1199 0064 012B     		cmp	r3, #1
 1200 0066 35D0     		beq	.L105
 1201              	.LVL76:
ARM GAS  C:\Users\12990\AppData\Local\Temp\ccxhiVmA.s 			page 49


 1202              	.L103:
1311:Drivers/STM32F4xx_HAL_Driver/Src/stm32f4xx_hal_can.c ****       {
1312:Drivers/STM32F4xx_HAL_Driver/Src/stm32f4xx_hal_can.c ****         SET_BIT(hcan->Instance->sTxMailBox[transmitmailbox].TDTR, CAN_TDT0R_TGT);
1313:Drivers/STM32F4xx_HAL_Driver/Src/stm32f4xx_hal_can.c ****       }
1314:Drivers/STM32F4xx_HAL_Driver/Src/stm32f4xx_hal_can.c **** 
1315:Drivers/STM32F4xx_HAL_Driver/Src/stm32f4xx_hal_can.c ****       /* Set up the data field */
1316:Drivers/STM32F4xx_HAL_Driver/Src/stm32f4xx_hal_can.c ****       WRITE_REG(hcan->Instance->sTxMailBox[transmitmailbox].TDHR,
 1203              		.loc 1 1316 7 is_stmt 1 view .LVU391
 1204 0068 D179     		ldrb	r1, [r2, #7]	@ zero_extendqisi2
 1205 006a 9379     		ldrb	r3, [r2, #6]	@ zero_extendqisi2
 1206 006c 1B04     		lsls	r3, r3, #16
 1207 006e 43EA0163 		orr	r3, r3, r1, lsl #24
 1208 0072 5179     		ldrb	r1, [r2, #5]	@ zero_extendqisi2
 1209 0074 43EA0123 		orr	r3, r3, r1, lsl #8
 1210 0078 1479     		ldrb	r4, [r2, #4]	@ zero_extendqisi2
 1211 007a 0168     		ldr	r1, [r0]
 1212 007c 2343     		orrs	r3, r3, r4
 1213 007e 01EB0C11 		add	r1, r1, ip, lsl #4
 1214 0082 C1F88C31 		str	r3, [r1, #396]
1317:Drivers/STM32F4xx_HAL_Driver/Src/stm32f4xx_hal_can.c ****                 ((uint32_t)aData[7] << CAN_TDH0R_DATA7_Pos) |
1318:Drivers/STM32F4xx_HAL_Driver/Src/stm32f4xx_hal_can.c ****                 ((uint32_t)aData[6] << CAN_TDH0R_DATA6_Pos) |
1319:Drivers/STM32F4xx_HAL_Driver/Src/stm32f4xx_hal_can.c ****                 ((uint32_t)aData[5] << CAN_TDH0R_DATA5_Pos) |
1320:Drivers/STM32F4xx_HAL_Driver/Src/stm32f4xx_hal_can.c ****                 ((uint32_t)aData[4] << CAN_TDH0R_DATA4_Pos));
1321:Drivers/STM32F4xx_HAL_Driver/Src/stm32f4xx_hal_can.c ****       WRITE_REG(hcan->Instance->sTxMailBox[transmitmailbox].TDLR,
 1215              		.loc 1 1321 7 view .LVU392
 1216 0086 D178     		ldrb	r1, [r2, #3]	@ zero_extendqisi2
 1217 0088 9378     		ldrb	r3, [r2, #2]	@ zero_extendqisi2
 1218 008a 1B04     		lsls	r3, r3, #16
 1219 008c 43EA0163 		orr	r3, r3, r1, lsl #24
 1220 0090 5178     		ldrb	r1, [r2, #1]	@ zero_extendqisi2
 1221 0092 43EA0123 		orr	r3, r3, r1, lsl #8
 1222 0096 1178     		ldrb	r1, [r2]	@ zero_extendqisi2
 1223 0098 0268     		ldr	r2, [r0]
 1224              	.LVL77:
 1225              		.loc 1 1321 7 is_stmt 0 view .LVU393
 1226 009a 0B43     		orrs	r3, r3, r1
 1227 009c 02EB0C12 		add	r2, r2, ip, lsl #4
 1228 00a0 C2F88831 		str	r3, [r2, #392]
1322:Drivers/STM32F4xx_HAL_Driver/Src/stm32f4xx_hal_can.c ****                 ((uint32_t)aData[3] << CAN_TDL0R_DATA3_Pos) |
1323:Drivers/STM32F4xx_HAL_Driver/Src/stm32f4xx_hal_can.c ****                 ((uint32_t)aData[2] << CAN_TDL0R_DATA2_Pos) |
1324:Drivers/STM32F4xx_HAL_Driver/Src/stm32f4xx_hal_can.c ****                 ((uint32_t)aData[1] << CAN_TDL0R_DATA1_Pos) |
1325:Drivers/STM32F4xx_HAL_Driver/Src/stm32f4xx_hal_can.c ****                 ((uint32_t)aData[0] << CAN_TDL0R_DATA0_Pos));
1326:Drivers/STM32F4xx_HAL_Driver/Src/stm32f4xx_hal_can.c **** 
1327:Drivers/STM32F4xx_HAL_Driver/Src/stm32f4xx_hal_can.c ****       /* Request transmission */
1328:Drivers/STM32F4xx_HAL_Driver/Src/stm32f4xx_hal_can.c ****       SET_BIT(hcan->Instance->sTxMailBox[transmitmailbox].TIR, CAN_TI0R_TXRQ);
 1229              		.loc 1 1328 7 is_stmt 1 view .LVU394
 1230 00a4 0268     		ldr	r2, [r0]
 1231 00a6 0CF1180C 		add	ip, ip, #24
 1232              	.LVL78:
 1233              		.loc 1 1328 7 is_stmt 0 view .LVU395
 1234 00aa 4FEA0C1C 		lsl	ip, ip, #4
 1235 00ae 52F80C30 		ldr	r3, [r2, ip]
 1236 00b2 43F00103 		orr	r3, r3, #1
 1237 00b6 42F80C30 		str	r3, [r2, ip]
1329:Drivers/STM32F4xx_HAL_Driver/Src/stm32f4xx_hal_can.c **** 
1330:Drivers/STM32F4xx_HAL_Driver/Src/stm32f4xx_hal_can.c ****       /* Return function status */
1331:Drivers/STM32F4xx_HAL_Driver/Src/stm32f4xx_hal_can.c ****       return HAL_OK;
ARM GAS  C:\Users\12990\AppData\Local\Temp\ccxhiVmA.s 			page 50


 1238              		.loc 1 1331 7 is_stmt 1 view .LVU396
 1239              		.loc 1 1331 14 is_stmt 0 view .LVU397
 1240 00ba 0020     		movs	r0, #0
 1241              	.LVL79:
 1242              		.loc 1 1331 14 view .LVU398
 1243 00bc 1DE0     		b	.L100
 1244              	.LVL80:
 1245              	.L101:
1301:Drivers/STM32F4xx_HAL_Driver/Src/stm32f4xx_hal_can.c ****                                                            pHeader->IDE |
 1246              		.loc 1 1301 9 is_stmt 1 view .LVU399
1301:Drivers/STM32F4xx_HAL_Driver/Src/stm32f4xx_hal_can.c ****                                                            pHeader->IDE |
 1247              		.loc 1 1301 68 is_stmt 0 view .LVU400
 1248 00be 4C68     		ldr	r4, [r1, #4]
1301:Drivers/STM32F4xx_HAL_Driver/Src/stm32f4xx_hal_can.c ****                                                            pHeader->IDE |
 1249              		.loc 1 1301 98 view .LVU401
 1250 00c0 43EAC403 		orr	r3, r3, r4, lsl #3
1303:Drivers/STM32F4xx_HAL_Driver/Src/stm32f4xx_hal_can.c ****       }
 1251              		.loc 1 1303 67 view .LVU402
 1252 00c4 CC68     		ldr	r4, [r1, #12]
1302:Drivers/STM32F4xx_HAL_Driver/Src/stm32f4xx_hal_can.c ****                                                            pHeader->RTR);
 1253              		.loc 1 1302 73 view .LVU403
 1254 00c6 2343     		orrs	r3, r3, r4
1301:Drivers/STM32F4xx_HAL_Driver/Src/stm32f4xx_hal_can.c ****                                                            pHeader->IDE |
 1255              		.loc 1 1301 57 view .LVU404
 1256 00c8 0CF11804 		add	r4, ip, #24
 1257 00cc 2401     		lsls	r4, r4, #4
 1258 00ce 0568     		ldr	r5, [r0]
 1259 00d0 2B51     		str	r3, [r5, r4]
 1260 00d2 BFE7     		b	.L102
 1261              	.L105:
1312:Drivers/STM32F4xx_HAL_Driver/Src/stm32f4xx_hal_can.c ****       }
 1262              		.loc 1 1312 9 is_stmt 1 view .LVU405
 1263 00d4 0368     		ldr	r3, [r0]
 1264 00d6 03EB0E13 		add	r3, r3, lr, lsl #4
 1265 00da 5968     		ldr	r1, [r3, #4]
 1266              	.LVL81:
1312:Drivers/STM32F4xx_HAL_Driver/Src/stm32f4xx_hal_can.c ****       }
 1267              		.loc 1 1312 9 is_stmt 0 view .LVU406
 1268 00dc 41F48071 		orr	r1, r1, #256
 1269 00e0 5960     		str	r1, [r3, #4]
 1270 00e2 C1E7     		b	.L103
 1271              	.LVL82:
 1272              	.L98:
1332:Drivers/STM32F4xx_HAL_Driver/Src/stm32f4xx_hal_can.c ****     }
1333:Drivers/STM32F4xx_HAL_Driver/Src/stm32f4xx_hal_can.c ****     else
1334:Drivers/STM32F4xx_HAL_Driver/Src/stm32f4xx_hal_can.c ****     {
1335:Drivers/STM32F4xx_HAL_Driver/Src/stm32f4xx_hal_can.c ****       /* Update error code */
1336:Drivers/STM32F4xx_HAL_Driver/Src/stm32f4xx_hal_can.c ****       hcan->ErrorCode |= HAL_CAN_ERROR_PARAM;
 1273              		.loc 1 1336 7 is_stmt 1 view .LVU407
 1274              		.loc 1 1336 23 is_stmt 0 view .LVU408
 1275 00e4 436A     		ldr	r3, [r0, #36]
 1276              	.LVL83:
 1277              		.loc 1 1336 23 view .LVU409
 1278 00e6 43F40013 		orr	r3, r3, #2097152
 1279 00ea 4362     		str	r3, [r0, #36]
1337:Drivers/STM32F4xx_HAL_Driver/Src/stm32f4xx_hal_can.c **** 
1338:Drivers/STM32F4xx_HAL_Driver/Src/stm32f4xx_hal_can.c ****       return HAL_ERROR;
ARM GAS  C:\Users\12990\AppData\Local\Temp\ccxhiVmA.s 			page 51


 1280              		.loc 1 1338 7 is_stmt 1 view .LVU410
 1281              		.loc 1 1338 14 is_stmt 0 view .LVU411
 1282 00ec 0120     		movs	r0, #1
 1283              	.LVL84:
 1284              		.loc 1 1338 14 view .LVU412
 1285 00ee 04E0     		b	.L100
 1286              	.LVL85:
 1287              	.L97:
1339:Drivers/STM32F4xx_HAL_Driver/Src/stm32f4xx_hal_can.c ****     }
1340:Drivers/STM32F4xx_HAL_Driver/Src/stm32f4xx_hal_can.c ****   }
1341:Drivers/STM32F4xx_HAL_Driver/Src/stm32f4xx_hal_can.c ****   else
1342:Drivers/STM32F4xx_HAL_Driver/Src/stm32f4xx_hal_can.c ****   {
1343:Drivers/STM32F4xx_HAL_Driver/Src/stm32f4xx_hal_can.c ****     /* Update error code */
1344:Drivers/STM32F4xx_HAL_Driver/Src/stm32f4xx_hal_can.c ****     hcan->ErrorCode |= HAL_CAN_ERROR_NOT_INITIALIZED;
 1288              		.loc 1 1344 5 is_stmt 1 view .LVU413
 1289              		.loc 1 1344 21 is_stmt 0 view .LVU414
 1290 00f0 436A     		ldr	r3, [r0, #36]
 1291              	.LVL86:
 1292              		.loc 1 1344 21 view .LVU415
 1293 00f2 43F48023 		orr	r3, r3, #262144
 1294 00f6 4362     		str	r3, [r0, #36]
1345:Drivers/STM32F4xx_HAL_Driver/Src/stm32f4xx_hal_can.c **** 
1346:Drivers/STM32F4xx_HAL_Driver/Src/stm32f4xx_hal_can.c ****     return HAL_ERROR;
 1295              		.loc 1 1346 5 is_stmt 1 view .LVU416
 1296              		.loc 1 1346 12 is_stmt 0 view .LVU417
 1297 00f8 0120     		movs	r0, #1
 1298              	.LVL87:
 1299              	.L100:
1347:Drivers/STM32F4xx_HAL_Driver/Src/stm32f4xx_hal_can.c ****   }
1348:Drivers/STM32F4xx_HAL_Driver/Src/stm32f4xx_hal_can.c **** }
 1300              		.loc 1 1348 1 view .LVU418
 1301 00fa 30BD     		pop	{r4, r5, pc}
 1302              		.cfi_endproc
 1303              	.LFE140:
 1305              		.section	.text.HAL_CAN_AbortTxRequest,"ax",%progbits
 1306              		.align	1
 1307              		.global	HAL_CAN_AbortTxRequest
 1308              		.syntax unified
 1309              		.thumb
 1310              		.thumb_func
 1312              	HAL_CAN_AbortTxRequest:
 1313              	.LVL88:
 1314              	.LFB141:
1349:Drivers/STM32F4xx_HAL_Driver/Src/stm32f4xx_hal_can.c **** 
1350:Drivers/STM32F4xx_HAL_Driver/Src/stm32f4xx_hal_can.c **** /**
1351:Drivers/STM32F4xx_HAL_Driver/Src/stm32f4xx_hal_can.c ****   * @brief  Abort transmission requests
1352:Drivers/STM32F4xx_HAL_Driver/Src/stm32f4xx_hal_can.c ****   * @param  hcan pointer to an CAN_HandleTypeDef structure that contains
1353:Drivers/STM32F4xx_HAL_Driver/Src/stm32f4xx_hal_can.c ****   *         the configuration information for the specified CAN.
1354:Drivers/STM32F4xx_HAL_Driver/Src/stm32f4xx_hal_can.c ****   * @param  TxMailboxes List of the Tx Mailboxes to abort.
1355:Drivers/STM32F4xx_HAL_Driver/Src/stm32f4xx_hal_can.c ****   *         This parameter can be any combination of @arg CAN_Tx_Mailboxes.
1356:Drivers/STM32F4xx_HAL_Driver/Src/stm32f4xx_hal_can.c ****   * @retval HAL status
1357:Drivers/STM32F4xx_HAL_Driver/Src/stm32f4xx_hal_can.c ****   */
1358:Drivers/STM32F4xx_HAL_Driver/Src/stm32f4xx_hal_can.c **** HAL_StatusTypeDef HAL_CAN_AbortTxRequest(CAN_HandleTypeDef *hcan, uint32_t TxMailboxes)
1359:Drivers/STM32F4xx_HAL_Driver/Src/stm32f4xx_hal_can.c **** {
 1315              		.loc 1 1359 1 is_stmt 1 view -0
 1316              		.cfi_startproc
 1317              		@ args = 0, pretend = 0, frame = 0
ARM GAS  C:\Users\12990\AppData\Local\Temp\ccxhiVmA.s 			page 52


 1318              		@ frame_needed = 0, uses_anonymous_args = 0
 1319              		@ link register save eliminated.
1360:Drivers/STM32F4xx_HAL_Driver/Src/stm32f4xx_hal_can.c ****   HAL_CAN_StateTypeDef state = hcan->State;
 1320              		.loc 1 1360 3 view .LVU420
 1321              		.loc 1 1360 24 is_stmt 0 view .LVU421
 1322 0000 90F82030 		ldrb	r3, [r0, #32]	@ zero_extendqisi2
 1323              	.LVL89:
1361:Drivers/STM32F4xx_HAL_Driver/Src/stm32f4xx_hal_can.c **** 
1362:Drivers/STM32F4xx_HAL_Driver/Src/stm32f4xx_hal_can.c ****   /* Check function parameters */
1363:Drivers/STM32F4xx_HAL_Driver/Src/stm32f4xx_hal_can.c ****   assert_param(IS_CAN_TX_MAILBOX_LIST(TxMailboxes));
 1324              		.loc 1 1363 3 is_stmt 1 view .LVU422
1364:Drivers/STM32F4xx_HAL_Driver/Src/stm32f4xx_hal_can.c **** 
1365:Drivers/STM32F4xx_HAL_Driver/Src/stm32f4xx_hal_can.c ****   if ((state == HAL_CAN_STATE_READY) ||
 1325              		.loc 1 1365 3 view .LVU423
 1326              		.loc 1 1365 38 is_stmt 0 view .LVU424
 1327 0004 013B     		subs	r3, r3, #1
 1328              	.LVL90:
 1329              		.loc 1 1365 38 view .LVU425
 1330 0006 DBB2     		uxtb	r3, r3
 1331              		.loc 1 1365 6 view .LVU426
 1332 0008 012B     		cmp	r3, #1
 1333 000a 05D9     		bls	.L112
1366:Drivers/STM32F4xx_HAL_Driver/Src/stm32f4xx_hal_can.c ****       (state == HAL_CAN_STATE_LISTENING))
1367:Drivers/STM32F4xx_HAL_Driver/Src/stm32f4xx_hal_can.c ****   {
1368:Drivers/STM32F4xx_HAL_Driver/Src/stm32f4xx_hal_can.c ****     /* Check Tx Mailbox 0 */
1369:Drivers/STM32F4xx_HAL_Driver/Src/stm32f4xx_hal_can.c ****     if ((TxMailboxes & CAN_TX_MAILBOX0) != 0U)
1370:Drivers/STM32F4xx_HAL_Driver/Src/stm32f4xx_hal_can.c ****     {
1371:Drivers/STM32F4xx_HAL_Driver/Src/stm32f4xx_hal_can.c ****       /* Add cancellation request for Tx Mailbox 0 */
1372:Drivers/STM32F4xx_HAL_Driver/Src/stm32f4xx_hal_can.c ****       SET_BIT(hcan->Instance->TSR, CAN_TSR_ABRQ0);
1373:Drivers/STM32F4xx_HAL_Driver/Src/stm32f4xx_hal_can.c ****     }
1374:Drivers/STM32F4xx_HAL_Driver/Src/stm32f4xx_hal_can.c **** 
1375:Drivers/STM32F4xx_HAL_Driver/Src/stm32f4xx_hal_can.c ****     /* Check Tx Mailbox 1 */
1376:Drivers/STM32F4xx_HAL_Driver/Src/stm32f4xx_hal_can.c ****     if ((TxMailboxes & CAN_TX_MAILBOX1) != 0U)
1377:Drivers/STM32F4xx_HAL_Driver/Src/stm32f4xx_hal_can.c ****     {
1378:Drivers/STM32F4xx_HAL_Driver/Src/stm32f4xx_hal_can.c ****       /* Add cancellation request for Tx Mailbox 1 */
1379:Drivers/STM32F4xx_HAL_Driver/Src/stm32f4xx_hal_can.c ****       SET_BIT(hcan->Instance->TSR, CAN_TSR_ABRQ1);
1380:Drivers/STM32F4xx_HAL_Driver/Src/stm32f4xx_hal_can.c ****     }
1381:Drivers/STM32F4xx_HAL_Driver/Src/stm32f4xx_hal_can.c **** 
1382:Drivers/STM32F4xx_HAL_Driver/Src/stm32f4xx_hal_can.c ****     /* Check Tx Mailbox 2 */
1383:Drivers/STM32F4xx_HAL_Driver/Src/stm32f4xx_hal_can.c ****     if ((TxMailboxes & CAN_TX_MAILBOX2) != 0U)
1384:Drivers/STM32F4xx_HAL_Driver/Src/stm32f4xx_hal_can.c ****     {
1385:Drivers/STM32F4xx_HAL_Driver/Src/stm32f4xx_hal_can.c ****       /* Add cancellation request for Tx Mailbox 2 */
1386:Drivers/STM32F4xx_HAL_Driver/Src/stm32f4xx_hal_can.c ****       SET_BIT(hcan->Instance->TSR, CAN_TSR_ABRQ2);
1387:Drivers/STM32F4xx_HAL_Driver/Src/stm32f4xx_hal_can.c ****     }
1388:Drivers/STM32F4xx_HAL_Driver/Src/stm32f4xx_hal_can.c **** 
1389:Drivers/STM32F4xx_HAL_Driver/Src/stm32f4xx_hal_can.c ****     /* Return function status */
1390:Drivers/STM32F4xx_HAL_Driver/Src/stm32f4xx_hal_can.c ****     return HAL_OK;
1391:Drivers/STM32F4xx_HAL_Driver/Src/stm32f4xx_hal_can.c ****   }
1392:Drivers/STM32F4xx_HAL_Driver/Src/stm32f4xx_hal_can.c ****   else
1393:Drivers/STM32F4xx_HAL_Driver/Src/stm32f4xx_hal_can.c ****   {
1394:Drivers/STM32F4xx_HAL_Driver/Src/stm32f4xx_hal_can.c ****     /* Update error code */
1395:Drivers/STM32F4xx_HAL_Driver/Src/stm32f4xx_hal_can.c ****     hcan->ErrorCode |= HAL_CAN_ERROR_NOT_INITIALIZED;
 1334              		.loc 1 1395 5 is_stmt 1 view .LVU427
 1335              		.loc 1 1395 21 is_stmt 0 view .LVU428
 1336 000c 436A     		ldr	r3, [r0, #36]
 1337 000e 43F48023 		orr	r3, r3, #262144
 1338 0012 4362     		str	r3, [r0, #36]
ARM GAS  C:\Users\12990\AppData\Local\Temp\ccxhiVmA.s 			page 53


1396:Drivers/STM32F4xx_HAL_Driver/Src/stm32f4xx_hal_can.c **** 
1397:Drivers/STM32F4xx_HAL_Driver/Src/stm32f4xx_hal_can.c ****     return HAL_ERROR;
 1339              		.loc 1 1397 5 is_stmt 1 view .LVU429
 1340              		.loc 1 1397 12 is_stmt 0 view .LVU430
 1341 0014 0120     		movs	r0, #1
 1342              	.LVL91:
1398:Drivers/STM32F4xx_HAL_Driver/Src/stm32f4xx_hal_can.c ****   }
1399:Drivers/STM32F4xx_HAL_Driver/Src/stm32f4xx_hal_can.c **** }
 1343              		.loc 1 1399 1 view .LVU431
 1344 0016 7047     		bx	lr
 1345              	.LVL92:
 1346              	.L112:
1369:Drivers/STM32F4xx_HAL_Driver/Src/stm32f4xx_hal_can.c ****     {
 1347              		.loc 1 1369 5 is_stmt 1 view .LVU432
1369:Drivers/STM32F4xx_HAL_Driver/Src/stm32f4xx_hal_can.c ****     {
 1348              		.loc 1 1369 8 is_stmt 0 view .LVU433
 1349 0018 11F0010F 		tst	r1, #1
 1350 001c 04D0     		beq	.L108
1372:Drivers/STM32F4xx_HAL_Driver/Src/stm32f4xx_hal_can.c ****     }
 1351              		.loc 1 1372 7 is_stmt 1 view .LVU434
 1352 001e 0268     		ldr	r2, [r0]
 1353 0020 9368     		ldr	r3, [r2, #8]
 1354 0022 43F08003 		orr	r3, r3, #128
 1355 0026 9360     		str	r3, [r2, #8]
 1356              	.L108:
1376:Drivers/STM32F4xx_HAL_Driver/Src/stm32f4xx_hal_can.c ****     {
 1357              		.loc 1 1376 5 view .LVU435
1376:Drivers/STM32F4xx_HAL_Driver/Src/stm32f4xx_hal_can.c ****     {
 1358              		.loc 1 1376 8 is_stmt 0 view .LVU436
 1359 0028 11F0020F 		tst	r1, #2
 1360 002c 04D0     		beq	.L109
1379:Drivers/STM32F4xx_HAL_Driver/Src/stm32f4xx_hal_can.c ****     }
 1361              		.loc 1 1379 7 is_stmt 1 view .LVU437
 1362 002e 0268     		ldr	r2, [r0]
 1363 0030 9368     		ldr	r3, [r2, #8]
 1364 0032 43F40043 		orr	r3, r3, #32768
 1365 0036 9360     		str	r3, [r2, #8]
 1366              	.L109:
1383:Drivers/STM32F4xx_HAL_Driver/Src/stm32f4xx_hal_can.c ****     {
 1367              		.loc 1 1383 5 view .LVU438
1383:Drivers/STM32F4xx_HAL_Driver/Src/stm32f4xx_hal_can.c ****     {
 1368              		.loc 1 1383 8 is_stmt 0 view .LVU439
 1369 0038 11F0040F 		tst	r1, #4
 1370 003c 04D0     		beq	.L110
1386:Drivers/STM32F4xx_HAL_Driver/Src/stm32f4xx_hal_can.c ****     }
 1371              		.loc 1 1386 7 is_stmt 1 view .LVU440
 1372 003e 0268     		ldr	r2, [r0]
 1373 0040 9368     		ldr	r3, [r2, #8]
 1374 0042 43F40003 		orr	r3, r3, #8388608
 1375 0046 9360     		str	r3, [r2, #8]
 1376              	.L110:
1390:Drivers/STM32F4xx_HAL_Driver/Src/stm32f4xx_hal_can.c ****   }
 1377              		.loc 1 1390 5 view .LVU441
1390:Drivers/STM32F4xx_HAL_Driver/Src/stm32f4xx_hal_can.c ****   }
 1378              		.loc 1 1390 12 is_stmt 0 view .LVU442
 1379 0048 0020     		movs	r0, #0
 1380              	.LVL93:
ARM GAS  C:\Users\12990\AppData\Local\Temp\ccxhiVmA.s 			page 54


1390:Drivers/STM32F4xx_HAL_Driver/Src/stm32f4xx_hal_can.c ****   }
 1381              		.loc 1 1390 12 view .LVU443
 1382 004a 7047     		bx	lr
 1383              		.cfi_endproc
 1384              	.LFE141:
 1386              		.section	.text.HAL_CAN_GetTxMailboxesFreeLevel,"ax",%progbits
 1387              		.align	1
 1388              		.global	HAL_CAN_GetTxMailboxesFreeLevel
 1389              		.syntax unified
 1390              		.thumb
 1391              		.thumb_func
 1393              	HAL_CAN_GetTxMailboxesFreeLevel:
 1394              	.LVL94:
 1395              	.LFB142:
1400:Drivers/STM32F4xx_HAL_Driver/Src/stm32f4xx_hal_can.c **** 
1401:Drivers/STM32F4xx_HAL_Driver/Src/stm32f4xx_hal_can.c **** /**
1402:Drivers/STM32F4xx_HAL_Driver/Src/stm32f4xx_hal_can.c ****   * @brief  Return Tx Mailboxes free level: number of free Tx Mailboxes.
1403:Drivers/STM32F4xx_HAL_Driver/Src/stm32f4xx_hal_can.c ****   * @param  hcan pointer to a CAN_HandleTypeDef structure that contains
1404:Drivers/STM32F4xx_HAL_Driver/Src/stm32f4xx_hal_can.c ****   *         the configuration information for the specified CAN.
1405:Drivers/STM32F4xx_HAL_Driver/Src/stm32f4xx_hal_can.c ****   * @retval Number of free Tx Mailboxes.
1406:Drivers/STM32F4xx_HAL_Driver/Src/stm32f4xx_hal_can.c ****   */
1407:Drivers/STM32F4xx_HAL_Driver/Src/stm32f4xx_hal_can.c **** uint32_t HAL_CAN_GetTxMailboxesFreeLevel(CAN_HandleTypeDef *hcan)
1408:Drivers/STM32F4xx_HAL_Driver/Src/stm32f4xx_hal_can.c **** {
 1396              		.loc 1 1408 1 is_stmt 1 view -0
 1397              		.cfi_startproc
 1398              		@ args = 0, pretend = 0, frame = 0
 1399              		@ frame_needed = 0, uses_anonymous_args = 0
 1400              		@ link register save eliminated.
1409:Drivers/STM32F4xx_HAL_Driver/Src/stm32f4xx_hal_can.c ****   uint32_t freelevel = 0U;
 1401              		.loc 1 1409 3 view .LVU445
1410:Drivers/STM32F4xx_HAL_Driver/Src/stm32f4xx_hal_can.c ****   HAL_CAN_StateTypeDef state = hcan->State;
 1402              		.loc 1 1410 3 view .LVU446
 1403              		.loc 1 1410 24 is_stmt 0 view .LVU447
 1404 0000 90F82030 		ldrb	r3, [r0, #32]	@ zero_extendqisi2
 1405              	.LVL95:
1411:Drivers/STM32F4xx_HAL_Driver/Src/stm32f4xx_hal_can.c **** 
1412:Drivers/STM32F4xx_HAL_Driver/Src/stm32f4xx_hal_can.c ****   if ((state == HAL_CAN_STATE_READY) ||
 1406              		.loc 1 1412 3 is_stmt 1 view .LVU448
 1407              		.loc 1 1412 38 is_stmt 0 view .LVU449
 1408 0004 013B     		subs	r3, r3, #1
 1409              	.LVL96:
 1410              		.loc 1 1412 38 view .LVU450
 1411 0006 DBB2     		uxtb	r3, r3
 1412              		.loc 1 1412 6 view .LVU451
 1413 0008 012B     		cmp	r3, #1
 1414 000a 01D9     		bls	.L119
1409:Drivers/STM32F4xx_HAL_Driver/Src/stm32f4xx_hal_can.c ****   HAL_CAN_StateTypeDef state = hcan->State;
 1415              		.loc 1 1409 12 view .LVU452
 1416 000c 0020     		movs	r0, #0
 1417              	.LVL97:
1413:Drivers/STM32F4xx_HAL_Driver/Src/stm32f4xx_hal_can.c ****       (state == HAL_CAN_STATE_LISTENING))
1414:Drivers/STM32F4xx_HAL_Driver/Src/stm32f4xx_hal_can.c ****   {
1415:Drivers/STM32F4xx_HAL_Driver/Src/stm32f4xx_hal_can.c ****     /* Check Tx Mailbox 0 status */
1416:Drivers/STM32F4xx_HAL_Driver/Src/stm32f4xx_hal_can.c ****     if ((hcan->Instance->TSR & CAN_TSR_TME0) != 0U)
1417:Drivers/STM32F4xx_HAL_Driver/Src/stm32f4xx_hal_can.c ****     {
1418:Drivers/STM32F4xx_HAL_Driver/Src/stm32f4xx_hal_can.c ****       freelevel++;
1419:Drivers/STM32F4xx_HAL_Driver/Src/stm32f4xx_hal_can.c ****     }
ARM GAS  C:\Users\12990\AppData\Local\Temp\ccxhiVmA.s 			page 55


1420:Drivers/STM32F4xx_HAL_Driver/Src/stm32f4xx_hal_can.c **** 
1421:Drivers/STM32F4xx_HAL_Driver/Src/stm32f4xx_hal_can.c ****     /* Check Tx Mailbox 1 status */
1422:Drivers/STM32F4xx_HAL_Driver/Src/stm32f4xx_hal_can.c ****     if ((hcan->Instance->TSR & CAN_TSR_TME1) != 0U)
1423:Drivers/STM32F4xx_HAL_Driver/Src/stm32f4xx_hal_can.c ****     {
1424:Drivers/STM32F4xx_HAL_Driver/Src/stm32f4xx_hal_can.c ****       freelevel++;
1425:Drivers/STM32F4xx_HAL_Driver/Src/stm32f4xx_hal_can.c ****     }
1426:Drivers/STM32F4xx_HAL_Driver/Src/stm32f4xx_hal_can.c **** 
1427:Drivers/STM32F4xx_HAL_Driver/Src/stm32f4xx_hal_can.c ****     /* Check Tx Mailbox 2 status */
1428:Drivers/STM32F4xx_HAL_Driver/Src/stm32f4xx_hal_can.c ****     if ((hcan->Instance->TSR & CAN_TSR_TME2) != 0U)
1429:Drivers/STM32F4xx_HAL_Driver/Src/stm32f4xx_hal_can.c ****     {
1430:Drivers/STM32F4xx_HAL_Driver/Src/stm32f4xx_hal_can.c ****       freelevel++;
1431:Drivers/STM32F4xx_HAL_Driver/Src/stm32f4xx_hal_can.c ****     }
1432:Drivers/STM32F4xx_HAL_Driver/Src/stm32f4xx_hal_can.c ****   }
1433:Drivers/STM32F4xx_HAL_Driver/Src/stm32f4xx_hal_can.c **** 
1434:Drivers/STM32F4xx_HAL_Driver/Src/stm32f4xx_hal_can.c ****   /* Return Tx Mailboxes free level */
1435:Drivers/STM32F4xx_HAL_Driver/Src/stm32f4xx_hal_can.c ****   return freelevel;
 1418              		.loc 1 1435 3 is_stmt 1 view .LVU453
 1419              	.L113:
1436:Drivers/STM32F4xx_HAL_Driver/Src/stm32f4xx_hal_can.c **** }
 1420              		.loc 1 1436 1 is_stmt 0 view .LVU454
 1421 000e 7047     		bx	lr
 1422              	.LVL98:
 1423              	.L119:
1416:Drivers/STM32F4xx_HAL_Driver/Src/stm32f4xx_hal_can.c ****     {
 1424              		.loc 1 1416 5 is_stmt 1 view .LVU455
1416:Drivers/STM32F4xx_HAL_Driver/Src/stm32f4xx_hal_can.c ****     {
 1425              		.loc 1 1416 14 is_stmt 0 view .LVU456
 1426 0010 0368     		ldr	r3, [r0]
1416:Drivers/STM32F4xx_HAL_Driver/Src/stm32f4xx_hal_can.c ****     {
 1427              		.loc 1 1416 24 view .LVU457
 1428 0012 9868     		ldr	r0, [r3, #8]
 1429              	.LVL99:
1416:Drivers/STM32F4xx_HAL_Driver/Src/stm32f4xx_hal_can.c ****     {
 1430              		.loc 1 1416 8 view .LVU458
 1431 0014 10F08060 		ands	r0, r0, #67108864
 1432 0018 00D0     		beq	.L115
1418:Drivers/STM32F4xx_HAL_Driver/Src/stm32f4xx_hal_can.c ****     }
 1433              		.loc 1 1418 16 view .LVU459
 1434 001a 0120     		movs	r0, #1
 1435              	.L115:
 1436              	.LVL100:
1422:Drivers/STM32F4xx_HAL_Driver/Src/stm32f4xx_hal_can.c ****     {
 1437              		.loc 1 1422 5 is_stmt 1 view .LVU460
1422:Drivers/STM32F4xx_HAL_Driver/Src/stm32f4xx_hal_can.c ****     {
 1438              		.loc 1 1422 24 is_stmt 0 view .LVU461
 1439 001c 9A68     		ldr	r2, [r3, #8]
1422:Drivers/STM32F4xx_HAL_Driver/Src/stm32f4xx_hal_can.c ****     {
 1440              		.loc 1 1422 8 view .LVU462
 1441 001e 12F0006F 		tst	r2, #134217728
 1442 0022 00D0     		beq	.L116
1424:Drivers/STM32F4xx_HAL_Driver/Src/stm32f4xx_hal_can.c ****     }
 1443              		.loc 1 1424 7 is_stmt 1 view .LVU463
1424:Drivers/STM32F4xx_HAL_Driver/Src/stm32f4xx_hal_can.c ****     }
 1444              		.loc 1 1424 16 is_stmt 0 view .LVU464
 1445 0024 0130     		adds	r0, r0, #1
 1446              	.LVL101:
 1447              	.L116:
ARM GAS  C:\Users\12990\AppData\Local\Temp\ccxhiVmA.s 			page 56


1428:Drivers/STM32F4xx_HAL_Driver/Src/stm32f4xx_hal_can.c ****     {
 1448              		.loc 1 1428 5 is_stmt 1 view .LVU465
1428:Drivers/STM32F4xx_HAL_Driver/Src/stm32f4xx_hal_can.c ****     {
 1449              		.loc 1 1428 24 is_stmt 0 view .LVU466
 1450 0026 9B68     		ldr	r3, [r3, #8]
1428:Drivers/STM32F4xx_HAL_Driver/Src/stm32f4xx_hal_can.c ****     {
 1451              		.loc 1 1428 8 view .LVU467
 1452 0028 13F0805F 		tst	r3, #268435456
 1453 002c EFD0     		beq	.L113
1430:Drivers/STM32F4xx_HAL_Driver/Src/stm32f4xx_hal_can.c ****     }
 1454              		.loc 1 1430 7 is_stmt 1 view .LVU468
1430:Drivers/STM32F4xx_HAL_Driver/Src/stm32f4xx_hal_can.c ****     }
 1455              		.loc 1 1430 16 is_stmt 0 view .LVU469
 1456 002e 0130     		adds	r0, r0, #1
 1457              	.LVL102:
1430:Drivers/STM32F4xx_HAL_Driver/Src/stm32f4xx_hal_can.c ****     }
 1458              		.loc 1 1430 16 view .LVU470
 1459 0030 7047     		bx	lr
 1460              		.cfi_endproc
 1461              	.LFE142:
 1463              		.section	.text.HAL_CAN_IsTxMessagePending,"ax",%progbits
 1464              		.align	1
 1465              		.global	HAL_CAN_IsTxMessagePending
 1466              		.syntax unified
 1467              		.thumb
 1468              		.thumb_func
 1470              	HAL_CAN_IsTxMessagePending:
 1471              	.LVL103:
 1472              	.LFB143:
1437:Drivers/STM32F4xx_HAL_Driver/Src/stm32f4xx_hal_can.c **** 
1438:Drivers/STM32F4xx_HAL_Driver/Src/stm32f4xx_hal_can.c **** /**
1439:Drivers/STM32F4xx_HAL_Driver/Src/stm32f4xx_hal_can.c ****   * @brief  Check if a transmission request is pending on the selected Tx
1440:Drivers/STM32F4xx_HAL_Driver/Src/stm32f4xx_hal_can.c ****   *         Mailboxes.
1441:Drivers/STM32F4xx_HAL_Driver/Src/stm32f4xx_hal_can.c ****   * @param  hcan pointer to an CAN_HandleTypeDef structure that contains
1442:Drivers/STM32F4xx_HAL_Driver/Src/stm32f4xx_hal_can.c ****   *         the configuration information for the specified CAN.
1443:Drivers/STM32F4xx_HAL_Driver/Src/stm32f4xx_hal_can.c ****   * @param  TxMailboxes List of Tx Mailboxes to check.
1444:Drivers/STM32F4xx_HAL_Driver/Src/stm32f4xx_hal_can.c ****   *         This parameter can be any combination of @arg CAN_Tx_Mailboxes.
1445:Drivers/STM32F4xx_HAL_Driver/Src/stm32f4xx_hal_can.c ****   * @retval Status
1446:Drivers/STM32F4xx_HAL_Driver/Src/stm32f4xx_hal_can.c ****   *          - 0 : No pending transmission request on any selected Tx Mailboxes.
1447:Drivers/STM32F4xx_HAL_Driver/Src/stm32f4xx_hal_can.c ****   *          - 1 : Pending transmission request on at least one of the selected
1448:Drivers/STM32F4xx_HAL_Driver/Src/stm32f4xx_hal_can.c ****   *                Tx Mailbox.
1449:Drivers/STM32F4xx_HAL_Driver/Src/stm32f4xx_hal_can.c ****   */
1450:Drivers/STM32F4xx_HAL_Driver/Src/stm32f4xx_hal_can.c **** uint32_t HAL_CAN_IsTxMessagePending(CAN_HandleTypeDef *hcan, uint32_t TxMailboxes)
1451:Drivers/STM32F4xx_HAL_Driver/Src/stm32f4xx_hal_can.c **** {
 1473              		.loc 1 1451 1 is_stmt 1 view -0
 1474              		.cfi_startproc
 1475              		@ args = 0, pretend = 0, frame = 0
 1476              		@ frame_needed = 0, uses_anonymous_args = 0
 1477              		@ link register save eliminated.
1452:Drivers/STM32F4xx_HAL_Driver/Src/stm32f4xx_hal_can.c ****   uint32_t status = 0U;
 1478              		.loc 1 1452 3 view .LVU472
1453:Drivers/STM32F4xx_HAL_Driver/Src/stm32f4xx_hal_can.c ****   HAL_CAN_StateTypeDef state = hcan->State;
 1479              		.loc 1 1453 3 view .LVU473
 1480              		.loc 1 1453 24 is_stmt 0 view .LVU474
 1481 0000 90F82030 		ldrb	r3, [r0, #32]	@ zero_extendqisi2
 1482              	.LVL104:
1454:Drivers/STM32F4xx_HAL_Driver/Src/stm32f4xx_hal_can.c **** 
ARM GAS  C:\Users\12990\AppData\Local\Temp\ccxhiVmA.s 			page 57


1455:Drivers/STM32F4xx_HAL_Driver/Src/stm32f4xx_hal_can.c ****   /* Check function parameters */
1456:Drivers/STM32F4xx_HAL_Driver/Src/stm32f4xx_hal_can.c ****   assert_param(IS_CAN_TX_MAILBOX_LIST(TxMailboxes));
 1483              		.loc 1 1456 3 is_stmt 1 view .LVU475
1457:Drivers/STM32F4xx_HAL_Driver/Src/stm32f4xx_hal_can.c **** 
1458:Drivers/STM32F4xx_HAL_Driver/Src/stm32f4xx_hal_can.c ****   if ((state == HAL_CAN_STATE_READY) ||
 1484              		.loc 1 1458 3 view .LVU476
 1485              		.loc 1 1458 38 is_stmt 0 view .LVU477
 1486 0004 013B     		subs	r3, r3, #1
 1487              	.LVL105:
 1488              		.loc 1 1458 38 view .LVU478
 1489 0006 DBB2     		uxtb	r3, r3
 1490              		.loc 1 1458 6 view .LVU479
 1491 0008 012B     		cmp	r3, #1
 1492 000a 01D9     		bls	.L124
1452:Drivers/STM32F4xx_HAL_Driver/Src/stm32f4xx_hal_can.c ****   HAL_CAN_StateTypeDef state = hcan->State;
 1493              		.loc 1 1452 12 view .LVU480
 1494 000c 0020     		movs	r0, #0
 1495              	.LVL106:
1452:Drivers/STM32F4xx_HAL_Driver/Src/stm32f4xx_hal_can.c ****   HAL_CAN_StateTypeDef state = hcan->State;
 1496              		.loc 1 1452 12 view .LVU481
 1497 000e 7047     		bx	lr
 1498              	.LVL107:
 1499              	.L124:
1459:Drivers/STM32F4xx_HAL_Driver/Src/stm32f4xx_hal_can.c ****       (state == HAL_CAN_STATE_LISTENING))
1460:Drivers/STM32F4xx_HAL_Driver/Src/stm32f4xx_hal_can.c ****   {
1461:Drivers/STM32F4xx_HAL_Driver/Src/stm32f4xx_hal_can.c ****     /* Check pending transmission request on the selected Tx Mailboxes */
1462:Drivers/STM32F4xx_HAL_Driver/Src/stm32f4xx_hal_can.c ****     if ((hcan->Instance->TSR & (TxMailboxes << CAN_TSR_TME0_Pos)) != (TxMailboxes << CAN_TSR_TME0_P
 1500              		.loc 1 1462 5 is_stmt 1 view .LVU482
 1501              		.loc 1 1462 14 is_stmt 0 view .LVU483
 1502 0010 0368     		ldr	r3, [r0]
 1503              		.loc 1 1462 24 view .LVU484
 1504 0012 9B68     		ldr	r3, [r3, #8]
 1505              		.loc 1 1462 30 view .LVU485
 1506 0014 03EA8163 		and	r3, r3, r1, lsl #26
 1507              		.loc 1 1462 8 view .LVU486
 1508 0018 B3EB816F 		cmp	r3, r1, lsl #26
 1509 001c 01D0     		beq	.L125
1463:Drivers/STM32F4xx_HAL_Driver/Src/stm32f4xx_hal_can.c ****     {
1464:Drivers/STM32F4xx_HAL_Driver/Src/stm32f4xx_hal_can.c ****       status = 1U;
 1510              		.loc 1 1464 14 view .LVU487
 1511 001e 0120     		movs	r0, #1
 1512              	.LVL108:
1465:Drivers/STM32F4xx_HAL_Driver/Src/stm32f4xx_hal_can.c ****     }
1466:Drivers/STM32F4xx_HAL_Driver/Src/stm32f4xx_hal_can.c ****   }
1467:Drivers/STM32F4xx_HAL_Driver/Src/stm32f4xx_hal_can.c **** 
1468:Drivers/STM32F4xx_HAL_Driver/Src/stm32f4xx_hal_can.c ****   /* Return status */
1469:Drivers/STM32F4xx_HAL_Driver/Src/stm32f4xx_hal_can.c ****   return status;
 1513              		.loc 1 1469 3 is_stmt 1 view .LVU488
1470:Drivers/STM32F4xx_HAL_Driver/Src/stm32f4xx_hal_can.c **** }
 1514              		.loc 1 1470 1 is_stmt 0 view .LVU489
 1515 0020 7047     		bx	lr
 1516              	.LVL109:
 1517              	.L125:
1452:Drivers/STM32F4xx_HAL_Driver/Src/stm32f4xx_hal_can.c ****   HAL_CAN_StateTypeDef state = hcan->State;
 1518              		.loc 1 1452 12 view .LVU490
 1519 0022 0020     		movs	r0, #0
 1520              	.LVL110:
ARM GAS  C:\Users\12990\AppData\Local\Temp\ccxhiVmA.s 			page 58


1452:Drivers/STM32F4xx_HAL_Driver/Src/stm32f4xx_hal_can.c ****   HAL_CAN_StateTypeDef state = hcan->State;
 1521              		.loc 1 1452 12 view .LVU491
 1522 0024 7047     		bx	lr
 1523              		.cfi_endproc
 1524              	.LFE143:
 1526              		.section	.text.HAL_CAN_GetTxTimestamp,"ax",%progbits
 1527              		.align	1
 1528              		.global	HAL_CAN_GetTxTimestamp
 1529              		.syntax unified
 1530              		.thumb
 1531              		.thumb_func
 1533              	HAL_CAN_GetTxTimestamp:
 1534              	.LVL111:
 1535              	.LFB144:
1471:Drivers/STM32F4xx_HAL_Driver/Src/stm32f4xx_hal_can.c **** 
1472:Drivers/STM32F4xx_HAL_Driver/Src/stm32f4xx_hal_can.c **** /**
1473:Drivers/STM32F4xx_HAL_Driver/Src/stm32f4xx_hal_can.c ****   * @brief  Return timestamp of Tx message sent, if time triggered communication
1474:Drivers/STM32F4xx_HAL_Driver/Src/stm32f4xx_hal_can.c ****             mode is enabled.
1475:Drivers/STM32F4xx_HAL_Driver/Src/stm32f4xx_hal_can.c ****   * @param  hcan pointer to a CAN_HandleTypeDef structure that contains
1476:Drivers/STM32F4xx_HAL_Driver/Src/stm32f4xx_hal_can.c ****   *         the configuration information for the specified CAN.
1477:Drivers/STM32F4xx_HAL_Driver/Src/stm32f4xx_hal_can.c ****   * @param  TxMailbox Tx Mailbox where the timestamp of message sent will be
1478:Drivers/STM32F4xx_HAL_Driver/Src/stm32f4xx_hal_can.c ****   *         read.
1479:Drivers/STM32F4xx_HAL_Driver/Src/stm32f4xx_hal_can.c ****   *         This parameter can be one value of @arg CAN_Tx_Mailboxes.
1480:Drivers/STM32F4xx_HAL_Driver/Src/stm32f4xx_hal_can.c ****   * @retval Timestamp of message sent from Tx Mailbox.
1481:Drivers/STM32F4xx_HAL_Driver/Src/stm32f4xx_hal_can.c ****   */
1482:Drivers/STM32F4xx_HAL_Driver/Src/stm32f4xx_hal_can.c **** uint32_t HAL_CAN_GetTxTimestamp(CAN_HandleTypeDef *hcan, uint32_t TxMailbox)
1483:Drivers/STM32F4xx_HAL_Driver/Src/stm32f4xx_hal_can.c **** {
 1536              		.loc 1 1483 1 is_stmt 1 view -0
 1537              		.cfi_startproc
 1538              		@ args = 0, pretend = 0, frame = 0
 1539              		@ frame_needed = 0, uses_anonymous_args = 0
 1540              		@ link register save eliminated.
1484:Drivers/STM32F4xx_HAL_Driver/Src/stm32f4xx_hal_can.c ****   uint32_t timestamp = 0U;
 1541              		.loc 1 1484 3 view .LVU493
1485:Drivers/STM32F4xx_HAL_Driver/Src/stm32f4xx_hal_can.c ****   uint32_t transmitmailbox;
 1542              		.loc 1 1485 3 view .LVU494
1486:Drivers/STM32F4xx_HAL_Driver/Src/stm32f4xx_hal_can.c ****   HAL_CAN_StateTypeDef state = hcan->State;
 1543              		.loc 1 1486 3 view .LVU495
 1544              		.loc 1 1486 24 is_stmt 0 view .LVU496
 1545 0000 90F82030 		ldrb	r3, [r0, #32]	@ zero_extendqisi2
 1546              	.LVL112:
1487:Drivers/STM32F4xx_HAL_Driver/Src/stm32f4xx_hal_can.c **** 
1488:Drivers/STM32F4xx_HAL_Driver/Src/stm32f4xx_hal_can.c ****   /* Check function parameters */
1489:Drivers/STM32F4xx_HAL_Driver/Src/stm32f4xx_hal_can.c ****   assert_param(IS_CAN_TX_MAILBOX(TxMailbox));
 1547              		.loc 1 1489 3 is_stmt 1 view .LVU497
1490:Drivers/STM32F4xx_HAL_Driver/Src/stm32f4xx_hal_can.c **** 
1491:Drivers/STM32F4xx_HAL_Driver/Src/stm32f4xx_hal_can.c ****   if ((state == HAL_CAN_STATE_READY) ||
 1548              		.loc 1 1491 3 view .LVU498
 1549              		.loc 1 1491 38 is_stmt 0 view .LVU499
 1550 0004 013B     		subs	r3, r3, #1
 1551              	.LVL113:
 1552              		.loc 1 1491 38 view .LVU500
 1553 0006 DBB2     		uxtb	r3, r3
 1554              		.loc 1 1491 6 view .LVU501
 1555 0008 012B     		cmp	r3, #1
 1556 000a 01D9     		bls	.L129
1484:Drivers/STM32F4xx_HAL_Driver/Src/stm32f4xx_hal_can.c ****   uint32_t transmitmailbox;
ARM GAS  C:\Users\12990\AppData\Local\Temp\ccxhiVmA.s 			page 59


 1557              		.loc 1 1484 12 view .LVU502
 1558 000c 0020     		movs	r0, #0
 1559              	.LVL114:
1492:Drivers/STM32F4xx_HAL_Driver/Src/stm32f4xx_hal_can.c ****       (state == HAL_CAN_STATE_LISTENING))
1493:Drivers/STM32F4xx_HAL_Driver/Src/stm32f4xx_hal_can.c ****   {
1494:Drivers/STM32F4xx_HAL_Driver/Src/stm32f4xx_hal_can.c ****     /* Select the Tx mailbox */
1495:Drivers/STM32F4xx_HAL_Driver/Src/stm32f4xx_hal_can.c ****     transmitmailbox = POSITION_VAL(TxMailbox);
1496:Drivers/STM32F4xx_HAL_Driver/Src/stm32f4xx_hal_can.c **** 
1497:Drivers/STM32F4xx_HAL_Driver/Src/stm32f4xx_hal_can.c ****     /* Get timestamp */
1498:Drivers/STM32F4xx_HAL_Driver/Src/stm32f4xx_hal_can.c ****     timestamp = (hcan->Instance->sTxMailBox[transmitmailbox].TDTR & CAN_TDT0R_TIME) >> CAN_TDT0R_TI
1499:Drivers/STM32F4xx_HAL_Driver/Src/stm32f4xx_hal_can.c ****   }
1500:Drivers/STM32F4xx_HAL_Driver/Src/stm32f4xx_hal_can.c **** 
1501:Drivers/STM32F4xx_HAL_Driver/Src/stm32f4xx_hal_can.c ****   /* Return the timestamp */
1502:Drivers/STM32F4xx_HAL_Driver/Src/stm32f4xx_hal_can.c ****   return timestamp;
 1560              		.loc 1 1502 3 is_stmt 1 view .LVU503
1503:Drivers/STM32F4xx_HAL_Driver/Src/stm32f4xx_hal_can.c **** }
 1561              		.loc 1 1503 1 is_stmt 0 view .LVU504
 1562 000e 7047     		bx	lr
 1563              	.LVL115:
 1564              	.L129:
1495:Drivers/STM32F4xx_HAL_Driver/Src/stm32f4xx_hal_can.c **** 
 1565              		.loc 1 1495 5 is_stmt 1 view .LVU505
 1566              	.LBB4:
 1567              	.LBI4:
 1568              		.file 2 "Drivers/CMSIS/Include/cmsis_gcc.h"
   1:Drivers/CMSIS/Include/cmsis_gcc.h **** /**************************************************************************//**
   2:Drivers/CMSIS/Include/cmsis_gcc.h ****  * @file     cmsis_gcc.h
   3:Drivers/CMSIS/Include/cmsis_gcc.h ****  * @brief    CMSIS compiler GCC header file
   4:Drivers/CMSIS/Include/cmsis_gcc.h ****  * @version  V5.0.4
   5:Drivers/CMSIS/Include/cmsis_gcc.h ****  * @date     09. April 2018
   6:Drivers/CMSIS/Include/cmsis_gcc.h ****  ******************************************************************************/
   7:Drivers/CMSIS/Include/cmsis_gcc.h **** /*
   8:Drivers/CMSIS/Include/cmsis_gcc.h ****  * Copyright (c) 2009-2018 Arm Limited. All rights reserved.
   9:Drivers/CMSIS/Include/cmsis_gcc.h ****  *
  10:Drivers/CMSIS/Include/cmsis_gcc.h ****  * SPDX-License-Identifier: Apache-2.0
  11:Drivers/CMSIS/Include/cmsis_gcc.h ****  *
  12:Drivers/CMSIS/Include/cmsis_gcc.h ****  * Licensed under the Apache License, Version 2.0 (the License); you may
  13:Drivers/CMSIS/Include/cmsis_gcc.h ****  * not use this file except in compliance with the License.
  14:Drivers/CMSIS/Include/cmsis_gcc.h ****  * You may obtain a copy of the License at
  15:Drivers/CMSIS/Include/cmsis_gcc.h ****  *
  16:Drivers/CMSIS/Include/cmsis_gcc.h ****  * www.apache.org/licenses/LICENSE-2.0
  17:Drivers/CMSIS/Include/cmsis_gcc.h ****  *
  18:Drivers/CMSIS/Include/cmsis_gcc.h ****  * Unless required by applicable law or agreed to in writing, software
  19:Drivers/CMSIS/Include/cmsis_gcc.h ****  * distributed under the License is distributed on an AS IS BASIS, WITHOUT
  20:Drivers/CMSIS/Include/cmsis_gcc.h ****  * WARRANTIES OR CONDITIONS OF ANY KIND, either express or implied.
  21:Drivers/CMSIS/Include/cmsis_gcc.h ****  * See the License for the specific language governing permissions and
  22:Drivers/CMSIS/Include/cmsis_gcc.h ****  * limitations under the License.
  23:Drivers/CMSIS/Include/cmsis_gcc.h ****  */
  24:Drivers/CMSIS/Include/cmsis_gcc.h **** 
  25:Drivers/CMSIS/Include/cmsis_gcc.h **** #ifndef __CMSIS_GCC_H
  26:Drivers/CMSIS/Include/cmsis_gcc.h **** #define __CMSIS_GCC_H
  27:Drivers/CMSIS/Include/cmsis_gcc.h **** 
  28:Drivers/CMSIS/Include/cmsis_gcc.h **** /* ignore some GCC warnings */
  29:Drivers/CMSIS/Include/cmsis_gcc.h **** #pragma GCC diagnostic push
  30:Drivers/CMSIS/Include/cmsis_gcc.h **** #pragma GCC diagnostic ignored "-Wsign-conversion"
  31:Drivers/CMSIS/Include/cmsis_gcc.h **** #pragma GCC diagnostic ignored "-Wconversion"
  32:Drivers/CMSIS/Include/cmsis_gcc.h **** #pragma GCC diagnostic ignored "-Wunused-parameter"
ARM GAS  C:\Users\12990\AppData\Local\Temp\ccxhiVmA.s 			page 60


  33:Drivers/CMSIS/Include/cmsis_gcc.h **** 
  34:Drivers/CMSIS/Include/cmsis_gcc.h **** /* Fallback for __has_builtin */
  35:Drivers/CMSIS/Include/cmsis_gcc.h **** #ifndef __has_builtin
  36:Drivers/CMSIS/Include/cmsis_gcc.h ****   #define __has_builtin(x) (0)
  37:Drivers/CMSIS/Include/cmsis_gcc.h **** #endif
  38:Drivers/CMSIS/Include/cmsis_gcc.h **** 
  39:Drivers/CMSIS/Include/cmsis_gcc.h **** /* CMSIS compiler specific defines */
  40:Drivers/CMSIS/Include/cmsis_gcc.h **** #ifndef   __ASM
  41:Drivers/CMSIS/Include/cmsis_gcc.h ****   #define __ASM                                  __asm
  42:Drivers/CMSIS/Include/cmsis_gcc.h **** #endif
  43:Drivers/CMSIS/Include/cmsis_gcc.h **** #ifndef   __INLINE
  44:Drivers/CMSIS/Include/cmsis_gcc.h ****   #define __INLINE                               inline
  45:Drivers/CMSIS/Include/cmsis_gcc.h **** #endif
  46:Drivers/CMSIS/Include/cmsis_gcc.h **** #ifndef   __STATIC_INLINE
  47:Drivers/CMSIS/Include/cmsis_gcc.h ****   #define __STATIC_INLINE                        static inline
  48:Drivers/CMSIS/Include/cmsis_gcc.h **** #endif
  49:Drivers/CMSIS/Include/cmsis_gcc.h **** #ifndef   __STATIC_FORCEINLINE                 
  50:Drivers/CMSIS/Include/cmsis_gcc.h ****   #define __STATIC_FORCEINLINE                   __attribute__((always_inline)) static inline
  51:Drivers/CMSIS/Include/cmsis_gcc.h **** #endif                                           
  52:Drivers/CMSIS/Include/cmsis_gcc.h **** #ifndef   __NO_RETURN
  53:Drivers/CMSIS/Include/cmsis_gcc.h ****   #define __NO_RETURN                            __attribute__((__noreturn__))
  54:Drivers/CMSIS/Include/cmsis_gcc.h **** #endif
  55:Drivers/CMSIS/Include/cmsis_gcc.h **** #ifndef   __USED
  56:Drivers/CMSIS/Include/cmsis_gcc.h ****   #define __USED                                 __attribute__((used))
  57:Drivers/CMSIS/Include/cmsis_gcc.h **** #endif
  58:Drivers/CMSIS/Include/cmsis_gcc.h **** #ifndef   __WEAK
  59:Drivers/CMSIS/Include/cmsis_gcc.h ****   #define __WEAK                                 __attribute__((weak))
  60:Drivers/CMSIS/Include/cmsis_gcc.h **** #endif
  61:Drivers/CMSIS/Include/cmsis_gcc.h **** #ifndef   __PACKED
  62:Drivers/CMSIS/Include/cmsis_gcc.h ****   #define __PACKED                               __attribute__((packed, aligned(1)))
  63:Drivers/CMSIS/Include/cmsis_gcc.h **** #endif
  64:Drivers/CMSIS/Include/cmsis_gcc.h **** #ifndef   __PACKED_STRUCT
  65:Drivers/CMSIS/Include/cmsis_gcc.h ****   #define __PACKED_STRUCT                        struct __attribute__((packed, aligned(1)))
  66:Drivers/CMSIS/Include/cmsis_gcc.h **** #endif
  67:Drivers/CMSIS/Include/cmsis_gcc.h **** #ifndef   __PACKED_UNION
  68:Drivers/CMSIS/Include/cmsis_gcc.h ****   #define __PACKED_UNION                         union __attribute__((packed, aligned(1)))
  69:Drivers/CMSIS/Include/cmsis_gcc.h **** #endif
  70:Drivers/CMSIS/Include/cmsis_gcc.h **** #ifndef   __UNALIGNED_UINT32        /* deprecated */
  71:Drivers/CMSIS/Include/cmsis_gcc.h ****   #pragma GCC diagnostic push
  72:Drivers/CMSIS/Include/cmsis_gcc.h ****   #pragma GCC diagnostic ignored "-Wpacked"
  73:Drivers/CMSIS/Include/cmsis_gcc.h ****   #pragma GCC diagnostic ignored "-Wattributes"
  74:Drivers/CMSIS/Include/cmsis_gcc.h ****   struct __attribute__((packed)) T_UINT32 { uint32_t v; };
  75:Drivers/CMSIS/Include/cmsis_gcc.h ****   #pragma GCC diagnostic pop
  76:Drivers/CMSIS/Include/cmsis_gcc.h ****   #define __UNALIGNED_UINT32(x)                  (((struct T_UINT32 *)(x))->v)
  77:Drivers/CMSIS/Include/cmsis_gcc.h **** #endif
  78:Drivers/CMSIS/Include/cmsis_gcc.h **** #ifndef   __UNALIGNED_UINT16_WRITE
  79:Drivers/CMSIS/Include/cmsis_gcc.h ****   #pragma GCC diagnostic push
  80:Drivers/CMSIS/Include/cmsis_gcc.h ****   #pragma GCC diagnostic ignored "-Wpacked"
  81:Drivers/CMSIS/Include/cmsis_gcc.h ****   #pragma GCC diagnostic ignored "-Wattributes"
  82:Drivers/CMSIS/Include/cmsis_gcc.h ****   __PACKED_STRUCT T_UINT16_WRITE { uint16_t v; };
  83:Drivers/CMSIS/Include/cmsis_gcc.h ****   #pragma GCC diagnostic pop
  84:Drivers/CMSIS/Include/cmsis_gcc.h ****   #define __UNALIGNED_UINT16_WRITE(addr, val)    (void)((((struct T_UINT16_WRITE *)(void *)(addr))-
  85:Drivers/CMSIS/Include/cmsis_gcc.h **** #endif
  86:Drivers/CMSIS/Include/cmsis_gcc.h **** #ifndef   __UNALIGNED_UINT16_READ
  87:Drivers/CMSIS/Include/cmsis_gcc.h ****   #pragma GCC diagnostic push
  88:Drivers/CMSIS/Include/cmsis_gcc.h ****   #pragma GCC diagnostic ignored "-Wpacked"
  89:Drivers/CMSIS/Include/cmsis_gcc.h ****   #pragma GCC diagnostic ignored "-Wattributes"
ARM GAS  C:\Users\12990\AppData\Local\Temp\ccxhiVmA.s 			page 61


  90:Drivers/CMSIS/Include/cmsis_gcc.h ****   __PACKED_STRUCT T_UINT16_READ { uint16_t v; };
  91:Drivers/CMSIS/Include/cmsis_gcc.h ****   #pragma GCC diagnostic pop
  92:Drivers/CMSIS/Include/cmsis_gcc.h ****   #define __UNALIGNED_UINT16_READ(addr)          (((const struct T_UINT16_READ *)(const void *)(add
  93:Drivers/CMSIS/Include/cmsis_gcc.h **** #endif
  94:Drivers/CMSIS/Include/cmsis_gcc.h **** #ifndef   __UNALIGNED_UINT32_WRITE
  95:Drivers/CMSIS/Include/cmsis_gcc.h ****   #pragma GCC diagnostic push
  96:Drivers/CMSIS/Include/cmsis_gcc.h ****   #pragma GCC diagnostic ignored "-Wpacked"
  97:Drivers/CMSIS/Include/cmsis_gcc.h ****   #pragma GCC diagnostic ignored "-Wattributes"
  98:Drivers/CMSIS/Include/cmsis_gcc.h ****   __PACKED_STRUCT T_UINT32_WRITE { uint32_t v; };
  99:Drivers/CMSIS/Include/cmsis_gcc.h ****   #pragma GCC diagnostic pop
 100:Drivers/CMSIS/Include/cmsis_gcc.h ****   #define __UNALIGNED_UINT32_WRITE(addr, val)    (void)((((struct T_UINT32_WRITE *)(void *)(addr))-
 101:Drivers/CMSIS/Include/cmsis_gcc.h **** #endif
 102:Drivers/CMSIS/Include/cmsis_gcc.h **** #ifndef   __UNALIGNED_UINT32_READ
 103:Drivers/CMSIS/Include/cmsis_gcc.h ****   #pragma GCC diagnostic push
 104:Drivers/CMSIS/Include/cmsis_gcc.h ****   #pragma GCC diagnostic ignored "-Wpacked"
 105:Drivers/CMSIS/Include/cmsis_gcc.h ****   #pragma GCC diagnostic ignored "-Wattributes"
 106:Drivers/CMSIS/Include/cmsis_gcc.h ****   __PACKED_STRUCT T_UINT32_READ { uint32_t v; };
 107:Drivers/CMSIS/Include/cmsis_gcc.h ****   #pragma GCC diagnostic pop
 108:Drivers/CMSIS/Include/cmsis_gcc.h ****   #define __UNALIGNED_UINT32_READ(addr)          (((const struct T_UINT32_READ *)(const void *)(add
 109:Drivers/CMSIS/Include/cmsis_gcc.h **** #endif
 110:Drivers/CMSIS/Include/cmsis_gcc.h **** #ifndef   __ALIGNED
 111:Drivers/CMSIS/Include/cmsis_gcc.h ****   #define __ALIGNED(x)                           __attribute__((aligned(x)))
 112:Drivers/CMSIS/Include/cmsis_gcc.h **** #endif
 113:Drivers/CMSIS/Include/cmsis_gcc.h **** #ifndef   __RESTRICT
 114:Drivers/CMSIS/Include/cmsis_gcc.h ****   #define __RESTRICT                             __restrict
 115:Drivers/CMSIS/Include/cmsis_gcc.h **** #endif
 116:Drivers/CMSIS/Include/cmsis_gcc.h **** 
 117:Drivers/CMSIS/Include/cmsis_gcc.h **** 
 118:Drivers/CMSIS/Include/cmsis_gcc.h **** /* ###########################  Core Function Access  ########################### */
 119:Drivers/CMSIS/Include/cmsis_gcc.h **** /** \ingroup  CMSIS_Core_FunctionInterface
 120:Drivers/CMSIS/Include/cmsis_gcc.h ****     \defgroup CMSIS_Core_RegAccFunctions CMSIS Core Register Access Functions
 121:Drivers/CMSIS/Include/cmsis_gcc.h ****   @{
 122:Drivers/CMSIS/Include/cmsis_gcc.h ****  */
 123:Drivers/CMSIS/Include/cmsis_gcc.h **** 
 124:Drivers/CMSIS/Include/cmsis_gcc.h **** /**
 125:Drivers/CMSIS/Include/cmsis_gcc.h ****   \brief   Enable IRQ Interrupts
 126:Drivers/CMSIS/Include/cmsis_gcc.h ****   \details Enables IRQ interrupts by clearing the I-bit in the CPSR.
 127:Drivers/CMSIS/Include/cmsis_gcc.h ****            Can only be executed in Privileged modes.
 128:Drivers/CMSIS/Include/cmsis_gcc.h ****  */
 129:Drivers/CMSIS/Include/cmsis_gcc.h **** __STATIC_FORCEINLINE void __enable_irq(void)
 130:Drivers/CMSIS/Include/cmsis_gcc.h **** {
 131:Drivers/CMSIS/Include/cmsis_gcc.h ****   __ASM volatile ("cpsie i" : : : "memory");
 132:Drivers/CMSIS/Include/cmsis_gcc.h **** }
 133:Drivers/CMSIS/Include/cmsis_gcc.h **** 
 134:Drivers/CMSIS/Include/cmsis_gcc.h **** 
 135:Drivers/CMSIS/Include/cmsis_gcc.h **** /**
 136:Drivers/CMSIS/Include/cmsis_gcc.h ****   \brief   Disable IRQ Interrupts
 137:Drivers/CMSIS/Include/cmsis_gcc.h ****   \details Disables IRQ interrupts by setting the I-bit in the CPSR.
 138:Drivers/CMSIS/Include/cmsis_gcc.h ****            Can only be executed in Privileged modes.
 139:Drivers/CMSIS/Include/cmsis_gcc.h ****  */
 140:Drivers/CMSIS/Include/cmsis_gcc.h **** __STATIC_FORCEINLINE void __disable_irq(void)
 141:Drivers/CMSIS/Include/cmsis_gcc.h **** {
 142:Drivers/CMSIS/Include/cmsis_gcc.h ****   __ASM volatile ("cpsid i" : : : "memory");
 143:Drivers/CMSIS/Include/cmsis_gcc.h **** }
 144:Drivers/CMSIS/Include/cmsis_gcc.h **** 
 145:Drivers/CMSIS/Include/cmsis_gcc.h **** 
 146:Drivers/CMSIS/Include/cmsis_gcc.h **** /**
ARM GAS  C:\Users\12990\AppData\Local\Temp\ccxhiVmA.s 			page 62


 147:Drivers/CMSIS/Include/cmsis_gcc.h ****   \brief   Get Control Register
 148:Drivers/CMSIS/Include/cmsis_gcc.h ****   \details Returns the content of the Control Register.
 149:Drivers/CMSIS/Include/cmsis_gcc.h ****   \return               Control Register value
 150:Drivers/CMSIS/Include/cmsis_gcc.h ****  */
 151:Drivers/CMSIS/Include/cmsis_gcc.h **** __STATIC_FORCEINLINE uint32_t __get_CONTROL(void)
 152:Drivers/CMSIS/Include/cmsis_gcc.h **** {
 153:Drivers/CMSIS/Include/cmsis_gcc.h ****   uint32_t result;
 154:Drivers/CMSIS/Include/cmsis_gcc.h **** 
 155:Drivers/CMSIS/Include/cmsis_gcc.h ****   __ASM volatile ("MRS %0, control" : "=r" (result) );
 156:Drivers/CMSIS/Include/cmsis_gcc.h ****   return(result);
 157:Drivers/CMSIS/Include/cmsis_gcc.h **** }
 158:Drivers/CMSIS/Include/cmsis_gcc.h **** 
 159:Drivers/CMSIS/Include/cmsis_gcc.h **** 
 160:Drivers/CMSIS/Include/cmsis_gcc.h **** #if (defined (__ARM_FEATURE_CMSE ) && (__ARM_FEATURE_CMSE == 3))
 161:Drivers/CMSIS/Include/cmsis_gcc.h **** /**
 162:Drivers/CMSIS/Include/cmsis_gcc.h ****   \brief   Get Control Register (non-secure)
 163:Drivers/CMSIS/Include/cmsis_gcc.h ****   \details Returns the content of the non-secure Control Register when in secure mode.
 164:Drivers/CMSIS/Include/cmsis_gcc.h ****   \return               non-secure Control Register value
 165:Drivers/CMSIS/Include/cmsis_gcc.h ****  */
 166:Drivers/CMSIS/Include/cmsis_gcc.h **** __STATIC_FORCEINLINE uint32_t __TZ_get_CONTROL_NS(void)
 167:Drivers/CMSIS/Include/cmsis_gcc.h **** {
 168:Drivers/CMSIS/Include/cmsis_gcc.h ****   uint32_t result;
 169:Drivers/CMSIS/Include/cmsis_gcc.h **** 
 170:Drivers/CMSIS/Include/cmsis_gcc.h ****   __ASM volatile ("MRS %0, control_ns" : "=r" (result) );
 171:Drivers/CMSIS/Include/cmsis_gcc.h ****   return(result);
 172:Drivers/CMSIS/Include/cmsis_gcc.h **** }
 173:Drivers/CMSIS/Include/cmsis_gcc.h **** #endif
 174:Drivers/CMSIS/Include/cmsis_gcc.h **** 
 175:Drivers/CMSIS/Include/cmsis_gcc.h **** 
 176:Drivers/CMSIS/Include/cmsis_gcc.h **** /**
 177:Drivers/CMSIS/Include/cmsis_gcc.h ****   \brief   Set Control Register
