ARM GAS  C:\Users\12990\AppData\Local\Temp\cc1clWBF.s 			page 1


   1              		.cpu cortex-m4
   2              		.arch armv7e-m
   3              		.fpu fpv4-sp-d16
   4              		.eabi_attribute 27, 1
   5              		.eabi_attribute 28, 1
   6              		.eabi_attribute 20, 1
   7              		.eabi_attribute 21, 1
   8              		.eabi_attribute 23, 3
   9              		.eabi_attribute 24, 1
  10              		.eabi_attribute 25, 1
  11              		.eabi_attribute 26, 1
  12              		.eabi_attribute 30, 1
  13              		.eabi_attribute 34, 1
  14              		.eabi_attribute 18, 4
  15              		.file	"stm32f4xx_hal_dma_ex.c"
  16              		.text
  17              	.Ltext0:
  18              		.cfi_sections	.debug_frame
  19              		.section	.text.DMA_MultiBufferSetConfig,"ax",%progbits
  20              		.align	1
  21              		.syntax unified
  22              		.thumb
  23              		.thumb_func
  25              	DMA_MultiBufferSetConfig:
  26              	.LVL0:
  27              	.LFB133:
  28              		.file 1 "Drivers/STM32F4xx_HAL_Driver/Src/stm32f4xx_hal_dma_ex.c"
   1:Drivers/STM32F4xx_HAL_Driver/Src/stm32f4xx_hal_dma_ex.c **** /**
   2:Drivers/STM32F4xx_HAL_Driver/Src/stm32f4xx_hal_dma_ex.c ****   ******************************************************************************
   3:Drivers/STM32F4xx_HAL_Driver/Src/stm32f4xx_hal_dma_ex.c ****   * @file    stm32f4xx_hal_dma_ex.c
   4:Drivers/STM32F4xx_HAL_Driver/Src/stm32f4xx_hal_dma_ex.c ****   * @author  MCD Application Team
   5:Drivers/STM32F4xx_HAL_Driver/Src/stm32f4xx_hal_dma_ex.c ****   * @brief   DMA Extension HAL module driver
   6:Drivers/STM32F4xx_HAL_Driver/Src/stm32f4xx_hal_dma_ex.c ****   *         This file provides firmware functions to manage the following 
   7:Drivers/STM32F4xx_HAL_Driver/Src/stm32f4xx_hal_dma_ex.c ****   *         functionalities of the DMA Extension peripheral:
   8:Drivers/STM32F4xx_HAL_Driver/Src/stm32f4xx_hal_dma_ex.c ****   *           + Extended features functions
   9:Drivers/STM32F4xx_HAL_Driver/Src/stm32f4xx_hal_dma_ex.c ****   *
  10:Drivers/STM32F4xx_HAL_Driver/Src/stm32f4xx_hal_dma_ex.c ****   @verbatim
  11:Drivers/STM32F4xx_HAL_Driver/Src/stm32f4xx_hal_dma_ex.c ****   ==============================================================================
  12:Drivers/STM32F4xx_HAL_Driver/Src/stm32f4xx_hal_dma_ex.c ****                         ##### How to use this driver #####
  13:Drivers/STM32F4xx_HAL_Driver/Src/stm32f4xx_hal_dma_ex.c ****   ==============================================================================
  14:Drivers/STM32F4xx_HAL_Driver/Src/stm32f4xx_hal_dma_ex.c ****   [..]
  15:Drivers/STM32F4xx_HAL_Driver/Src/stm32f4xx_hal_dma_ex.c ****   The DMA Extension HAL driver can be used as follows:
  16:Drivers/STM32F4xx_HAL_Driver/Src/stm32f4xx_hal_dma_ex.c ****    (#) Start a multi buffer transfer using the HAL_DMA_MultiBufferStart() function
  17:Drivers/STM32F4xx_HAL_Driver/Src/stm32f4xx_hal_dma_ex.c ****        for polling mode or HAL_DMA_MultiBufferStart_IT() for interrupt mode.
  18:Drivers/STM32F4xx_HAL_Driver/Src/stm32f4xx_hal_dma_ex.c ****                    
  19:Drivers/STM32F4xx_HAL_Driver/Src/stm32f4xx_hal_dma_ex.c ****      -@-  In Memory-to-Memory transfer mode, Multi (Double) Buffer mode is not allowed.
  20:Drivers/STM32F4xx_HAL_Driver/Src/stm32f4xx_hal_dma_ex.c ****      -@-  When Multi (Double) Buffer mode is enabled the, transfer is circular by default.
  21:Drivers/STM32F4xx_HAL_Driver/Src/stm32f4xx_hal_dma_ex.c ****      -@-  In Multi (Double) buffer mode, it is possible to update the base address for 
  22:Drivers/STM32F4xx_HAL_Driver/Src/stm32f4xx_hal_dma_ex.c ****           the AHB memory port on the fly (DMA_SxM0AR or DMA_SxM1AR) when the stream is enabled. 
  23:Drivers/STM32F4xx_HAL_Driver/Src/stm32f4xx_hal_dma_ex.c ****   
  24:Drivers/STM32F4xx_HAL_Driver/Src/stm32f4xx_hal_dma_ex.c ****   @endverbatim
  25:Drivers/STM32F4xx_HAL_Driver/Src/stm32f4xx_hal_dma_ex.c ****   ******************************************************************************
  26:Drivers/STM32F4xx_HAL_Driver/Src/stm32f4xx_hal_dma_ex.c ****   * @attention
  27:Drivers/STM32F4xx_HAL_Driver/Src/stm32f4xx_hal_dma_ex.c ****   *
  28:Drivers/STM32F4xx_HAL_Driver/Src/stm32f4xx_hal_dma_ex.c ****   * Copyright (c) 2017 STMicroelectronics.
  29:Drivers/STM32F4xx_HAL_Driver/Src/stm32f4xx_hal_dma_ex.c ****   * All rights reserved.
  30:Drivers/STM32F4xx_HAL_Driver/Src/stm32f4xx_hal_dma_ex.c ****   *
ARM GAS  C:\Users\12990\AppData\Local\Temp\cc1clWBF.s 			page 2


  31:Drivers/STM32F4xx_HAL_Driver/Src/stm32f4xx_hal_dma_ex.c ****   * This software is licensed under terms that can be found in the LICENSE file in
  32:Drivers/STM32F4xx_HAL_Driver/Src/stm32f4xx_hal_dma_ex.c ****   * the root directory of this software component.
  33:Drivers/STM32F4xx_HAL_Driver/Src/stm32f4xx_hal_dma_ex.c ****   * If no LICENSE file comes with this software, it is provided AS-IS.
  34:Drivers/STM32F4xx_HAL_Driver/Src/stm32f4xx_hal_dma_ex.c ****   *
  35:Drivers/STM32F4xx_HAL_Driver/Src/stm32f4xx_hal_dma_ex.c ****   ******************************************************************************
  36:Drivers/STM32F4xx_HAL_Driver/Src/stm32f4xx_hal_dma_ex.c ****   */
  37:Drivers/STM32F4xx_HAL_Driver/Src/stm32f4xx_hal_dma_ex.c **** 
  38:Drivers/STM32F4xx_HAL_Driver/Src/stm32f4xx_hal_dma_ex.c **** /* Includes ------------------------------------------------------------------*/
  39:Drivers/STM32F4xx_HAL_Driver/Src/stm32f4xx_hal_dma_ex.c **** #include "stm32f4xx_hal.h"
  40:Drivers/STM32F4xx_HAL_Driver/Src/stm32f4xx_hal_dma_ex.c **** 
  41:Drivers/STM32F4xx_HAL_Driver/Src/stm32f4xx_hal_dma_ex.c **** /** @addtogroup STM32F4xx_HAL_Driver
  42:Drivers/STM32F4xx_HAL_Driver/Src/stm32f4xx_hal_dma_ex.c ****   * @{
  43:Drivers/STM32F4xx_HAL_Driver/Src/stm32f4xx_hal_dma_ex.c ****   */
  44:Drivers/STM32F4xx_HAL_Driver/Src/stm32f4xx_hal_dma_ex.c **** 
  45:Drivers/STM32F4xx_HAL_Driver/Src/stm32f4xx_hal_dma_ex.c **** /** @defgroup DMAEx DMAEx
  46:Drivers/STM32F4xx_HAL_Driver/Src/stm32f4xx_hal_dma_ex.c ****   * @brief DMA Extended HAL module driver
  47:Drivers/STM32F4xx_HAL_Driver/Src/stm32f4xx_hal_dma_ex.c ****   * @{
  48:Drivers/STM32F4xx_HAL_Driver/Src/stm32f4xx_hal_dma_ex.c ****   */
  49:Drivers/STM32F4xx_HAL_Driver/Src/stm32f4xx_hal_dma_ex.c **** 
  50:Drivers/STM32F4xx_HAL_Driver/Src/stm32f4xx_hal_dma_ex.c **** #ifdef HAL_DMA_MODULE_ENABLED
  51:Drivers/STM32F4xx_HAL_Driver/Src/stm32f4xx_hal_dma_ex.c **** 
  52:Drivers/STM32F4xx_HAL_Driver/Src/stm32f4xx_hal_dma_ex.c **** /* Private types -------------------------------------------------------------*/
  53:Drivers/STM32F4xx_HAL_Driver/Src/stm32f4xx_hal_dma_ex.c **** /* Private variables ---------------------------------------------------------*/
  54:Drivers/STM32F4xx_HAL_Driver/Src/stm32f4xx_hal_dma_ex.c **** /* Private Constants ---------------------------------------------------------*/
  55:Drivers/STM32F4xx_HAL_Driver/Src/stm32f4xx_hal_dma_ex.c **** /* Private macros ------------------------------------------------------------*/
  56:Drivers/STM32F4xx_HAL_Driver/Src/stm32f4xx_hal_dma_ex.c **** /* Private functions ---------------------------------------------------------*/
  57:Drivers/STM32F4xx_HAL_Driver/Src/stm32f4xx_hal_dma_ex.c **** /** @addtogroup DMAEx_Private_Functions
  58:Drivers/STM32F4xx_HAL_Driver/Src/stm32f4xx_hal_dma_ex.c ****   * @{
  59:Drivers/STM32F4xx_HAL_Driver/Src/stm32f4xx_hal_dma_ex.c ****   */
  60:Drivers/STM32F4xx_HAL_Driver/Src/stm32f4xx_hal_dma_ex.c **** static void DMA_MultiBufferSetConfig(DMA_HandleTypeDef *hdma, uint32_t SrcAddress, uint32_t DstAddr
  61:Drivers/STM32F4xx_HAL_Driver/Src/stm32f4xx_hal_dma_ex.c **** /**
  62:Drivers/STM32F4xx_HAL_Driver/Src/stm32f4xx_hal_dma_ex.c ****   * @}
  63:Drivers/STM32F4xx_HAL_Driver/Src/stm32f4xx_hal_dma_ex.c ****   */
  64:Drivers/STM32F4xx_HAL_Driver/Src/stm32f4xx_hal_dma_ex.c **** 
  65:Drivers/STM32F4xx_HAL_Driver/Src/stm32f4xx_hal_dma_ex.c **** /* Exported functions ---------------------------------------------------------*/
  66:Drivers/STM32F4xx_HAL_Driver/Src/stm32f4xx_hal_dma_ex.c **** 
  67:Drivers/STM32F4xx_HAL_Driver/Src/stm32f4xx_hal_dma_ex.c **** /** @addtogroup DMAEx_Exported_Functions
  68:Drivers/STM32F4xx_HAL_Driver/Src/stm32f4xx_hal_dma_ex.c ****   * @{
  69:Drivers/STM32F4xx_HAL_Driver/Src/stm32f4xx_hal_dma_ex.c ****   */
  70:Drivers/STM32F4xx_HAL_Driver/Src/stm32f4xx_hal_dma_ex.c **** 
  71:Drivers/STM32F4xx_HAL_Driver/Src/stm32f4xx_hal_dma_ex.c **** 
  72:Drivers/STM32F4xx_HAL_Driver/Src/stm32f4xx_hal_dma_ex.c **** /** @addtogroup DMAEx_Exported_Functions_Group1
  73:Drivers/STM32F4xx_HAL_Driver/Src/stm32f4xx_hal_dma_ex.c ****   *
  74:Drivers/STM32F4xx_HAL_Driver/Src/stm32f4xx_hal_dma_ex.c **** @verbatim   
  75:Drivers/STM32F4xx_HAL_Driver/Src/stm32f4xx_hal_dma_ex.c ****  ===============================================================================
  76:Drivers/STM32F4xx_HAL_Driver/Src/stm32f4xx_hal_dma_ex.c ****                 #####  Extended features functions  #####
  77:Drivers/STM32F4xx_HAL_Driver/Src/stm32f4xx_hal_dma_ex.c ****  ===============================================================================  
  78:Drivers/STM32F4xx_HAL_Driver/Src/stm32f4xx_hal_dma_ex.c ****     [..]  This section provides functions allowing to:
  79:Drivers/STM32F4xx_HAL_Driver/Src/stm32f4xx_hal_dma_ex.c ****       (+) Configure the source, destination address and data length and 
  80:Drivers/STM32F4xx_HAL_Driver/Src/stm32f4xx_hal_dma_ex.c ****           Start MultiBuffer DMA transfer
  81:Drivers/STM32F4xx_HAL_Driver/Src/stm32f4xx_hal_dma_ex.c ****       (+) Configure the source, destination address and data length and 
  82:Drivers/STM32F4xx_HAL_Driver/Src/stm32f4xx_hal_dma_ex.c ****           Start MultiBuffer DMA transfer with interrupt
  83:Drivers/STM32F4xx_HAL_Driver/Src/stm32f4xx_hal_dma_ex.c ****       (+) Change on the fly the memory0 or memory1 address.
  84:Drivers/STM32F4xx_HAL_Driver/Src/stm32f4xx_hal_dma_ex.c ****       
  85:Drivers/STM32F4xx_HAL_Driver/Src/stm32f4xx_hal_dma_ex.c **** @endverbatim
  86:Drivers/STM32F4xx_HAL_Driver/Src/stm32f4xx_hal_dma_ex.c ****   * @{
  87:Drivers/STM32F4xx_HAL_Driver/Src/stm32f4xx_hal_dma_ex.c ****   */
ARM GAS  C:\Users\12990\AppData\Local\Temp\cc1clWBF.s 			page 3


  88:Drivers/STM32F4xx_HAL_Driver/Src/stm32f4xx_hal_dma_ex.c **** 
  89:Drivers/STM32F4xx_HAL_Driver/Src/stm32f4xx_hal_dma_ex.c **** 
  90:Drivers/STM32F4xx_HAL_Driver/Src/stm32f4xx_hal_dma_ex.c **** /**
  91:Drivers/STM32F4xx_HAL_Driver/Src/stm32f4xx_hal_dma_ex.c ****   * @brief  Starts the multi_buffer DMA Transfer.
  92:Drivers/STM32F4xx_HAL_Driver/Src/stm32f4xx_hal_dma_ex.c ****   * @param  hdma       pointer to a DMA_HandleTypeDef structure that contains
  93:Drivers/STM32F4xx_HAL_Driver/Src/stm32f4xx_hal_dma_ex.c ****   *                     the configuration information for the specified DMA Stream.  
  94:Drivers/STM32F4xx_HAL_Driver/Src/stm32f4xx_hal_dma_ex.c ****   * @param  SrcAddress The source memory Buffer address
  95:Drivers/STM32F4xx_HAL_Driver/Src/stm32f4xx_hal_dma_ex.c ****   * @param  DstAddress The destination memory Buffer address
  96:Drivers/STM32F4xx_HAL_Driver/Src/stm32f4xx_hal_dma_ex.c ****   * @param  SecondMemAddress The second memory Buffer address in case of multi buffer Transfer  
  97:Drivers/STM32F4xx_HAL_Driver/Src/stm32f4xx_hal_dma_ex.c ****   * @param  DataLength The length of data to be transferred from source to destination
  98:Drivers/STM32F4xx_HAL_Driver/Src/stm32f4xx_hal_dma_ex.c ****   * @retval HAL status
  99:Drivers/STM32F4xx_HAL_Driver/Src/stm32f4xx_hal_dma_ex.c ****   */
 100:Drivers/STM32F4xx_HAL_Driver/Src/stm32f4xx_hal_dma_ex.c **** HAL_StatusTypeDef HAL_DMAEx_MultiBufferStart(DMA_HandleTypeDef *hdma, uint32_t SrcAddress, uint32_t
 101:Drivers/STM32F4xx_HAL_Driver/Src/stm32f4xx_hal_dma_ex.c **** {
 102:Drivers/STM32F4xx_HAL_Driver/Src/stm32f4xx_hal_dma_ex.c ****   HAL_StatusTypeDef status = HAL_OK;
 103:Drivers/STM32F4xx_HAL_Driver/Src/stm32f4xx_hal_dma_ex.c ****   
 104:Drivers/STM32F4xx_HAL_Driver/Src/stm32f4xx_hal_dma_ex.c ****   /* Check the parameters */
 105:Drivers/STM32F4xx_HAL_Driver/Src/stm32f4xx_hal_dma_ex.c ****   assert_param(IS_DMA_BUFFER_SIZE(DataLength));
 106:Drivers/STM32F4xx_HAL_Driver/Src/stm32f4xx_hal_dma_ex.c ****   
 107:Drivers/STM32F4xx_HAL_Driver/Src/stm32f4xx_hal_dma_ex.c ****   /* Memory-to-memory transfer not supported in double buffering mode */
 108:Drivers/STM32F4xx_HAL_Driver/Src/stm32f4xx_hal_dma_ex.c ****   if (hdma->Init.Direction == DMA_MEMORY_TO_MEMORY)
 109:Drivers/STM32F4xx_HAL_Driver/Src/stm32f4xx_hal_dma_ex.c ****   {
 110:Drivers/STM32F4xx_HAL_Driver/Src/stm32f4xx_hal_dma_ex.c ****     hdma->ErrorCode = HAL_DMA_ERROR_NOT_SUPPORTED;
 111:Drivers/STM32F4xx_HAL_Driver/Src/stm32f4xx_hal_dma_ex.c ****     status = HAL_ERROR;
 112:Drivers/STM32F4xx_HAL_Driver/Src/stm32f4xx_hal_dma_ex.c ****   }
 113:Drivers/STM32F4xx_HAL_Driver/Src/stm32f4xx_hal_dma_ex.c ****   else
 114:Drivers/STM32F4xx_HAL_Driver/Src/stm32f4xx_hal_dma_ex.c ****   {
 115:Drivers/STM32F4xx_HAL_Driver/Src/stm32f4xx_hal_dma_ex.c ****     /* Process Locked */
 116:Drivers/STM32F4xx_HAL_Driver/Src/stm32f4xx_hal_dma_ex.c ****     __HAL_LOCK(hdma);
 117:Drivers/STM32F4xx_HAL_Driver/Src/stm32f4xx_hal_dma_ex.c ****     
 118:Drivers/STM32F4xx_HAL_Driver/Src/stm32f4xx_hal_dma_ex.c ****     if(HAL_DMA_STATE_READY == hdma->State)
 119:Drivers/STM32F4xx_HAL_Driver/Src/stm32f4xx_hal_dma_ex.c ****     {
 120:Drivers/STM32F4xx_HAL_Driver/Src/stm32f4xx_hal_dma_ex.c ****       /* Change DMA peripheral state */
 121:Drivers/STM32F4xx_HAL_Driver/Src/stm32f4xx_hal_dma_ex.c ****       hdma->State = HAL_DMA_STATE_BUSY; 
 122:Drivers/STM32F4xx_HAL_Driver/Src/stm32f4xx_hal_dma_ex.c ****       
 123:Drivers/STM32F4xx_HAL_Driver/Src/stm32f4xx_hal_dma_ex.c ****       /* Enable the double buffer mode */
 124:Drivers/STM32F4xx_HAL_Driver/Src/stm32f4xx_hal_dma_ex.c ****       hdma->Instance->CR |= (uint32_t)DMA_SxCR_DBM;
 125:Drivers/STM32F4xx_HAL_Driver/Src/stm32f4xx_hal_dma_ex.c ****       
 126:Drivers/STM32F4xx_HAL_Driver/Src/stm32f4xx_hal_dma_ex.c ****       /* Configure DMA Stream destination address */
 127:Drivers/STM32F4xx_HAL_Driver/Src/stm32f4xx_hal_dma_ex.c ****       hdma->Instance->M1AR = SecondMemAddress;
 128:Drivers/STM32F4xx_HAL_Driver/Src/stm32f4xx_hal_dma_ex.c ****       
 129:Drivers/STM32F4xx_HAL_Driver/Src/stm32f4xx_hal_dma_ex.c ****       /* Configure the source, destination address and the data length */
 130:Drivers/STM32F4xx_HAL_Driver/Src/stm32f4xx_hal_dma_ex.c ****       DMA_MultiBufferSetConfig(hdma, SrcAddress, DstAddress, DataLength);
 131:Drivers/STM32F4xx_HAL_Driver/Src/stm32f4xx_hal_dma_ex.c ****       
 132:Drivers/STM32F4xx_HAL_Driver/Src/stm32f4xx_hal_dma_ex.c ****       /* Enable the peripheral */
 133:Drivers/STM32F4xx_HAL_Driver/Src/stm32f4xx_hal_dma_ex.c ****       __HAL_DMA_ENABLE(hdma);
 134:Drivers/STM32F4xx_HAL_Driver/Src/stm32f4xx_hal_dma_ex.c ****     }
 135:Drivers/STM32F4xx_HAL_Driver/Src/stm32f4xx_hal_dma_ex.c ****     else
 136:Drivers/STM32F4xx_HAL_Driver/Src/stm32f4xx_hal_dma_ex.c ****     {
 137:Drivers/STM32F4xx_HAL_Driver/Src/stm32f4xx_hal_dma_ex.c ****       /* Return error status */
 138:Drivers/STM32F4xx_HAL_Driver/Src/stm32f4xx_hal_dma_ex.c ****       status = HAL_BUSY;
 139:Drivers/STM32F4xx_HAL_Driver/Src/stm32f4xx_hal_dma_ex.c ****     }
 140:Drivers/STM32F4xx_HAL_Driver/Src/stm32f4xx_hal_dma_ex.c ****   }
 141:Drivers/STM32F4xx_HAL_Driver/Src/stm32f4xx_hal_dma_ex.c ****   return status;
 142:Drivers/STM32F4xx_HAL_Driver/Src/stm32f4xx_hal_dma_ex.c **** }
 143:Drivers/STM32F4xx_HAL_Driver/Src/stm32f4xx_hal_dma_ex.c **** 
 144:Drivers/STM32F4xx_HAL_Driver/Src/stm32f4xx_hal_dma_ex.c **** /**
ARM GAS  C:\Users\12990\AppData\Local\Temp\cc1clWBF.s 			page 4


 145:Drivers/STM32F4xx_HAL_Driver/Src/stm32f4xx_hal_dma_ex.c ****   * @brief  Starts the multi_buffer DMA Transfer with interrupt enabled.
 146:Drivers/STM32F4xx_HAL_Driver/Src/stm32f4xx_hal_dma_ex.c ****   * @param  hdma       pointer to a DMA_HandleTypeDef structure that contains
 147:Drivers/STM32F4xx_HAL_Driver/Src/stm32f4xx_hal_dma_ex.c ****   *                     the configuration information for the specified DMA Stream.  
 148:Drivers/STM32F4xx_HAL_Driver/Src/stm32f4xx_hal_dma_ex.c ****   * @param  SrcAddress The source memory Buffer address
 149:Drivers/STM32F4xx_HAL_Driver/Src/stm32f4xx_hal_dma_ex.c ****   * @param  DstAddress The destination memory Buffer address
 150:Drivers/STM32F4xx_HAL_Driver/Src/stm32f4xx_hal_dma_ex.c ****   * @param  SecondMemAddress The second memory Buffer address in case of multi buffer Transfer  
 151:Drivers/STM32F4xx_HAL_Driver/Src/stm32f4xx_hal_dma_ex.c ****   * @param  DataLength The length of data to be transferred from source to destination
 152:Drivers/STM32F4xx_HAL_Driver/Src/stm32f4xx_hal_dma_ex.c ****   * @retval HAL status
 153:Drivers/STM32F4xx_HAL_Driver/Src/stm32f4xx_hal_dma_ex.c ****   */
 154:Drivers/STM32F4xx_HAL_Driver/Src/stm32f4xx_hal_dma_ex.c **** HAL_StatusTypeDef HAL_DMAEx_MultiBufferStart_IT(DMA_HandleTypeDef *hdma, uint32_t SrcAddress, uint3
 155:Drivers/STM32F4xx_HAL_Driver/Src/stm32f4xx_hal_dma_ex.c **** {
 156:Drivers/STM32F4xx_HAL_Driver/Src/stm32f4xx_hal_dma_ex.c ****   HAL_StatusTypeDef status = HAL_OK;
 157:Drivers/STM32F4xx_HAL_Driver/Src/stm32f4xx_hal_dma_ex.c ****   
 158:Drivers/STM32F4xx_HAL_Driver/Src/stm32f4xx_hal_dma_ex.c ****   /* Check the parameters */
 159:Drivers/STM32F4xx_HAL_Driver/Src/stm32f4xx_hal_dma_ex.c ****   assert_param(IS_DMA_BUFFER_SIZE(DataLength));
 160:Drivers/STM32F4xx_HAL_Driver/Src/stm32f4xx_hal_dma_ex.c ****   
 161:Drivers/STM32F4xx_HAL_Driver/Src/stm32f4xx_hal_dma_ex.c ****   /* Memory-to-memory transfer not supported in double buffering mode */
 162:Drivers/STM32F4xx_HAL_Driver/Src/stm32f4xx_hal_dma_ex.c ****   if (hdma->Init.Direction == DMA_MEMORY_TO_MEMORY)
 163:Drivers/STM32F4xx_HAL_Driver/Src/stm32f4xx_hal_dma_ex.c ****   {
 164:Drivers/STM32F4xx_HAL_Driver/Src/stm32f4xx_hal_dma_ex.c ****     hdma->ErrorCode = HAL_DMA_ERROR_NOT_SUPPORTED;
 165:Drivers/STM32F4xx_HAL_Driver/Src/stm32f4xx_hal_dma_ex.c ****     return HAL_ERROR;
 166:Drivers/STM32F4xx_HAL_Driver/Src/stm32f4xx_hal_dma_ex.c ****   }
 167:Drivers/STM32F4xx_HAL_Driver/Src/stm32f4xx_hal_dma_ex.c ****   
 168:Drivers/STM32F4xx_HAL_Driver/Src/stm32f4xx_hal_dma_ex.c ****   /* Check callback functions */
 169:Drivers/STM32F4xx_HAL_Driver/Src/stm32f4xx_hal_dma_ex.c ****   if ((NULL == hdma->XferCpltCallback) || (NULL == hdma->XferM1CpltCallback) || (NULL == hdma->Xfer
 170:Drivers/STM32F4xx_HAL_Driver/Src/stm32f4xx_hal_dma_ex.c ****   {
 171:Drivers/STM32F4xx_HAL_Driver/Src/stm32f4xx_hal_dma_ex.c ****     hdma->ErrorCode = HAL_DMA_ERROR_PARAM;
 172:Drivers/STM32F4xx_HAL_Driver/Src/stm32f4xx_hal_dma_ex.c ****     return HAL_ERROR;
 173:Drivers/STM32F4xx_HAL_Driver/Src/stm32f4xx_hal_dma_ex.c ****   }
 174:Drivers/STM32F4xx_HAL_Driver/Src/stm32f4xx_hal_dma_ex.c ****   
 175:Drivers/STM32F4xx_HAL_Driver/Src/stm32f4xx_hal_dma_ex.c ****   /* Process locked */
 176:Drivers/STM32F4xx_HAL_Driver/Src/stm32f4xx_hal_dma_ex.c ****   __HAL_LOCK(hdma);
 177:Drivers/STM32F4xx_HAL_Driver/Src/stm32f4xx_hal_dma_ex.c ****   
 178:Drivers/STM32F4xx_HAL_Driver/Src/stm32f4xx_hal_dma_ex.c ****   if(HAL_DMA_STATE_READY == hdma->State)
 179:Drivers/STM32F4xx_HAL_Driver/Src/stm32f4xx_hal_dma_ex.c ****   {
 180:Drivers/STM32F4xx_HAL_Driver/Src/stm32f4xx_hal_dma_ex.c ****     /* Change DMA peripheral state */
 181:Drivers/STM32F4xx_HAL_Driver/Src/stm32f4xx_hal_dma_ex.c ****     hdma->State = HAL_DMA_STATE_BUSY;
 182:Drivers/STM32F4xx_HAL_Driver/Src/stm32f4xx_hal_dma_ex.c ****     
 183:Drivers/STM32F4xx_HAL_Driver/Src/stm32f4xx_hal_dma_ex.c ****     /* Initialize the error code */
 184:Drivers/STM32F4xx_HAL_Driver/Src/stm32f4xx_hal_dma_ex.c ****     hdma->ErrorCode = HAL_DMA_ERROR_NONE;
 185:Drivers/STM32F4xx_HAL_Driver/Src/stm32f4xx_hal_dma_ex.c ****     
 186:Drivers/STM32F4xx_HAL_Driver/Src/stm32f4xx_hal_dma_ex.c ****     /* Enable the Double buffer mode */
 187:Drivers/STM32F4xx_HAL_Driver/Src/stm32f4xx_hal_dma_ex.c ****     hdma->Instance->CR |= (uint32_t)DMA_SxCR_DBM;
 188:Drivers/STM32F4xx_HAL_Driver/Src/stm32f4xx_hal_dma_ex.c ****     
 189:Drivers/STM32F4xx_HAL_Driver/Src/stm32f4xx_hal_dma_ex.c ****     /* Configure DMA Stream destination address */
 190:Drivers/STM32F4xx_HAL_Driver/Src/stm32f4xx_hal_dma_ex.c ****     hdma->Instance->M1AR = SecondMemAddress;
 191:Drivers/STM32F4xx_HAL_Driver/Src/stm32f4xx_hal_dma_ex.c ****     
 192:Drivers/STM32F4xx_HAL_Driver/Src/stm32f4xx_hal_dma_ex.c ****     /* Configure the source, destination address and the data length */
 193:Drivers/STM32F4xx_HAL_Driver/Src/stm32f4xx_hal_dma_ex.c ****     DMA_MultiBufferSetConfig(hdma, SrcAddress, DstAddress, DataLength); 
 194:Drivers/STM32F4xx_HAL_Driver/Src/stm32f4xx_hal_dma_ex.c ****     
 195:Drivers/STM32F4xx_HAL_Driver/Src/stm32f4xx_hal_dma_ex.c ****     /* Clear all flags */
 196:Drivers/STM32F4xx_HAL_Driver/Src/stm32f4xx_hal_dma_ex.c ****     __HAL_DMA_CLEAR_FLAG (hdma, __HAL_DMA_GET_TC_FLAG_INDEX(hdma));
 197:Drivers/STM32F4xx_HAL_Driver/Src/stm32f4xx_hal_dma_ex.c ****     __HAL_DMA_CLEAR_FLAG (hdma, __HAL_DMA_GET_HT_FLAG_INDEX(hdma));
 198:Drivers/STM32F4xx_HAL_Driver/Src/stm32f4xx_hal_dma_ex.c ****     __HAL_DMA_CLEAR_FLAG (hdma, __HAL_DMA_GET_TE_FLAG_INDEX(hdma));
 199:Drivers/STM32F4xx_HAL_Driver/Src/stm32f4xx_hal_dma_ex.c ****     __HAL_DMA_CLEAR_FLAG (hdma, __HAL_DMA_GET_DME_FLAG_INDEX(hdma));
 200:Drivers/STM32F4xx_HAL_Driver/Src/stm32f4xx_hal_dma_ex.c ****     __HAL_DMA_CLEAR_FLAG (hdma, __HAL_DMA_GET_FE_FLAG_INDEX(hdma));
 201:Drivers/STM32F4xx_HAL_Driver/Src/stm32f4xx_hal_dma_ex.c **** 
ARM GAS  C:\Users\12990\AppData\Local\Temp\cc1clWBF.s 			page 5


 202:Drivers/STM32F4xx_HAL_Driver/Src/stm32f4xx_hal_dma_ex.c ****     /* Enable Common interrupts*/
 203:Drivers/STM32F4xx_HAL_Driver/Src/stm32f4xx_hal_dma_ex.c ****     hdma->Instance->CR  |= DMA_IT_TC | DMA_IT_TE | DMA_IT_DME;
 204:Drivers/STM32F4xx_HAL_Driver/Src/stm32f4xx_hal_dma_ex.c ****     hdma->Instance->FCR |= DMA_IT_FE;
 205:Drivers/STM32F4xx_HAL_Driver/Src/stm32f4xx_hal_dma_ex.c ****     
 206:Drivers/STM32F4xx_HAL_Driver/Src/stm32f4xx_hal_dma_ex.c ****     if((hdma->XferHalfCpltCallback != NULL) || (hdma->XferM1HalfCpltCallback != NULL))
 207:Drivers/STM32F4xx_HAL_Driver/Src/stm32f4xx_hal_dma_ex.c ****     {
 208:Drivers/STM32F4xx_HAL_Driver/Src/stm32f4xx_hal_dma_ex.c ****       hdma->Instance->CR  |= DMA_IT_HT;
 209:Drivers/STM32F4xx_HAL_Driver/Src/stm32f4xx_hal_dma_ex.c ****     }
 210:Drivers/STM32F4xx_HAL_Driver/Src/stm32f4xx_hal_dma_ex.c ****     
 211:Drivers/STM32F4xx_HAL_Driver/Src/stm32f4xx_hal_dma_ex.c ****     /* Enable the peripheral */
 212:Drivers/STM32F4xx_HAL_Driver/Src/stm32f4xx_hal_dma_ex.c ****     __HAL_DMA_ENABLE(hdma); 
 213:Drivers/STM32F4xx_HAL_Driver/Src/stm32f4xx_hal_dma_ex.c ****   }
 214:Drivers/STM32F4xx_HAL_Driver/Src/stm32f4xx_hal_dma_ex.c ****   else
 215:Drivers/STM32F4xx_HAL_Driver/Src/stm32f4xx_hal_dma_ex.c ****   {     
 216:Drivers/STM32F4xx_HAL_Driver/Src/stm32f4xx_hal_dma_ex.c ****     /* Process unlocked */
 217:Drivers/STM32F4xx_HAL_Driver/Src/stm32f4xx_hal_dma_ex.c ****     __HAL_UNLOCK(hdma);	  
 218:Drivers/STM32F4xx_HAL_Driver/Src/stm32f4xx_hal_dma_ex.c ****     
 219:Drivers/STM32F4xx_HAL_Driver/Src/stm32f4xx_hal_dma_ex.c ****     /* Return error status */
 220:Drivers/STM32F4xx_HAL_Driver/Src/stm32f4xx_hal_dma_ex.c ****     status = HAL_BUSY;
 221:Drivers/STM32F4xx_HAL_Driver/Src/stm32f4xx_hal_dma_ex.c ****   }  
 222:Drivers/STM32F4xx_HAL_Driver/Src/stm32f4xx_hal_dma_ex.c ****   return status; 
 223:Drivers/STM32F4xx_HAL_Driver/Src/stm32f4xx_hal_dma_ex.c **** }
 224:Drivers/STM32F4xx_HAL_Driver/Src/stm32f4xx_hal_dma_ex.c **** 
 225:Drivers/STM32F4xx_HAL_Driver/Src/stm32f4xx_hal_dma_ex.c **** /**
 226:Drivers/STM32F4xx_HAL_Driver/Src/stm32f4xx_hal_dma_ex.c ****   * @brief  Change the memory0 or memory1 address on the fly.
 227:Drivers/STM32F4xx_HAL_Driver/Src/stm32f4xx_hal_dma_ex.c ****   * @param  hdma       pointer to a DMA_HandleTypeDef structure that contains
 228:Drivers/STM32F4xx_HAL_Driver/Src/stm32f4xx_hal_dma_ex.c ****   *                     the configuration information for the specified DMA Stream.  
 229:Drivers/STM32F4xx_HAL_Driver/Src/stm32f4xx_hal_dma_ex.c ****   * @param  Address    The new address
 230:Drivers/STM32F4xx_HAL_Driver/Src/stm32f4xx_hal_dma_ex.c ****   * @param  memory     the memory to be changed, This parameter can be one of 
 231:Drivers/STM32F4xx_HAL_Driver/Src/stm32f4xx_hal_dma_ex.c ****   *                     the following values:
 232:Drivers/STM32F4xx_HAL_Driver/Src/stm32f4xx_hal_dma_ex.c ****   *                      MEMORY0 /
 233:Drivers/STM32F4xx_HAL_Driver/Src/stm32f4xx_hal_dma_ex.c ****   *                      MEMORY1
 234:Drivers/STM32F4xx_HAL_Driver/Src/stm32f4xx_hal_dma_ex.c ****   * @note   The MEMORY0 address can be changed only when the current transfer use
 235:Drivers/STM32F4xx_HAL_Driver/Src/stm32f4xx_hal_dma_ex.c ****   *         MEMORY1 and the MEMORY1 address can be changed only when the current 
 236:Drivers/STM32F4xx_HAL_Driver/Src/stm32f4xx_hal_dma_ex.c ****   *         transfer use MEMORY0.
 237:Drivers/STM32F4xx_HAL_Driver/Src/stm32f4xx_hal_dma_ex.c ****   * @retval HAL status
 238:Drivers/STM32F4xx_HAL_Driver/Src/stm32f4xx_hal_dma_ex.c ****   */
 239:Drivers/STM32F4xx_HAL_Driver/Src/stm32f4xx_hal_dma_ex.c **** HAL_StatusTypeDef HAL_DMAEx_ChangeMemory(DMA_HandleTypeDef *hdma, uint32_t Address, HAL_DMA_MemoryT
 240:Drivers/STM32F4xx_HAL_Driver/Src/stm32f4xx_hal_dma_ex.c **** {
 241:Drivers/STM32F4xx_HAL_Driver/Src/stm32f4xx_hal_dma_ex.c ****   if(memory == MEMORY0)
 242:Drivers/STM32F4xx_HAL_Driver/Src/stm32f4xx_hal_dma_ex.c ****   {
 243:Drivers/STM32F4xx_HAL_Driver/Src/stm32f4xx_hal_dma_ex.c ****     /* change the memory0 address */
 244:Drivers/STM32F4xx_HAL_Driver/Src/stm32f4xx_hal_dma_ex.c ****     hdma->Instance->M0AR = Address;
 245:Drivers/STM32F4xx_HAL_Driver/Src/stm32f4xx_hal_dma_ex.c ****   }
 246:Drivers/STM32F4xx_HAL_Driver/Src/stm32f4xx_hal_dma_ex.c ****   else
 247:Drivers/STM32F4xx_HAL_Driver/Src/stm32f4xx_hal_dma_ex.c ****   {
 248:Drivers/STM32F4xx_HAL_Driver/Src/stm32f4xx_hal_dma_ex.c ****     /* change the memory1 address */
 249:Drivers/STM32F4xx_HAL_Driver/Src/stm32f4xx_hal_dma_ex.c ****     hdma->Instance->M1AR = Address;
 250:Drivers/STM32F4xx_HAL_Driver/Src/stm32f4xx_hal_dma_ex.c ****   }
 251:Drivers/STM32F4xx_HAL_Driver/Src/stm32f4xx_hal_dma_ex.c **** 
 252:Drivers/STM32F4xx_HAL_Driver/Src/stm32f4xx_hal_dma_ex.c ****   return HAL_OK;
 253:Drivers/STM32F4xx_HAL_Driver/Src/stm32f4xx_hal_dma_ex.c **** }
 254:Drivers/STM32F4xx_HAL_Driver/Src/stm32f4xx_hal_dma_ex.c **** 
 255:Drivers/STM32F4xx_HAL_Driver/Src/stm32f4xx_hal_dma_ex.c **** /**
 256:Drivers/STM32F4xx_HAL_Driver/Src/stm32f4xx_hal_dma_ex.c ****   * @}
 257:Drivers/STM32F4xx_HAL_Driver/Src/stm32f4xx_hal_dma_ex.c ****   */
 258:Drivers/STM32F4xx_HAL_Driver/Src/stm32f4xx_hal_dma_ex.c **** 
ARM GAS  C:\Users\12990\AppData\Local\Temp\cc1clWBF.s 			page 6


 259:Drivers/STM32F4xx_HAL_Driver/Src/stm32f4xx_hal_dma_ex.c **** /**
 260:Drivers/STM32F4xx_HAL_Driver/Src/stm32f4xx_hal_dma_ex.c ****   * @}
 261:Drivers/STM32F4xx_HAL_Driver/Src/stm32f4xx_hal_dma_ex.c ****   */
 262:Drivers/STM32F4xx_HAL_Driver/Src/stm32f4xx_hal_dma_ex.c **** 
 263:Drivers/STM32F4xx_HAL_Driver/Src/stm32f4xx_hal_dma_ex.c **** /** @addtogroup DMAEx_Private_Functions
 264:Drivers/STM32F4xx_HAL_Driver/Src/stm32f4xx_hal_dma_ex.c ****   * @{
 265:Drivers/STM32F4xx_HAL_Driver/Src/stm32f4xx_hal_dma_ex.c ****   */
 266:Drivers/STM32F4xx_HAL_Driver/Src/stm32f4xx_hal_dma_ex.c **** 
 267:Drivers/STM32F4xx_HAL_Driver/Src/stm32f4xx_hal_dma_ex.c **** /**
 268:Drivers/STM32F4xx_HAL_Driver/Src/stm32f4xx_hal_dma_ex.c ****   * @brief  Set the DMA Transfer parameter.
 269:Drivers/STM32F4xx_HAL_Driver/Src/stm32f4xx_hal_dma_ex.c ****   * @param  hdma       pointer to a DMA_HandleTypeDef structure that contains
 270:Drivers/STM32F4xx_HAL_Driver/Src/stm32f4xx_hal_dma_ex.c ****   *                     the configuration information for the specified DMA Stream.  
 271:Drivers/STM32F4xx_HAL_Driver/Src/stm32f4xx_hal_dma_ex.c ****   * @param  SrcAddress The source memory Buffer address
 272:Drivers/STM32F4xx_HAL_Driver/Src/stm32f4xx_hal_dma_ex.c ****   * @param  DstAddress The destination memory Buffer address
 273:Drivers/STM32F4xx_HAL_Driver/Src/stm32f4xx_hal_dma_ex.c ****   * @param  DataLength The length of data to be transferred from source to destination
 274:Drivers/STM32F4xx_HAL_Driver/Src/stm32f4xx_hal_dma_ex.c ****   * @retval HAL status
 275:Drivers/STM32F4xx_HAL_Driver/Src/stm32f4xx_hal_dma_ex.c ****   */
 276:Drivers/STM32F4xx_HAL_Driver/Src/stm32f4xx_hal_dma_ex.c **** static void DMA_MultiBufferSetConfig(DMA_HandleTypeDef *hdma, uint32_t SrcAddress, uint32_t DstAddr
 277:Drivers/STM32F4xx_HAL_Driver/Src/stm32f4xx_hal_dma_ex.c **** {  
  29              		.loc 1 277 1 view -0
  30              		.cfi_startproc
  31              		@ args = 0, pretend = 0, frame = 0
  32              		@ frame_needed = 0, uses_anonymous_args = 0
  33              		@ link register save eliminated.
  34              		.loc 1 277 1 is_stmt 0 view .LVU1
  35 0000 10B4     		push	{r4}
  36              	.LCFI0:
  37              		.cfi_def_cfa_offset 4
  38              		.cfi_offset 4, -4
 278:Drivers/STM32F4xx_HAL_Driver/Src/stm32f4xx_hal_dma_ex.c ****   /* Configure DMA Stream data length */
 279:Drivers/STM32F4xx_HAL_Driver/Src/stm32f4xx_hal_dma_ex.c ****   hdma->Instance->NDTR = DataLength;
  39              		.loc 1 279 3 is_stmt 1 view .LVU2
  40              		.loc 1 279 24 is_stmt 0 view .LVU3
  41 0002 0468     		ldr	r4, [r0]
  42 0004 6360     		str	r3, [r4, #4]
 280:Drivers/STM32F4xx_HAL_Driver/Src/stm32f4xx_hal_dma_ex.c ****   
 281:Drivers/STM32F4xx_HAL_Driver/Src/stm32f4xx_hal_dma_ex.c ****   /* Peripheral to Memory */
 282:Drivers/STM32F4xx_HAL_Driver/Src/stm32f4xx_hal_dma_ex.c ****   if((hdma->Init.Direction) == DMA_MEMORY_TO_PERIPH)
  43              		.loc 1 282 3 is_stmt 1 view .LVU4
  44              		.loc 1 282 17 is_stmt 0 view .LVU5
  45 0006 8368     		ldr	r3, [r0, #8]
  46              	.LVL1:
  47              		.loc 1 282 5 view .LVU6
  48 0008 402B     		cmp	r3, #64
  49 000a 06D0     		beq	.L5
 283:Drivers/STM32F4xx_HAL_Driver/Src/stm32f4xx_hal_dma_ex.c ****   {   
 284:Drivers/STM32F4xx_HAL_Driver/Src/stm32f4xx_hal_dma_ex.c ****     /* Configure DMA Stream destination address */
 285:Drivers/STM32F4xx_HAL_Driver/Src/stm32f4xx_hal_dma_ex.c ****     hdma->Instance->PAR = DstAddress;
 286:Drivers/STM32F4xx_HAL_Driver/Src/stm32f4xx_hal_dma_ex.c ****     
 287:Drivers/STM32F4xx_HAL_Driver/Src/stm32f4xx_hal_dma_ex.c ****     /* Configure DMA Stream source address */
 288:Drivers/STM32F4xx_HAL_Driver/Src/stm32f4xx_hal_dma_ex.c ****     hdma->Instance->M0AR = SrcAddress;
 289:Drivers/STM32F4xx_HAL_Driver/Src/stm32f4xx_hal_dma_ex.c ****   }
 290:Drivers/STM32F4xx_HAL_Driver/Src/stm32f4xx_hal_dma_ex.c ****   /* Memory to Peripheral */
 291:Drivers/STM32F4xx_HAL_Driver/Src/stm32f4xx_hal_dma_ex.c ****   else
 292:Drivers/STM32F4xx_HAL_Driver/Src/stm32f4xx_hal_dma_ex.c ****   {
 293:Drivers/STM32F4xx_HAL_Driver/Src/stm32f4xx_hal_dma_ex.c ****     /* Configure DMA Stream source address */
 294:Drivers/STM32F4xx_HAL_Driver/Src/stm32f4xx_hal_dma_ex.c ****     hdma->Instance->PAR = SrcAddress;
ARM GAS  C:\Users\12990\AppData\Local\Temp\cc1clWBF.s 			page 7


  50              		.loc 1 294 5 is_stmt 1 view .LVU7
  51              		.loc 1 294 9 is_stmt 0 view .LVU8
  52 000c 0368     		ldr	r3, [r0]
  53              		.loc 1 294 25 view .LVU9
  54 000e 9960     		str	r1, [r3, #8]
  55              	.LVL2:
 295:Drivers/STM32F4xx_HAL_Driver/Src/stm32f4xx_hal_dma_ex.c ****     
 296:Drivers/STM32F4xx_HAL_Driver/Src/stm32f4xx_hal_dma_ex.c ****     /* Configure DMA Stream destination address */
 297:Drivers/STM32F4xx_HAL_Driver/Src/stm32f4xx_hal_dma_ex.c ****     hdma->Instance->M0AR = DstAddress;
  56              		.loc 1 297 5 is_stmt 1 view .LVU10
  57              		.loc 1 297 9 is_stmt 0 view .LVU11
  58 0010 0368     		ldr	r3, [r0]
  59              		.loc 1 297 26 view .LVU12
  60 0012 DA60     		str	r2, [r3, #12]
  61              	.L1:
 298:Drivers/STM32F4xx_HAL_Driver/Src/stm32f4xx_hal_dma_ex.c ****   }
 299:Drivers/STM32F4xx_HAL_Driver/Src/stm32f4xx_hal_dma_ex.c **** }
  62              		.loc 1 299 1 view .LVU13
  63 0014 5DF8044B 		ldr	r4, [sp], #4
  64              	.LCFI1:
  65              		.cfi_remember_state
  66              		.cfi_restore 4
  67              		.cfi_def_cfa_offset 0
  68 0018 7047     		bx	lr
  69              	.LVL3:
  70              	.L5:
  71              	.LCFI2:
  72              		.cfi_restore_state
 285:Drivers/STM32F4xx_HAL_Driver/Src/stm32f4xx_hal_dma_ex.c ****     
  73              		.loc 1 285 5 is_stmt 1 view .LVU14
 285:Drivers/STM32F4xx_HAL_Driver/Src/stm32f4xx_hal_dma_ex.c ****     
  74              		.loc 1 285 9 is_stmt 0 view .LVU15
  75 001a 0368     		ldr	r3, [r0]
 285:Drivers/STM32F4xx_HAL_Driver/Src/stm32f4xx_hal_dma_ex.c ****     
  76              		.loc 1 285 25 view .LVU16
  77 001c 9A60     		str	r2, [r3, #8]
  78              	.LVL4:
 288:Drivers/STM32F4xx_HAL_Driver/Src/stm32f4xx_hal_dma_ex.c ****   }
  79              		.loc 1 288 5 is_stmt 1 view .LVU17
 288:Drivers/STM32F4xx_HAL_Driver/Src/stm32f4xx_hal_dma_ex.c ****   }
  80              		.loc 1 288 9 is_stmt 0 view .LVU18
  81 001e 0368     		ldr	r3, [r0]
 288:Drivers/STM32F4xx_HAL_Driver/Src/stm32f4xx_hal_dma_ex.c ****   }
  82              		.loc 1 288 26 view .LVU19
  83 0020 D960     		str	r1, [r3, #12]
  84 0022 F7E7     		b	.L1
  85              		.cfi_endproc
  86              	.LFE133:
  88              		.section	.text.HAL_DMAEx_MultiBufferStart,"ax",%progbits
  89              		.align	1
  90              		.global	HAL_DMAEx_MultiBufferStart
  91              		.syntax unified
  92              		.thumb
  93              		.thumb_func
  95              	HAL_DMAEx_MultiBufferStart:
  96              	.LVL5:
  97              	.LFB130:
ARM GAS  C:\Users\12990\AppData\Local\Temp\cc1clWBF.s 			page 8


 101:Drivers/STM32F4xx_HAL_Driver/Src/stm32f4xx_hal_dma_ex.c ****   HAL_StatusTypeDef status = HAL_OK;
  98              		.loc 1 101 1 is_stmt 1 view -0
  99              		.cfi_startproc
 100              		@ args = 4, pretend = 0, frame = 0
 101              		@ frame_needed = 0, uses_anonymous_args = 0
 101:Drivers/STM32F4xx_HAL_Driver/Src/stm32f4xx_hal_dma_ex.c ****   HAL_StatusTypeDef status = HAL_OK;
 102              		.loc 1 101 1 is_stmt 0 view .LVU21
 103 0000 38B5     		push	{r3, r4, r5, lr}
 104              	.LCFI3:
 105              		.cfi_def_cfa_offset 16
 106              		.cfi_offset 3, -16
 107              		.cfi_offset 4, -12
 108              		.cfi_offset 5, -8
 109              		.cfi_offset 14, -4
 110 0002 0446     		mov	r4, r0
 102:Drivers/STM32F4xx_HAL_Driver/Src/stm32f4xx_hal_dma_ex.c ****   
 111              		.loc 1 102 3 is_stmt 1 view .LVU22
 112              	.LVL6:
 105:Drivers/STM32F4xx_HAL_Driver/Src/stm32f4xx_hal_dma_ex.c ****   
 113              		.loc 1 105 3 view .LVU23
 108:Drivers/STM32F4xx_HAL_Driver/Src/stm32f4xx_hal_dma_ex.c ****   {
 114              		.loc 1 108 3 view .LVU24
 108:Drivers/STM32F4xx_HAL_Driver/Src/stm32f4xx_hal_dma_ex.c ****   {
 115              		.loc 1 108 17 is_stmt 0 view .LVU25
 116 0004 8068     		ldr	r0, [r0, #8]
 117              	.LVL7:
 108:Drivers/STM32F4xx_HAL_Driver/Src/stm32f4xx_hal_dma_ex.c ****   {
 118              		.loc 1 108 6 view .LVU26
 119 0006 8028     		cmp	r0, #128
 120 0008 0DD0     		beq	.L12
 116:Drivers/STM32F4xx_HAL_Driver/Src/stm32f4xx_hal_dma_ex.c ****     
 121              		.loc 1 116 5 is_stmt 1 view .LVU27
 116:Drivers/STM32F4xx_HAL_Driver/Src/stm32f4xx_hal_dma_ex.c ****     
 122              		.loc 1 116 5 view .LVU28
 123 000a 94F83400 		ldrb	r0, [r4, #52]	@ zero_extendqisi2
 124 000e 0128     		cmp	r0, #1
 125 0010 23D0     		beq	.L9
 116:Drivers/STM32F4xx_HAL_Driver/Src/stm32f4xx_hal_dma_ex.c ****     
 126              		.loc 1 116 5 discriminator 2 view .LVU29
 127 0012 0120     		movs	r0, #1
 128 0014 84F83400 		strb	r0, [r4, #52]
 116:Drivers/STM32F4xx_HAL_Driver/Src/stm32f4xx_hal_dma_ex.c ****     
 129              		.loc 1 116 5 discriminator 2 view .LVU30
 118:Drivers/STM32F4xx_HAL_Driver/Src/stm32f4xx_hal_dma_ex.c ****     {
 130              		.loc 1 118 5 discriminator 2 view .LVU31
 118:Drivers/STM32F4xx_HAL_Driver/Src/stm32f4xx_hal_dma_ex.c ****     {
 131              		.loc 1 118 35 is_stmt 0 discriminator 2 view .LVU32
 132 0018 94F83500 		ldrb	r0, [r4, #53]	@ zero_extendqisi2
 133 001c C0B2     		uxtb	r0, r0
 118:Drivers/STM32F4xx_HAL_Driver/Src/stm32f4xx_hal_dma_ex.c ****     {
 134              		.loc 1 118 7 discriminator 2 view .LVU33
 135 001e 0128     		cmp	r0, #1
 136 0020 06D0     		beq	.L13
 138:Drivers/STM32F4xx_HAL_Driver/Src/stm32f4xx_hal_dma_ex.c ****     }
 137              		.loc 1 138 14 view .LVU34
 138 0022 0220     		movs	r0, #2
 139              	.LVL8:
ARM GAS  C:\Users\12990\AppData\Local\Temp\cc1clWBF.s 			page 9


 140              	.L8:
 142:Drivers/STM32F4xx_HAL_Driver/Src/stm32f4xx_hal_dma_ex.c **** 
 141              		.loc 1 142 1 view .LVU35
 142 0024 38BD     		pop	{r3, r4, r5, pc}
 143              	.LVL9:
 144              	.L12:
 110:Drivers/STM32F4xx_HAL_Driver/Src/stm32f4xx_hal_dma_ex.c ****     status = HAL_ERROR;
 145              		.loc 1 110 5 is_stmt 1 view .LVU36
 110:Drivers/STM32F4xx_HAL_Driver/Src/stm32f4xx_hal_dma_ex.c ****     status = HAL_ERROR;
 146              		.loc 1 110 21 is_stmt 0 view .LVU37
 147 0026 4FF48073 		mov	r3, #256
 148              	.LVL10:
 110:Drivers/STM32F4xx_HAL_Driver/Src/stm32f4xx_hal_dma_ex.c ****     status = HAL_ERROR;
 149              		.loc 1 110 21 view .LVU38
 150 002a 6365     		str	r3, [r4, #84]
 111:Drivers/STM32F4xx_HAL_Driver/Src/stm32f4xx_hal_dma_ex.c ****   }
 151              		.loc 1 111 5 is_stmt 1 view .LVU39
 152              	.LVL11:
 111:Drivers/STM32F4xx_HAL_Driver/Src/stm32f4xx_hal_dma_ex.c ****   }
 153              		.loc 1 111 12 is_stmt 0 view .LVU40
 154 002c 0120     		movs	r0, #1
 155 002e F9E7     		b	.L8
 156              	.LVL12:
 157              	.L13:
 121:Drivers/STM32F4xx_HAL_Driver/Src/stm32f4xx_hal_dma_ex.c ****       
 158              		.loc 1 121 7 is_stmt 1 view .LVU41
 121:Drivers/STM32F4xx_HAL_Driver/Src/stm32f4xx_hal_dma_ex.c ****       
 159              		.loc 1 121 19 is_stmt 0 view .LVU42
 160 0030 0220     		movs	r0, #2
 161 0032 84F83500 		strb	r0, [r4, #53]
 124:Drivers/STM32F4xx_HAL_Driver/Src/stm32f4xx_hal_dma_ex.c ****       
 162              		.loc 1 124 7 is_stmt 1 view .LVU43
 124:Drivers/STM32F4xx_HAL_Driver/Src/stm32f4xx_hal_dma_ex.c ****       
 163              		.loc 1 124 11 is_stmt 0 view .LVU44
 164 0036 2568     		ldr	r5, [r4]
 124:Drivers/STM32F4xx_HAL_Driver/Src/stm32f4xx_hal_dma_ex.c ****       
 165              		.loc 1 124 26 view .LVU45
 166 0038 2868     		ldr	r0, [r5]
 167 003a 40F48020 		orr	r0, r0, #262144
 168 003e 2860     		str	r0, [r5]
 127:Drivers/STM32F4xx_HAL_Driver/Src/stm32f4xx_hal_dma_ex.c ****       
 169              		.loc 1 127 7 is_stmt 1 view .LVU46
 127:Drivers/STM32F4xx_HAL_Driver/Src/stm32f4xx_hal_dma_ex.c ****       
 170              		.loc 1 127 11 is_stmt 0 view .LVU47
 171 0040 2068     		ldr	r0, [r4]
 127:Drivers/STM32F4xx_HAL_Driver/Src/stm32f4xx_hal_dma_ex.c ****       
 172              		.loc 1 127 28 view .LVU48
 173 0042 0361     		str	r3, [r0, #16]
 130:Drivers/STM32F4xx_HAL_Driver/Src/stm32f4xx_hal_dma_ex.c ****       
 174              		.loc 1 130 7 is_stmt 1 view .LVU49
 175 0044 049B     		ldr	r3, [sp, #16]
 176              	.LVL13:
 130:Drivers/STM32F4xx_HAL_Driver/Src/stm32f4xx_hal_dma_ex.c ****       
 177              		.loc 1 130 7 is_stmt 0 view .LVU50
 178 0046 2046     		mov	r0, r4
 179              	.LVL14:
 130:Drivers/STM32F4xx_HAL_Driver/Src/stm32f4xx_hal_dma_ex.c ****       
ARM GAS  C:\Users\12990\AppData\Local\Temp\cc1clWBF.s 			page 10


 180              		.loc 1 130 7 view .LVU51
 181 0048 FFF7FEFF 		bl	DMA_MultiBufferSetConfig
 182              	.LVL15:
 133:Drivers/STM32F4xx_HAL_Driver/Src/stm32f4xx_hal_dma_ex.c ****     }
 183              		.loc 1 133 7 is_stmt 1 view .LVU52
 184 004c 2268     		ldr	r2, [r4]
 185 004e 1368     		ldr	r3, [r2]
 186 0050 43F00103 		orr	r3, r3, #1
 187 0054 1360     		str	r3, [r2]
 102:Drivers/STM32F4xx_HAL_Driver/Src/stm32f4xx_hal_dma_ex.c ****   
 188              		.loc 1 102 21 is_stmt 0 view .LVU53
 189 0056 0020     		movs	r0, #0
 190 0058 E4E7     		b	.L8
 191              	.LVL16:
 192              	.L9:
 116:Drivers/STM32F4xx_HAL_Driver/Src/stm32f4xx_hal_dma_ex.c ****     
 193              		.loc 1 116 5 view .LVU54
 194 005a 0220     		movs	r0, #2
 195 005c E2E7     		b	.L8
 196              		.cfi_endproc
 197              	.LFE130:
 199              		.section	.text.HAL_DMAEx_MultiBufferStart_IT,"ax",%progbits
 200              		.align	1
 201              		.global	HAL_DMAEx_MultiBufferStart_IT
 202              		.syntax unified
 203              		.thumb
 204              		.thumb_func
 206              	HAL_DMAEx_MultiBufferStart_IT:
 207              	.LVL17:
 208              	.LFB131:
 155:Drivers/STM32F4xx_HAL_Driver/Src/stm32f4xx_hal_dma_ex.c ****   HAL_StatusTypeDef status = HAL_OK;
 209              		.loc 1 155 1 is_stmt 1 view -0
 210              		.cfi_startproc
 211              		@ args = 4, pretend = 0, frame = 0
 212              		@ frame_needed = 0, uses_anonymous_args = 0
 155:Drivers/STM32F4xx_HAL_Driver/Src/stm32f4xx_hal_dma_ex.c ****   HAL_StatusTypeDef status = HAL_OK;
 213              		.loc 1 155 1 is_stmt 0 view .LVU56
 214 0000 38B5     		push	{r3, r4, r5, lr}
 215              	.LCFI4:
 216              		.cfi_def_cfa_offset 16
 217              		.cfi_offset 3, -16
 218              		.cfi_offset 4, -12
 219              		.cfi_offset 5, -8
 220              		.cfi_offset 14, -4
 221 0002 0446     		mov	r4, r0
 156:Drivers/STM32F4xx_HAL_Driver/Src/stm32f4xx_hal_dma_ex.c ****   
 222              		.loc 1 156 3 is_stmt 1 view .LVU57
 223              	.LVL18:
 159:Drivers/STM32F4xx_HAL_Driver/Src/stm32f4xx_hal_dma_ex.c ****   
 224              		.loc 1 159 3 view .LVU58
 162:Drivers/STM32F4xx_HAL_Driver/Src/stm32f4xx_hal_dma_ex.c ****   {
 225              		.loc 1 162 3 view .LVU59
 162:Drivers/STM32F4xx_HAL_Driver/Src/stm32f4xx_hal_dma_ex.c ****   {
 226              		.loc 1 162 17 is_stmt 0 view .LVU60
 227 0004 8068     		ldr	r0, [r0, #8]
 228              	.LVL19:
 162:Drivers/STM32F4xx_HAL_Driver/Src/stm32f4xx_hal_dma_ex.c ****   {
ARM GAS  C:\Users\12990\AppData\Local\Temp\cc1clWBF.s 			page 11


 229              		.loc 1 162 6 view .LVU61
 230 0006 8028     		cmp	r0, #128
 231 0008 17D0     		beq	.L304
 169:Drivers/STM32F4xx_HAL_Driver/Src/stm32f4xx_hal_dma_ex.c ****   {
 232              		.loc 1 169 3 is_stmt 1 view .LVU62
 169:Drivers/STM32F4xx_HAL_Driver/Src/stm32f4xx_hal_dma_ex.c ****   {
 233              		.loc 1 169 20 is_stmt 0 view .LVU63
 234 000a E06B     		ldr	r0, [r4, #60]
 169:Drivers/STM32F4xx_HAL_Driver/Src/stm32f4xx_hal_dma_ex.c ****   {
 235              		.loc 1 169 6 view .LVU64
 236 000c D0B1     		cbz	r0, .L17
 169:Drivers/STM32F4xx_HAL_Driver/Src/stm32f4xx_hal_dma_ex.c ****   {
 237              		.loc 1 169 56 discriminator 1 view .LVU65
 238 000e 606C     		ldr	r0, [r4, #68]
 169:Drivers/STM32F4xx_HAL_Driver/Src/stm32f4xx_hal_dma_ex.c ****   {
 239              		.loc 1 169 40 discriminator 1 view .LVU66
 240 0010 C0B1     		cbz	r0, .L17
 169:Drivers/STM32F4xx_HAL_Driver/Src/stm32f4xx_hal_dma_ex.c ****   {
 241              		.loc 1 169 94 discriminator 2 view .LVU67
 242 0012 E06C     		ldr	r0, [r4, #76]
 169:Drivers/STM32F4xx_HAL_Driver/Src/stm32f4xx_hal_dma_ex.c ****   {
 243              		.loc 1 169 78 discriminator 2 view .LVU68
 244 0014 B0B1     		cbz	r0, .L17
 176:Drivers/STM32F4xx_HAL_Driver/Src/stm32f4xx_hal_dma_ex.c ****   
 245              		.loc 1 176 3 is_stmt 1 view .LVU69
 176:Drivers/STM32F4xx_HAL_Driver/Src/stm32f4xx_hal_dma_ex.c ****   
 246              		.loc 1 176 3 view .LVU70
 247 0016 94F83400 		ldrb	r0, [r4, #52]	@ zero_extendqisi2
 248 001a 0128     		cmp	r0, #1
 249 001c 00F06987 		beq	.L62
 176:Drivers/STM32F4xx_HAL_Driver/Src/stm32f4xx_hal_dma_ex.c ****   
 250              		.loc 1 176 3 discriminator 2 view .LVU71
 251 0020 0120     		movs	r0, #1
 252 0022 84F83400 		strb	r0, [r4, #52]
 176:Drivers/STM32F4xx_HAL_Driver/Src/stm32f4xx_hal_dma_ex.c ****   
 253              		.loc 1 176 3 discriminator 2 view .LVU72
 178:Drivers/STM32F4xx_HAL_Driver/Src/stm32f4xx_hal_dma_ex.c ****   {
 254              		.loc 1 178 3 discriminator 2 view .LVU73
 178:Drivers/STM32F4xx_HAL_Driver/Src/stm32f4xx_hal_dma_ex.c ****   {
 255              		.loc 1 178 33 is_stmt 0 discriminator 2 view .LVU74
 256 0026 94F83500 		ldrb	r0, [r4, #53]	@ zero_extendqisi2
 257 002a C0B2     		uxtb	r0, r0
 178:Drivers/STM32F4xx_HAL_Driver/Src/stm32f4xx_hal_dma_ex.c ****   {
 258              		.loc 1 178 5 discriminator 2 view .LVU75
 259 002c 0128     		cmp	r0, #1
 260 002e 0DD0     		beq	.L305
 217:Drivers/STM32F4xx_HAL_Driver/Src/stm32f4xx_hal_dma_ex.c ****     
 261              		.loc 1 217 5 is_stmt 1 view .LVU76
 217:Drivers/STM32F4xx_HAL_Driver/Src/stm32f4xx_hal_dma_ex.c ****     
 262              		.loc 1 217 5 view .LVU77
 263 0030 0023     		movs	r3, #0
 264              	.LVL20:
 217:Drivers/STM32F4xx_HAL_Driver/Src/stm32f4xx_hal_dma_ex.c ****     
 265              		.loc 1 217 5 is_stmt 0 view .LVU78
 266 0032 84F83430 		strb	r3, [r4, #52]
 217:Drivers/STM32F4xx_HAL_Driver/Src/stm32f4xx_hal_dma_ex.c ****     
 267              		.loc 1 217 5 is_stmt 1 view .LVU79
ARM GAS  C:\Users\12990\AppData\Local\Temp\cc1clWBF.s 			page 12


 220:Drivers/STM32F4xx_HAL_Driver/Src/stm32f4xx_hal_dma_ex.c ****   }  
 268              		.loc 1 220 5 view .LVU80
 269              	.LVL21:
 220:Drivers/STM32F4xx_HAL_Driver/Src/stm32f4xx_hal_dma_ex.c ****   }  
 270              		.loc 1 220 12 is_stmt 0 view .LVU81
 271 0036 0220     		movs	r0, #2
 272 0038 07E0     		b	.L16
 273              	.LVL22:
 274              	.L304:
 164:Drivers/STM32F4xx_HAL_Driver/Src/stm32f4xx_hal_dma_ex.c ****     return HAL_ERROR;
 275              		.loc 1 164 5 is_stmt 1 view .LVU82
 164:Drivers/STM32F4xx_HAL_Driver/Src/stm32f4xx_hal_dma_ex.c ****     return HAL_ERROR;
 276              		.loc 1 164 21 is_stmt 0 view .LVU83
 277 003a 4FF48073 		mov	r3, #256
 278              	.LVL23:
 164:Drivers/STM32F4xx_HAL_Driver/Src/stm32f4xx_hal_dma_ex.c ****     return HAL_ERROR;
 279              		.loc 1 164 21 view .LVU84
 280 003e 6365     		str	r3, [r4, #84]
 165:Drivers/STM32F4xx_HAL_Driver/Src/stm32f4xx_hal_dma_ex.c ****   }
 281              		.loc 1 165 5 is_stmt 1 view .LVU85
 165:Drivers/STM32F4xx_HAL_Driver/Src/stm32f4xx_hal_dma_ex.c ****   }
 282              		.loc 1 165 12 is_stmt 0 view .LVU86
 283 0040 0120     		movs	r0, #1
 284 0042 02E0     		b	.L16
 285              	.LVL24:
 286              	.L17:
 171:Drivers/STM32F4xx_HAL_Driver/Src/stm32f4xx_hal_dma_ex.c ****     return HAL_ERROR;
 287              		.loc 1 171 5 is_stmt 1 view .LVU87
 171:Drivers/STM32F4xx_HAL_Driver/Src/stm32f4xx_hal_dma_ex.c ****     return HAL_ERROR;
 288              		.loc 1 171 21 is_stmt 0 view .LVU88
 289 0044 4023     		movs	r3, #64
 290              	.LVL25:
 171:Drivers/STM32F4xx_HAL_Driver/Src/stm32f4xx_hal_dma_ex.c ****     return HAL_ERROR;
 291              		.loc 1 171 21 view .LVU89
 292 0046 6365     		str	r3, [r4, #84]
 172:Drivers/STM32F4xx_HAL_Driver/Src/stm32f4xx_hal_dma_ex.c ****   }
 293              		.loc 1 172 5 is_stmt 1 view .LVU90
 172:Drivers/STM32F4xx_HAL_Driver/Src/stm32f4xx_hal_dma_ex.c ****   }
 294              		.loc 1 172 12 is_stmt 0 view .LVU91
 295 0048 0120     		movs	r0, #1
 296              	.LVL26:
 297              	.L16:
 223:Drivers/STM32F4xx_HAL_Driver/Src/stm32f4xx_hal_dma_ex.c **** 
 298              		.loc 1 223 1 view .LVU92
 299 004a 38BD     		pop	{r3, r4, r5, pc}
 300              	.LVL27:
 301              	.L305:
 181:Drivers/STM32F4xx_HAL_Driver/Src/stm32f4xx_hal_dma_ex.c ****     
 302              		.loc 1 181 5 is_stmt 1 view .LVU93
 181:Drivers/STM32F4xx_HAL_Driver/Src/stm32f4xx_hal_dma_ex.c ****     
 303              		.loc 1 181 17 is_stmt 0 view .LVU94
 304 004c 0220     		movs	r0, #2
 305 004e 84F83500 		strb	r0, [r4, #53]
 184:Drivers/STM32F4xx_HAL_Driver/Src/stm32f4xx_hal_dma_ex.c ****     
 306              		.loc 1 184 5 is_stmt 1 view .LVU95
 184:Drivers/STM32F4xx_HAL_Driver/Src/stm32f4xx_hal_dma_ex.c ****     
 307              		.loc 1 184 21 is_stmt 0 view .LVU96
ARM GAS  C:\Users\12990\AppData\Local\Temp\cc1clWBF.s 			page 13


 308 0052 0020     		movs	r0, #0
 309 0054 6065     		str	r0, [r4, #84]
 187:Drivers/STM32F4xx_HAL_Driver/Src/stm32f4xx_hal_dma_ex.c ****     
 310              		.loc 1 187 5 is_stmt 1 view .LVU97
 187:Drivers/STM32F4xx_HAL_Driver/Src/stm32f4xx_hal_dma_ex.c ****     
 311              		.loc 1 187 9 is_stmt 0 view .LVU98
 312 0056 2568     		ldr	r5, [r4]
 187:Drivers/STM32F4xx_HAL_Driver/Src/stm32f4xx_hal_dma_ex.c ****     
 313              		.loc 1 187 24 view .LVU99
 314 0058 2868     		ldr	r0, [r5]
 315 005a 40F48020 		orr	r0, r0, #262144
 316 005e 2860     		str	r0, [r5]
 190:Drivers/STM32F4xx_HAL_Driver/Src/stm32f4xx_hal_dma_ex.c ****     
 317              		.loc 1 190 5 is_stmt 1 view .LVU100
 190:Drivers/STM32F4xx_HAL_Driver/Src/stm32f4xx_hal_dma_ex.c ****     
 318              		.loc 1 190 9 is_stmt 0 view .LVU101
 319 0060 2068     		ldr	r0, [r4]
 190:Drivers/STM32F4xx_HAL_Driver/Src/stm32f4xx_hal_dma_ex.c ****     
 320              		.loc 1 190 26 view .LVU102
 321 0062 0361     		str	r3, [r0, #16]
 193:Drivers/STM32F4xx_HAL_Driver/Src/stm32f4xx_hal_dma_ex.c ****     
 322              		.loc 1 193 5 is_stmt 1 view .LVU103
 323 0064 049B     		ldr	r3, [sp, #16]
 324              	.LVL28:
 193:Drivers/STM32F4xx_HAL_Driver/Src/stm32f4xx_hal_dma_ex.c ****     
 325              		.loc 1 193 5 is_stmt 0 view .LVU104
 326 0066 2046     		mov	r0, r4
 327              	.LVL29:
 193:Drivers/STM32F4xx_HAL_Driver/Src/stm32f4xx_hal_dma_ex.c ****     
 328              		.loc 1 193 5 view .LVU105
 329 0068 FFF7FEFF 		bl	DMA_MultiBufferSetConfig
 330              	.LVL30:
 196:Drivers/STM32F4xx_HAL_Driver/Src/stm32f4xx_hal_dma_ex.c ****     __HAL_DMA_CLEAR_FLAG (hdma, __HAL_DMA_GET_HT_FLAG_INDEX(hdma));
 331              		.loc 1 196 5 is_stmt 1 view .LVU106
 332 006c 2368     		ldr	r3, [r4]
 333 006e A54A     		ldr	r2, .L327
 334 0070 9342     		cmp	r3, r2
 335 0072 40F29880 		bls	.L20
 196:Drivers/STM32F4xx_HAL_Driver/Src/stm32f4xx_hal_dma_ex.c ****     __HAL_DMA_CLEAR_FLAG (hdma, __HAL_DMA_GET_HT_FLAG_INDEX(hdma));
 336              		.loc 1 196 5 is_stmt 0 discriminator 1 view .LVU107
 337 0076 A2F58962 		sub	r2, r2, #1096
 338 007a 9342     		cmp	r3, r2
 339 007c 31D0     		beq	.L63
 196:Drivers/STM32F4xx_HAL_Driver/Src/stm32f4xx_hal_dma_ex.c ****     __HAL_DMA_CLEAR_FLAG (hdma, __HAL_DMA_GET_HT_FLAG_INDEX(hdma));
 340              		.loc 1 196 5 discriminator 3 view .LVU108
 341 007e 02F58062 		add	r2, r2, #1024
 342 0082 9342     		cmp	r3, r2
 343 0084 74D0     		beq	.L64
 196:Drivers/STM32F4xx_HAL_Driver/Src/stm32f4xx_hal_dma_ex.c ****     __HAL_DMA_CLEAR_FLAG (hdma, __HAL_DMA_GET_HT_FLAG_INDEX(hdma));
 344              		.loc 1 196 5 discriminator 5 view .LVU109
 345 0086 A2F56872 		sub	r2, r2, #928
 346 008a 9342     		cmp	r3, r2
 347 008c 72D0     		beq	.L65
 196:Drivers/STM32F4xx_HAL_Driver/Src/stm32f4xx_hal_dma_ex.c ****     __HAL_DMA_CLEAR_FLAG (hdma, __HAL_DMA_GET_HT_FLAG_INDEX(hdma));
 348              		.loc 1 196 5 discriminator 7 view .LVU110
 349 008e 02F58062 		add	r2, r2, #1024
 350 0092 9342     		cmp	r3, r2
ARM GAS  C:\Users\12990\AppData\Local\Temp\cc1clWBF.s 			page 14


 351 0094 70D0     		beq	.L66
 196:Drivers/STM32F4xx_HAL_Driver/Src/stm32f4xx_hal_dma_ex.c ****     __HAL_DMA_CLEAR_FLAG (hdma, __HAL_DMA_GET_HT_FLAG_INDEX(hdma));
 352              		.loc 1 196 5 discriminator 9 view .LVU111
 353 0096 A2F58962 		sub	r2, r2, #1096
 354 009a 9342     		cmp	r3, r2
 355 009c 6ED0     		beq	.L67
 196:Drivers/STM32F4xx_HAL_Driver/Src/stm32f4xx_hal_dma_ex.c ****     __HAL_DMA_CLEAR_FLAG (hdma, __HAL_DMA_GET_HT_FLAG_INDEX(hdma));
 356              		.loc 1 196 5 discriminator 11 view .LVU112
 357 009e 02F58062 		add	r2, r2, #1024
 358 00a2 9342     		cmp	r3, r2
 359 00a4 6DD0     		beq	.L68
 196:Drivers/STM32F4xx_HAL_Driver/Src/stm32f4xx_hal_dma_ex.c ****     __HAL_DMA_CLEAR_FLAG (hdma, __HAL_DMA_GET_HT_FLAG_INDEX(hdma));
 360              		.loc 1 196 5 discriminator 13 view .LVU113
 361 00a6 A2F56872 		sub	r2, r2, #928
 362 00aa 9342     		cmp	r3, r2
 363 00ac 6CD0     		beq	.L69
 196:Drivers/STM32F4xx_HAL_Driver/Src/stm32f4xx_hal_dma_ex.c ****     __HAL_DMA_CLEAR_FLAG (hdma, __HAL_DMA_GET_HT_FLAG_INDEX(hdma));
 364              		.loc 1 196 5 discriminator 15 view .LVU114
 365 00ae 02F58062 		add	r2, r2, #1024
 366 00b2 9342     		cmp	r3, r2
 367 00b4 6BD0     		beq	.L70
 196:Drivers/STM32F4xx_HAL_Driver/Src/stm32f4xx_hal_dma_ex.c ****     __HAL_DMA_CLEAR_FLAG (hdma, __HAL_DMA_GET_HT_FLAG_INDEX(hdma));
 368              		.loc 1 196 5 discriminator 17 view .LVU115
 369 00b6 A2F58962 		sub	r2, r2, #1096
 370 00ba 9342     		cmp	r3, r2
 371 00bc 6AD0     		beq	.L71
 196:Drivers/STM32F4xx_HAL_Driver/Src/stm32f4xx_hal_dma_ex.c ****     __HAL_DMA_CLEAR_FLAG (hdma, __HAL_DMA_GET_HT_FLAG_INDEX(hdma));
 372              		.loc 1 196 5 discriminator 19 view .LVU116
 373 00be 02F58062 		add	r2, r2, #1024
 374 00c2 9342     		cmp	r3, r2
 375 00c4 69D0     		beq	.L72
 196:Drivers/STM32F4xx_HAL_Driver/Src/stm32f4xx_hal_dma_ex.c ****     __HAL_DMA_CLEAR_FLAG (hdma, __HAL_DMA_GET_HT_FLAG_INDEX(hdma));
 376              		.loc 1 196 5 discriminator 21 view .LVU117
 377 00c6 A2F56872 		sub	r2, r2, #928
 378 00ca 9342     		cmp	r3, r2
 379 00cc 68D0     		beq	.L73
 196:Drivers/STM32F4xx_HAL_Driver/Src/stm32f4xx_hal_dma_ex.c ****     __HAL_DMA_CLEAR_FLAG (hdma, __HAL_DMA_GET_HT_FLAG_INDEX(hdma));
 380              		.loc 1 196 5 discriminator 23 view .LVU118
 381 00ce 02F58062 		add	r2, r2, #1024
 382 00d2 9342     		cmp	r3, r2
 383 00d4 02D0     		beq	.L306
 196:Drivers/STM32F4xx_HAL_Driver/Src/stm32f4xx_hal_dma_ex.c ****     __HAL_DMA_CLEAR_FLAG (hdma, __HAL_DMA_GET_HT_FLAG_INDEX(hdma));
 384              		.loc 1 196 5 view .LVU119
 385 00d6 4FF00062 		mov	r2, #134217728
 386 00da 03E0     		b	.L21
 387              	.L306:
 388 00dc 4FF40012 		mov	r2, #2097152
 389 00e0 00E0     		b	.L21
 390              	.L63:
 391 00e2 2022     		movs	r2, #32
 392              	.L21:
 196:Drivers/STM32F4xx_HAL_Driver/Src/stm32f4xx_hal_dma_ex.c ****     __HAL_DMA_CLEAR_FLAG (hdma, __HAL_DMA_GET_HT_FLAG_INDEX(hdma));
 393              		.loc 1 196 5 discriminator 50 view .LVU120
 394 00e4 884B     		ldr	r3, .L327+4
 395 00e6 DA60     		str	r2, [r3, #12]
 396              	.LVL31:
 397              	.L22:
ARM GAS  C:\Users\12990\AppData\Local\Temp\cc1clWBF.s 			page 15


 197:Drivers/STM32F4xx_HAL_Driver/Src/stm32f4xx_hal_dma_ex.c ****     __HAL_DMA_CLEAR_FLAG (hdma, __HAL_DMA_GET_TE_FLAG_INDEX(hdma));
 398              		.loc 1 197 5 is_stmt 1 view .LVU121
 399 00e8 2368     		ldr	r3, [r4]
 400 00ea 864A     		ldr	r2, .L327
 401 00ec 9342     		cmp	r3, r2
 402 00ee 40F2CC81 		bls	.L28
 197:Drivers/STM32F4xx_HAL_Driver/Src/stm32f4xx_hal_dma_ex.c ****     __HAL_DMA_CLEAR_FLAG (hdma, __HAL_DMA_GET_TE_FLAG_INDEX(hdma));
 403              		.loc 1 197 5 is_stmt 0 discriminator 1 view .LVU122
 404 00f2 A2F58962 		sub	r2, r2, #1096
 405 00f6 9342     		cmp	r3, r2
 406 00f8 00F06581 		beq	.L111
 197:Drivers/STM32F4xx_HAL_Driver/Src/stm32f4xx_hal_dma_ex.c ****     __HAL_DMA_CLEAR_FLAG (hdma, __HAL_DMA_GET_TE_FLAG_INDEX(hdma));
 407              		.loc 1 197 5 discriminator 3 view .LVU123
 408 00fc 02F58062 		add	r2, r2, #1024
 409 0100 9342     		cmp	r3, r2
 410 0102 00F0A781 		beq	.L112
 197:Drivers/STM32F4xx_HAL_Driver/Src/stm32f4xx_hal_dma_ex.c ****     __HAL_DMA_CLEAR_FLAG (hdma, __HAL_DMA_GET_TE_FLAG_INDEX(hdma));
 411              		.loc 1 197 5 discriminator 5 view .LVU124
 412 0106 A2F56872 		sub	r2, r2, #928
 413 010a 9342     		cmp	r3, r2
 414 010c 00F0A481 		beq	.L113
 197:Drivers/STM32F4xx_HAL_Driver/Src/stm32f4xx_hal_dma_ex.c ****     __HAL_DMA_CLEAR_FLAG (hdma, __HAL_DMA_GET_TE_FLAG_INDEX(hdma));
 415              		.loc 1 197 5 discriminator 7 view .LVU125
 416 0110 02F58062 		add	r2, r2, #1024
 417 0114 9342     		cmp	r3, r2
 418 0116 00F0A181 		beq	.L114
 197:Drivers/STM32F4xx_HAL_Driver/Src/stm32f4xx_hal_dma_ex.c ****     __HAL_DMA_CLEAR_FLAG (hdma, __HAL_DMA_GET_TE_FLAG_INDEX(hdma));
 419              		.loc 1 197 5 discriminator 9 view .LVU126
 420 011a A2F58962 		sub	r2, r2, #1096
 421 011e 9342     		cmp	r3, r2
 422 0120 00F09E81 		beq	.L115
 197:Drivers/STM32F4xx_HAL_Driver/Src/stm32f4xx_hal_dma_ex.c ****     __HAL_DMA_CLEAR_FLAG (hdma, __HAL_DMA_GET_TE_FLAG_INDEX(hdma));
 423              		.loc 1 197 5 discriminator 11 view .LVU127
 424 0124 02F58062 		add	r2, r2, #1024
 425 0128 9342     		cmp	r3, r2
 426 012a 00F09C81 		beq	.L116
 197:Drivers/STM32F4xx_HAL_Driver/Src/stm32f4xx_hal_dma_ex.c ****     __HAL_DMA_CLEAR_FLAG (hdma, __HAL_DMA_GET_TE_FLAG_INDEX(hdma));
 427              		.loc 1 197 5 discriminator 13 view .LVU128
 428 012e A2F56872 		sub	r2, r2, #928
 429 0132 9342     		cmp	r3, r2
 430 0134 00F09A81 		beq	.L117
 197:Drivers/STM32F4xx_HAL_Driver/Src/stm32f4xx_hal_dma_ex.c ****     __HAL_DMA_CLEAR_FLAG (hdma, __HAL_DMA_GET_TE_FLAG_INDEX(hdma));
 431              		.loc 1 197 5 discriminator 15 view .LVU129
 432 0138 02F58062 		add	r2, r2, #1024
 433 013c 9342     		cmp	r3, r2
 434 013e 00F09881 		beq	.L118
 197:Drivers/STM32F4xx_HAL_Driver/Src/stm32f4xx_hal_dma_ex.c ****     __HAL_DMA_CLEAR_FLAG (hdma, __HAL_DMA_GET_TE_FLAG_INDEX(hdma));
 435              		.loc 1 197 5 discriminator 17 view .LVU130
 436 0142 A2F58962 		sub	r2, r2, #1096
 437 0146 9342     		cmp	r3, r2
 438 0148 00F09681 		beq	.L119
 197:Drivers/STM32F4xx_HAL_Driver/Src/stm32f4xx_hal_dma_ex.c ****     __HAL_DMA_CLEAR_FLAG (hdma, __HAL_DMA_GET_TE_FLAG_INDEX(hdma));
 439              		.loc 1 197 5 discriminator 19 view .LVU131
 440 014c 02F58062 		add	r2, r2, #1024
 441 0150 9342     		cmp	r3, r2
 442 0152 00F09481 		beq	.L120
 197:Drivers/STM32F4xx_HAL_Driver/Src/stm32f4xx_hal_dma_ex.c ****     __HAL_DMA_CLEAR_FLAG (hdma, __HAL_DMA_GET_TE_FLAG_INDEX(hdma));
ARM GAS  C:\Users\12990\AppData\Local\Temp\cc1clWBF.s 			page 16


 443              		.loc 1 197 5 discriminator 21 view .LVU132
 444 0156 A2F56872 		sub	r2, r2, #928
 445 015a 9342     		cmp	r3, r2
 446 015c 00F09281 		beq	.L121
 197:Drivers/STM32F4xx_HAL_Driver/Src/stm32f4xx_hal_dma_ex.c ****     __HAL_DMA_CLEAR_FLAG (hdma, __HAL_DMA_GET_TE_FLAG_INDEX(hdma));
 447              		.loc 1 197 5 discriminator 23 view .LVU133
 448 0160 02F58062 		add	r2, r2, #1024
 449 0164 9342     		cmp	r3, r2
 450 0166 00F02B81 		beq	.L307
 197:Drivers/STM32F4xx_HAL_Driver/Src/stm32f4xx_hal_dma_ex.c ****     __HAL_DMA_CLEAR_FLAG (hdma, __HAL_DMA_GET_TE_FLAG_INDEX(hdma));
 451              		.loc 1 197 5 view .LVU134
 452 016a 4FF08062 		mov	r2, #67108864
 453 016e 2BE1     		b	.L29
 454              	.LVL32:
 455              	.L64:
 196:Drivers/STM32F4xx_HAL_Driver/Src/stm32f4xx_hal_dma_ex.c ****     __HAL_DMA_CLEAR_FLAG (hdma, __HAL_DMA_GET_HT_FLAG_INDEX(hdma));
 456              		.loc 1 196 5 view .LVU135
 457 0170 2022     		movs	r2, #32
 458 0172 B7E7     		b	.L21
 459              	.L65:
 460 0174 2022     		movs	r2, #32
 461 0176 B5E7     		b	.L21
 462              	.L66:
 463 0178 2022     		movs	r2, #32
 464 017a B3E7     		b	.L21
 465              	.L67:
 466 017c 4FF40062 		mov	r2, #2048
 467 0180 B0E7     		b	.L21
 468              	.L68:
 469 0182 4FF40062 		mov	r2, #2048
 470 0186 ADE7     		b	.L21
 471              	.L69:
 472 0188 4FF40062 		mov	r2, #2048
 473 018c AAE7     		b	.L21
 474              	.L70:
 475 018e 4FF40062 		mov	r2, #2048
 476 0192 A7E7     		b	.L21
 477              	.L71:
 478 0194 4FF40012 		mov	r2, #2097152
 479 0198 A4E7     		b	.L21
 480              	.L72:
 481 019a 4FF40012 		mov	r2, #2097152
 482 019e A1E7     		b	.L21
 483              	.L73:
 484 01a0 4FF40012 		mov	r2, #2097152
 485 01a4 9EE7     		b	.L21
 486              	.L20:
 196:Drivers/STM32F4xx_HAL_Driver/Src/stm32f4xx_hal_dma_ex.c ****     __HAL_DMA_CLEAR_FLAG (hdma, __HAL_DMA_GET_HT_FLAG_INDEX(hdma));
 487              		.loc 1 196 5 discriminator 2 view .LVU136
 488 01a6 594A     		ldr	r2, .L327+8
 489 01a8 9342     		cmp	r3, r2
 490 01aa 53D9     		bls	.L23
 196:Drivers/STM32F4xx_HAL_Driver/Src/stm32f4xx_hal_dma_ex.c ****     __HAL_DMA_CLEAR_FLAG (hdma, __HAL_DMA_GET_HT_FLAG_INDEX(hdma));
 491              		.loc 1 196 5 discriminator 51 view .LVU137
 492 01ac A83A     		subs	r2, r2, #168
 493 01ae 9342     		cmp	r3, r2
 494 01b0 31D0     		beq	.L75
ARM GAS  C:\Users\12990\AppData\Local\Temp\cc1clWBF.s 			page 17


 196:Drivers/STM32F4xx_HAL_Driver/Src/stm32f4xx_hal_dma_ex.c ****     __HAL_DMA_CLEAR_FLAG (hdma, __HAL_DMA_GET_HT_FLAG_INDEX(hdma));
 495              		.loc 1 196 5 discriminator 53 view .LVU138
 496 01b2 02F58062 		add	r2, r2, #1024
 497 01b6 9342     		cmp	r3, r2
 498 01b8 31D0     		beq	.L76
 196:Drivers/STM32F4xx_HAL_Driver/Src/stm32f4xx_hal_dma_ex.c ****     __HAL_DMA_CLEAR_FLAG (hdma, __HAL_DMA_GET_HT_FLAG_INDEX(hdma));
 499              		.loc 1 196 5 discriminator 55 view .LVU139
 500 01ba A2F56872 		sub	r2, r2, #928
 501 01be 9342     		cmp	r3, r2
 502 01c0 2FD0     		beq	.L77
 196:Drivers/STM32F4xx_HAL_Driver/Src/stm32f4xx_hal_dma_ex.c ****     __HAL_DMA_CLEAR_FLAG (hdma, __HAL_DMA_GET_HT_FLAG_INDEX(hdma));
 503              		.loc 1 196 5 discriminator 57 view .LVU140
 504 01c2 02F58062 		add	r2, r2, #1024
 505 01c6 9342     		cmp	r3, r2
 506 01c8 2DD0     		beq	.L78
 196:Drivers/STM32F4xx_HAL_Driver/Src/stm32f4xx_hal_dma_ex.c ****     __HAL_DMA_CLEAR_FLAG (hdma, __HAL_DMA_GET_HT_FLAG_INDEX(hdma));
 507              		.loc 1 196 5 discriminator 59 view .LVU141
 508 01ca A2F58962 		sub	r2, r2, #1096
 509 01ce 9342     		cmp	r3, r2
 510 01d0 2BD0     		beq	.L79
 196:Drivers/STM32F4xx_HAL_Driver/Src/stm32f4xx_hal_dma_ex.c ****     __HAL_DMA_CLEAR_FLAG (hdma, __HAL_DMA_GET_HT_FLAG_INDEX(hdma));
 511              		.loc 1 196 5 discriminator 61 view .LVU142
 512 01d2 02F58062 		add	r2, r2, #1024
 513 01d6 9342     		cmp	r3, r2
 514 01d8 2AD0     		beq	.L80
 196:Drivers/STM32F4xx_HAL_Driver/Src/stm32f4xx_hal_dma_ex.c ****     __HAL_DMA_CLEAR_FLAG (hdma, __HAL_DMA_GET_HT_FLAG_INDEX(hdma));
 515              		.loc 1 196 5 discriminator 63 view .LVU143
 516 01da A2F56872 		sub	r2, r2, #928
 517 01de 9342     		cmp	r3, r2
 518 01e0 29D0     		beq	.L81
 196:Drivers/STM32F4xx_HAL_Driver/Src/stm32f4xx_hal_dma_ex.c ****     __HAL_DMA_CLEAR_FLAG (hdma, __HAL_DMA_GET_HT_FLAG_INDEX(hdma));
 519              		.loc 1 196 5 discriminator 65 view .LVU144
 520 01e2 02F58062 		add	r2, r2, #1024
 521 01e6 9342     		cmp	r3, r2
 522 01e8 28D0     		beq	.L82
 196:Drivers/STM32F4xx_HAL_Driver/Src/stm32f4xx_hal_dma_ex.c ****     __HAL_DMA_CLEAR_FLAG (hdma, __HAL_DMA_GET_HT_FLAG_INDEX(hdma));
 523              		.loc 1 196 5 discriminator 67 view .LVU145
 524 01ea A2F58962 		sub	r2, r2, #1096
 525 01ee 9342     		cmp	r3, r2
 526 01f0 27D0     		beq	.L83
 196:Drivers/STM32F4xx_HAL_Driver/Src/stm32f4xx_hal_dma_ex.c ****     __HAL_DMA_CLEAR_FLAG (hdma, __HAL_DMA_GET_HT_FLAG_INDEX(hdma));
 527              		.loc 1 196 5 discriminator 69 view .LVU146
 528 01f2 02F58062 		add	r2, r2, #1024
 529 01f6 9342     		cmp	r3, r2
 530 01f8 26D0     		beq	.L84
 196:Drivers/STM32F4xx_HAL_Driver/Src/stm32f4xx_hal_dma_ex.c ****     __HAL_DMA_CLEAR_FLAG (hdma, __HAL_DMA_GET_HT_FLAG_INDEX(hdma));
 531              		.loc 1 196 5 discriminator 71 view .LVU147
 532 01fa A2F56872 		sub	r2, r2, #928
 533 01fe 9342     		cmp	r3, r2
 534 0200 25D0     		beq	.L85
 196:Drivers/STM32F4xx_HAL_Driver/Src/stm32f4xx_hal_dma_ex.c ****     __HAL_DMA_CLEAR_FLAG (hdma, __HAL_DMA_GET_HT_FLAG_INDEX(hdma));
 535              		.loc 1 196 5 discriminator 73 view .LVU148
 536 0202 02F58062 		add	r2, r2, #1024
 537 0206 9342     		cmp	r3, r2
 538 0208 02D0     		beq	.L308
 196:Drivers/STM32F4xx_HAL_Driver/Src/stm32f4xx_hal_dma_ex.c ****     __HAL_DMA_CLEAR_FLAG (hdma, __HAL_DMA_GET_HT_FLAG_INDEX(hdma));
 539              		.loc 1 196 5 view .LVU149
ARM GAS  C:\Users\12990\AppData\Local\Temp\cc1clWBF.s 			page 18


 540 020a 4FF00063 		mov	r3, #134217728
 541 020e 03E0     		b	.L24
 542              	.L308:
 543 0210 4FF40013 		mov	r3, #2097152
 544 0214 00E0     		b	.L24
 545              	.L75:
 546 0216 2023     		movs	r3, #32
 547              	.L24:
 196:Drivers/STM32F4xx_HAL_Driver/Src/stm32f4xx_hal_dma_ex.c ****     __HAL_DMA_CLEAR_FLAG (hdma, __HAL_DMA_GET_HT_FLAG_INDEX(hdma));
 548              		.loc 1 196 5 discriminator 100 view .LVU150
 549 0218 3B4A     		ldr	r2, .L327+4
 550 021a 9360     		str	r3, [r2, #8]
 551              	.LVL33:
 196:Drivers/STM32F4xx_HAL_Driver/Src/stm32f4xx_hal_dma_ex.c ****     __HAL_DMA_CLEAR_FLAG (hdma, __HAL_DMA_GET_HT_FLAG_INDEX(hdma));
 552              		.loc 1 196 5 discriminator 100 view .LVU151
 553 021c 64E7     		b	.L22
 554              	.LVL34:
 555              	.L76:
 196:Drivers/STM32F4xx_HAL_Driver/Src/stm32f4xx_hal_dma_ex.c ****     __HAL_DMA_CLEAR_FLAG (hdma, __HAL_DMA_GET_HT_FLAG_INDEX(hdma));
 556              		.loc 1 196 5 view .LVU152
 557 021e 2023     		movs	r3, #32
 558 0220 FAE7     		b	.L24
 559              	.L77:
 560 0222 2023     		movs	r3, #32
 561 0224 F8E7     		b	.L24
 562              	.L78:
 563 0226 2023     		movs	r3, #32
 564 0228 F6E7     		b	.L24
 565              	.L79:
 566 022a 4FF40063 		mov	r3, #2048
 567 022e F3E7     		b	.L24
 568              	.L80:
 569 0230 4FF40063 		mov	r3, #2048
 570 0234 F0E7     		b	.L24
 571              	.L81:
 572 0236 4FF40063 		mov	r3, #2048
 573 023a EDE7     		b	.L24
 574              	.L82:
 575 023c 4FF40063 		mov	r3, #2048
 576 0240 EAE7     		b	.L24
 577              	.L83:
 578 0242 4FF40013 		mov	r3, #2097152
 579 0246 E7E7     		b	.L24
 580              	.L84:
 581 0248 4FF40013 		mov	r3, #2097152
 582 024c E4E7     		b	.L24
 583              	.L85:
 584 024e 4FF40013 		mov	r3, #2097152
 585 0252 E1E7     		b	.L24
 586              	.L23:
 196:Drivers/STM32F4xx_HAL_Driver/Src/stm32f4xx_hal_dma_ex.c ****     __HAL_DMA_CLEAR_FLAG (hdma, __HAL_DMA_GET_HT_FLAG_INDEX(hdma));
 587              		.loc 1 196 5 discriminator 52 view .LVU153
 588 0254 2E4A     		ldr	r2, .L327+12
 589 0256 9342     		cmp	r3, r2
 590 0258 5ED9     		bls	.L25
 196:Drivers/STM32F4xx_HAL_Driver/Src/stm32f4xx_hal_dma_ex.c ****     __HAL_DMA_CLEAR_FLAG (hdma, __HAL_DMA_GET_HT_FLAG_INDEX(hdma));
 591              		.loc 1 196 5 discriminator 102 view .LVU154
ARM GAS  C:\Users\12990\AppData\Local\Temp\cc1clWBF.s 			page 19


 592 025a 483A     		subs	r2, r2, #72
 593 025c 9342     		cmp	r3, r2
 594 025e 31D0     		beq	.L87
 196:Drivers/STM32F4xx_HAL_Driver/Src/stm32f4xx_hal_dma_ex.c ****     __HAL_DMA_CLEAR_FLAG (hdma, __HAL_DMA_GET_HT_FLAG_INDEX(hdma));
 595              		.loc 1 196 5 discriminator 104 view .LVU155
 596 0260 02F58062 		add	r2, r2, #1024
 597 0264 9342     		cmp	r3, r2
 598 0266 31D0     		beq	.L88
 196:Drivers/STM32F4xx_HAL_Driver/Src/stm32f4xx_hal_dma_ex.c ****     __HAL_DMA_CLEAR_FLAG (hdma, __HAL_DMA_GET_HT_FLAG_INDEX(hdma));
 599              		.loc 1 196 5 discriminator 106 view .LVU156
 600 0268 A2F56872 		sub	r2, r2, #928
 601 026c 9342     		cmp	r3, r2
 602 026e 2FD0     		beq	.L89
 196:Drivers/STM32F4xx_HAL_Driver/Src/stm32f4xx_hal_dma_ex.c ****     __HAL_DMA_CLEAR_FLAG (hdma, __HAL_DMA_GET_HT_FLAG_INDEX(hdma));
 603              		.loc 1 196 5 discriminator 108 view .LVU157
 604 0270 02F58062 		add	r2, r2, #1024
 605 0274 9342     		cmp	r3, r2
 606 0276 2DD0     		beq	.L90
 196:Drivers/STM32F4xx_HAL_Driver/Src/stm32f4xx_hal_dma_ex.c ****     __HAL_DMA_CLEAR_FLAG (hdma, __HAL_DMA_GET_HT_FLAG_INDEX(hdma));
 607              		.loc 1 196 5 discriminator 110 view .LVU158
 608 0278 A2F58962 		sub	r2, r2, #1096
 609 027c 9342     		cmp	r3, r2
 610 027e 2BD0     		beq	.L91
 196:Drivers/STM32F4xx_HAL_Driver/Src/stm32f4xx_hal_dma_ex.c ****     __HAL_DMA_CLEAR_FLAG (hdma, __HAL_DMA_GET_HT_FLAG_INDEX(hdma));
 611              		.loc 1 196 5 discriminator 112 view .LVU159
 612 0280 02F58062 		add	r2, r2, #1024
 613 0284 9342     		cmp	r3, r2
 614 0286 2AD0     		beq	.L92
 196:Drivers/STM32F4xx_HAL_Driver/Src/stm32f4xx_hal_dma_ex.c ****     __HAL_DMA_CLEAR_FLAG (hdma, __HAL_DMA_GET_HT_FLAG_INDEX(hdma));
 615              		.loc 1 196 5 discriminator 114 view .LVU160
 616 0288 A2F56872 		sub	r2, r2, #928
 617 028c 9342     		cmp	r3, r2
 618 028e 29D0     		beq	.L93
 196:Drivers/STM32F4xx_HAL_Driver/Src/stm32f4xx_hal_dma_ex.c ****     __HAL_DMA_CLEAR_FLAG (hdma, __HAL_DMA_GET_HT_FLAG_INDEX(hdma));
 619              		.loc 1 196 5 discriminator 116 view .LVU161
 620 0290 02F58062 		add	r2, r2, #1024
 621 0294 9342     		cmp	r3, r2
 622 0296 28D0     		beq	.L94
 196:Drivers/STM32F4xx_HAL_Driver/Src/stm32f4xx_hal_dma_ex.c ****     __HAL_DMA_CLEAR_FLAG (hdma, __HAL_DMA_GET_HT_FLAG_INDEX(hdma));
 623              		.loc 1 196 5 discriminator 118 view .LVU162
 624 0298 A2F58962 		sub	r2, r2, #1096
 625 029c 9342     		cmp	r3, r2
 626 029e 27D0     		beq	.L95
 196:Drivers/STM32F4xx_HAL_Driver/Src/stm32f4xx_hal_dma_ex.c ****     __HAL_DMA_CLEAR_FLAG (hdma, __HAL_DMA_GET_HT_FLAG_INDEX(hdma));
 627              		.loc 1 196 5 discriminator 120 view .LVU163
 628 02a0 02F58062 		add	r2, r2, #1024
 629 02a4 9342     		cmp	r3, r2
 630 02a6 26D0     		beq	.L96
 196:Drivers/STM32F4xx_HAL_Driver/Src/stm32f4xx_hal_dma_ex.c ****     __HAL_DMA_CLEAR_FLAG (hdma, __HAL_DMA_GET_HT_FLAG_INDEX(hdma));
 631              		.loc 1 196 5 discriminator 122 view .LVU164
 632 02a8 A2F56872 		sub	r2, r2, #928
 633 02ac 9342     		cmp	r3, r2
 634 02ae 25D0     		beq	.L97
 196:Drivers/STM32F4xx_HAL_Driver/Src/stm32f4xx_hal_dma_ex.c ****     __HAL_DMA_CLEAR_FLAG (hdma, __HAL_DMA_GET_HT_FLAG_INDEX(hdma));
 635              		.loc 1 196 5 discriminator 124 view .LVU165
 636 02b0 02F58062 		add	r2, r2, #1024
 637 02b4 9342     		cmp	r3, r2
ARM GAS  C:\Users\12990\AppData\Local\Temp\cc1clWBF.s 			page 20


 638 02b6 02D0     		beq	.L309
 196:Drivers/STM32F4xx_HAL_Driver/Src/stm32f4xx_hal_dma_ex.c ****     __HAL_DMA_CLEAR_FLAG (hdma, __HAL_DMA_GET_HT_FLAG_INDEX(hdma));
 639              		.loc 1 196 5 view .LVU166
 640 02b8 4FF00063 		mov	r3, #134217728
 641 02bc 03E0     		b	.L26
 642              	.L309:
 643 02be 4FF40013 		mov	r3, #2097152
 644 02c2 00E0     		b	.L26
 645              	.L87:
 646 02c4 2023     		movs	r3, #32
 647              	.L26:
 196:Drivers/STM32F4xx_HAL_Driver/Src/stm32f4xx_hal_dma_ex.c ****     __HAL_DMA_CLEAR_FLAG (hdma, __HAL_DMA_GET_HT_FLAG_INDEX(hdma));
 648              		.loc 1 196 5 discriminator 151 view .LVU167
 649 02c6 134A     		ldr	r2, .L327+16
 650 02c8 D360     		str	r3, [r2, #12]
 651              	.LVL35:
 196:Drivers/STM32F4xx_HAL_Driver/Src/stm32f4xx_hal_dma_ex.c ****     __HAL_DMA_CLEAR_FLAG (hdma, __HAL_DMA_GET_HT_FLAG_INDEX(hdma));
 652              		.loc 1 196 5 discriminator 151 view .LVU168
 653 02ca 0DE7     		b	.L22
 654              	.LVL36:
 655              	.L88:
 196:Drivers/STM32F4xx_HAL_Driver/Src/stm32f4xx_hal_dma_ex.c ****     __HAL_DMA_CLEAR_FLAG (hdma, __HAL_DMA_GET_HT_FLAG_INDEX(hdma));
 656              		.loc 1 196 5 view .LVU169
 657 02cc 2023     		movs	r3, #32
 658 02ce FAE7     		b	.L26
 659              	.L89:
 660 02d0 2023     		movs	r3, #32
 661 02d2 F8E7     		b	.L26
 662              	.L90:
 663 02d4 2023     		movs	r3, #32
 664 02d6 F6E7     		b	.L26
 665              	.L91:
 666 02d8 4FF40063 		mov	r3, #2048
 667 02dc F3E7     		b	.L26
 668              	.L92:
 669 02de 4FF40063 		mov	r3, #2048
 670 02e2 F0E7     		b	.L26
 671              	.L93:
 672 02e4 4FF40063 		mov	r3, #2048
 673 02e8 EDE7     		b	.L26
 674              	.L94:
 675 02ea 4FF40063 		mov	r3, #2048
 676 02ee EAE7     		b	.L26
 677              	.L95:
 678 02f0 4FF40013 		mov	r3, #2097152
 679 02f4 E7E7     		b	.L26
 680              	.L96:
 681 02f6 4FF40013 		mov	r3, #2097152
 682 02fa E4E7     		b	.L26
 683              	.L97:
 684 02fc 4FF40013 		mov	r3, #2097152
 685 0300 E1E7     		b	.L26
 686              	.L328:
 687 0302 00BF     		.align	2
 688              	.L327:
 689 0304 58640240 		.word	1073898584
 690 0308 00640240 		.word	1073898496
ARM GAS  C:\Users\12990\AppData\Local\Temp\cc1clWBF.s 			page 21


 691 030c B8600240 		.word	1073897656
 692 0310 58600240 		.word	1073897560
 693 0314 00600240 		.word	1073897472
 694              	.L25:
 196:Drivers/STM32F4xx_HAL_Driver/Src/stm32f4xx_hal_dma_ex.c ****     __HAL_DMA_CLEAR_FLAG (hdma, __HAL_DMA_GET_HT_FLAG_INDEX(hdma));
 695              		.loc 1 196 5 discriminator 103 view .LVU170
 696 0318 B14A     		ldr	r2, .L329
 697 031a 9342     		cmp	r3, r2
 698 031c 31D0     		beq	.L99
 196:Drivers/STM32F4xx_HAL_Driver/Src/stm32f4xx_hal_dma_ex.c ****     __HAL_DMA_CLEAR_FLAG (hdma, __HAL_DMA_GET_HT_FLAG_INDEX(hdma));
 699              		.loc 1 196 5 discriminator 153 view .LVU171
 700 031e 02F58062 		add	r2, r2, #1024
 701 0322 9342     		cmp	r3, r2
 702 0324 31D0     		beq	.L100
 196:Drivers/STM32F4xx_HAL_Driver/Src/stm32f4xx_hal_dma_ex.c ****     __HAL_DMA_CLEAR_FLAG (hdma, __HAL_DMA_GET_HT_FLAG_INDEX(hdma));
 703              		.loc 1 196 5 discriminator 155 view .LVU172
 704 0326 A2F56872 		sub	r2, r2, #928
 705 032a 9342     		cmp	r3, r2
 706 032c 2FD0     		beq	.L101
 196:Drivers/STM32F4xx_HAL_Driver/Src/stm32f4xx_hal_dma_ex.c ****     __HAL_DMA_CLEAR_FLAG (hdma, __HAL_DMA_GET_HT_FLAG_INDEX(hdma));
 707              		.loc 1 196 5 discriminator 157 view .LVU173
 708 032e 02F58062 		add	r2, r2, #1024
 709 0332 9342     		cmp	r3, r2
 710 0334 2DD0     		beq	.L102
 196:Drivers/STM32F4xx_HAL_Driver/Src/stm32f4xx_hal_dma_ex.c ****     __HAL_DMA_CLEAR_FLAG (hdma, __HAL_DMA_GET_HT_FLAG_INDEX(hdma));
 711              		.loc 1 196 5 discriminator 159 view .LVU174
 712 0336 A2F58962 		sub	r2, r2, #1096
 713 033a 9342     		cmp	r3, r2
 714 033c 2BD0     		beq	.L103
 196:Drivers/STM32F4xx_HAL_Driver/Src/stm32f4xx_hal_dma_ex.c ****     __HAL_DMA_CLEAR_FLAG (hdma, __HAL_DMA_GET_HT_FLAG_INDEX(hdma));
 715              		.loc 1 196 5 discriminator 161 view .LVU175
 716 033e 02F58062 		add	r2, r2, #1024
 717 0342 9342     		cmp	r3, r2
 718 0344 2AD0     		beq	.L104
 196:Drivers/STM32F4xx_HAL_Driver/Src/stm32f4xx_hal_dma_ex.c ****     __HAL_DMA_CLEAR_FLAG (hdma, __HAL_DMA_GET_HT_FLAG_INDEX(hdma));
 719              		.loc 1 196 5 discriminator 163 view .LVU176
 720 0346 A2F56872 		sub	r2, r2, #928
 721 034a 9342     		cmp	r3, r2
 722 034c 29D0     		beq	.L105
 196:Drivers/STM32F4xx_HAL_Driver/Src/stm32f4xx_hal_dma_ex.c ****     __HAL_DMA_CLEAR_FLAG (hdma, __HAL_DMA_GET_HT_FLAG_INDEX(hdma));
 723              		.loc 1 196 5 discriminator 165 view .LVU177
 724 034e 02F58062 		add	r2, r2, #1024
 725 0352 9342     		cmp	r3, r2
 726 0354 28D0     		beq	.L106
 196:Drivers/STM32F4xx_HAL_Driver/Src/stm32f4xx_hal_dma_ex.c ****     __HAL_DMA_CLEAR_FLAG (hdma, __HAL_DMA_GET_HT_FLAG_INDEX(hdma));
 727              		.loc 1 196 5 discriminator 167 view .LVU178
 728 0356 A2F58962 		sub	r2, r2, #1096
 729 035a 9342     		cmp	r3, r2
 730 035c 27D0     		beq	.L107
 196:Drivers/STM32F4xx_HAL_Driver/Src/stm32f4xx_hal_dma_ex.c ****     __HAL_DMA_CLEAR_FLAG (hdma, __HAL_DMA_GET_HT_FLAG_INDEX(hdma));
 731              		.loc 1 196 5 discriminator 169 view .LVU179
 732 035e 02F58062 		add	r2, r2, #1024
 733 0362 9342     		cmp	r3, r2
 734 0364 26D0     		beq	.L108
 196:Drivers/STM32F4xx_HAL_Driver/Src/stm32f4xx_hal_dma_ex.c ****     __HAL_DMA_CLEAR_FLAG (hdma, __HAL_DMA_GET_HT_FLAG_INDEX(hdma));
 735              		.loc 1 196 5 discriminator 171 view .LVU180
 736 0366 A2F56872 		sub	r2, r2, #928
ARM GAS  C:\Users\12990\AppData\Local\Temp\cc1clWBF.s 			page 22


 737 036a 9342     		cmp	r3, r2
 738 036c 25D0     		beq	.L109
 196:Drivers/STM32F4xx_HAL_Driver/Src/stm32f4xx_hal_dma_ex.c ****     __HAL_DMA_CLEAR_FLAG (hdma, __HAL_DMA_GET_HT_FLAG_INDEX(hdma));
 739              		.loc 1 196 5 discriminator 173 view .LVU181
 740 036e 02F58062 		add	r2, r2, #1024
 741 0372 9342     		cmp	r3, r2
 742 0374 02D0     		beq	.L310
 196:Drivers/STM32F4xx_HAL_Driver/Src/stm32f4xx_hal_dma_ex.c ****     __HAL_DMA_CLEAR_FLAG (hdma, __HAL_DMA_GET_HT_FLAG_INDEX(hdma));
 743              		.loc 1 196 5 view .LVU182
 744 0376 4FF00063 		mov	r3, #134217728
 745 037a 03E0     		b	.L27
 746              	.L310:
 747 037c 4FF40013 		mov	r3, #2097152
 748 0380 00E0     		b	.L27
 749              	.L99:
 750 0382 2023     		movs	r3, #32
 751              	.L27:
 196:Drivers/STM32F4xx_HAL_Driver/Src/stm32f4xx_hal_dma_ex.c ****     __HAL_DMA_CLEAR_FLAG (hdma, __HAL_DMA_GET_HT_FLAG_INDEX(hdma));
 752              		.loc 1 196 5 discriminator 200 view .LVU183
 753 0384 974A     		ldr	r2, .L329+4
 754 0386 9360     		str	r3, [r2, #8]
 755              	.LVL37:
 196:Drivers/STM32F4xx_HAL_Driver/Src/stm32f4xx_hal_dma_ex.c ****     __HAL_DMA_CLEAR_FLAG (hdma, __HAL_DMA_GET_HT_FLAG_INDEX(hdma));
 756              		.loc 1 196 5 discriminator 200 view .LVU184
 757 0388 AEE6     		b	.L22
 758              	.LVL38:
 759              	.L100:
 196:Drivers/STM32F4xx_HAL_Driver/Src/stm32f4xx_hal_dma_ex.c ****     __HAL_DMA_CLEAR_FLAG (hdma, __HAL_DMA_GET_HT_FLAG_INDEX(hdma));
 760              		.loc 1 196 5 view .LVU185
 761 038a 2023     		movs	r3, #32
 762 038c FAE7     		b	.L27
 763              	.L101:
 764 038e 2023     		movs	r3, #32
 765 0390 F8E7     		b	.L27
 766              	.L102:
 767 0392 2023     		movs	r3, #32
 768 0394 F6E7     		b	.L27
 769              	.L103:
 770 0396 4FF40063 		mov	r3, #2048
 771 039a F3E7     		b	.L27
 772              	.L104:
 773 039c 4FF40063 		mov	r3, #2048
 774 03a0 F0E7     		b	.L27
 775              	.L105:
 776 03a2 4FF40063 		mov	r3, #2048
 777 03a6 EDE7     		b	.L27
 778              	.L106:
 779 03a8 4FF40063 		mov	r3, #2048
 780 03ac EAE7     		b	.L27
 781              	.L107:
 782 03ae 4FF40013 		mov	r3, #2097152
 783 03b2 E7E7     		b	.L27
 784              	.L108:
 785 03b4 4FF40013 		mov	r3, #2097152
 786 03b8 E4E7     		b	.L27
 787              	.L109:
 788 03ba 4FF40013 		mov	r3, #2097152
ARM GAS  C:\Users\12990\AppData\Local\Temp\cc1clWBF.s 			page 23


 789 03be E1E7     		b	.L27
 790              	.LVL39:
 791              	.L307:
 197:Drivers/STM32F4xx_HAL_Driver/Src/stm32f4xx_hal_dma_ex.c ****     __HAL_DMA_CLEAR_FLAG (hdma, __HAL_DMA_GET_TE_FLAG_INDEX(hdma));
 792              		.loc 1 197 5 view .LVU186
 793 03c0 4FF48012 		mov	r2, #1048576
 794 03c4 00E0     		b	.L29
 795              	.L111:
 796 03c6 1022     		movs	r2, #16
 797              	.L29:
 197:Drivers/STM32F4xx_HAL_Driver/Src/stm32f4xx_hal_dma_ex.c ****     __HAL_DMA_CLEAR_FLAG (hdma, __HAL_DMA_GET_TE_FLAG_INDEX(hdma));
 798              		.loc 1 197 5 discriminator 50 view .LVU187
 799 03c8 874B     		ldr	r3, .L329+8
 800 03ca DA60     		str	r2, [r3, #12]
 801              	.L30:
 198:Drivers/STM32F4xx_HAL_Driver/Src/stm32f4xx_hal_dma_ex.c ****     __HAL_DMA_CLEAR_FLAG (hdma, __HAL_DMA_GET_DME_FLAG_INDEX(hdma));
 802              		.loc 1 198 5 is_stmt 1 view .LVU188
 803 03cc 2368     		ldr	r3, [r4]
 804 03ce 874A     		ldr	r2, .L329+12
 805 03d0 9342     		cmp	r3, r2
 806 03d2 40F2CD81 		bls	.L36
 198:Drivers/STM32F4xx_HAL_Driver/Src/stm32f4xx_hal_dma_ex.c ****     __HAL_DMA_CLEAR_FLAG (hdma, __HAL_DMA_GET_DME_FLAG_INDEX(hdma));
 807              		.loc 1 198 5 is_stmt 0 discriminator 1 view .LVU189
 808 03d6 A2F58962 		sub	r2, r2, #1096
 809 03da 9342     		cmp	r3, r2
 810 03dc 00F06681 		beq	.L159
 198:Drivers/STM32F4xx_HAL_Driver/Src/stm32f4xx_hal_dma_ex.c ****     __HAL_DMA_CLEAR_FLAG (hdma, __HAL_DMA_GET_DME_FLAG_INDEX(hdma));
 811              		.loc 1 198 5 discriminator 3 view .LVU190
 812 03e0 02F58062 		add	r2, r2, #1024
 813 03e4 9342     		cmp	r3, r2
 814 03e6 00F0A881 		beq	.L160
 198:Drivers/STM32F4xx_HAL_Driver/Src/stm32f4xx_hal_dma_ex.c ****     __HAL_DMA_CLEAR_FLAG (hdma, __HAL_DMA_GET_DME_FLAG_INDEX(hdma));
 815              		.loc 1 198 5 discriminator 5 view .LVU191
 816 03ea A2F56872 		sub	r2, r2, #928
 817 03ee 9342     		cmp	r3, r2
 818 03f0 00F0A581 		beq	.L161
 198:Drivers/STM32F4xx_HAL_Driver/Src/stm32f4xx_hal_dma_ex.c ****     __HAL_DMA_CLEAR_FLAG (hdma, __HAL_DMA_GET_DME_FLAG_INDEX(hdma));
 819              		.loc 1 198 5 discriminator 7 view .LVU192
 820 03f4 02F58062 		add	r2, r2, #1024
 821 03f8 9342     		cmp	r3, r2
 822 03fa 00F0A281 		beq	.L162
 198:Drivers/STM32F4xx_HAL_Driver/Src/stm32f4xx_hal_dma_ex.c ****     __HAL_DMA_CLEAR_FLAG (hdma, __HAL_DMA_GET_DME_FLAG_INDEX(hdma));
 823              		.loc 1 198 5 discriminator 9 view .LVU193
 824 03fe A2F58962 		sub	r2, r2, #1096
 825 0402 9342     		cmp	r3, r2
 826 0404 00F09F81 		beq	.L163
 198:Drivers/STM32F4xx_HAL_Driver/Src/stm32f4xx_hal_dma_ex.c ****     __HAL_DMA_CLEAR_FLAG (hdma, __HAL_DMA_GET_DME_FLAG_INDEX(hdma));
 827              		.loc 1 198 5 discriminator 11 view .LVU194
 828 0408 02F58062 		add	r2, r2, #1024
 829 040c 9342     		cmp	r3, r2
 830 040e 00F09D81 		beq	.L164
 198:Drivers/STM32F4xx_HAL_Driver/Src/stm32f4xx_hal_dma_ex.c ****     __HAL_DMA_CLEAR_FLAG (hdma, __HAL_DMA_GET_DME_FLAG_INDEX(hdma));
 831              		.loc 1 198 5 discriminator 13 view .LVU195
 832 0412 A2F56872 		sub	r2, r2, #928
 833 0416 9342     		cmp	r3, r2
 834 0418 00F09B81 		beq	.L165
 198:Drivers/STM32F4xx_HAL_Driver/Src/stm32f4xx_hal_dma_ex.c ****     __HAL_DMA_CLEAR_FLAG (hdma, __HAL_DMA_GET_DME_FLAG_INDEX(hdma));
ARM GAS  C:\Users\12990\AppData\Local\Temp\cc1clWBF.s 			page 24


 835              		.loc 1 198 5 discriminator 15 view .LVU196
 836 041c 02F58062 		add	r2, r2, #1024
 837 0420 9342     		cmp	r3, r2
 838 0422 00F09981 		beq	.L166
 198:Drivers/STM32F4xx_HAL_Driver/Src/stm32f4xx_hal_dma_ex.c ****     __HAL_DMA_CLEAR_FLAG (hdma, __HAL_DMA_GET_DME_FLAG_INDEX(hdma));
 839              		.loc 1 198 5 discriminator 17 view .LVU197
 840 0426 A2F58962 		sub	r2, r2, #1096
 841 042a 9342     		cmp	r3, r2
 842 042c 00F09781 		beq	.L167
 198:Drivers/STM32F4xx_HAL_Driver/Src/stm32f4xx_hal_dma_ex.c ****     __HAL_DMA_CLEAR_FLAG (hdma, __HAL_DMA_GET_DME_FLAG_INDEX(hdma));
 843              		.loc 1 198 5 discriminator 19 view .LVU198
 844 0430 02F58062 		add	r2, r2, #1024
 845 0434 9342     		cmp	r3, r2
 846 0436 00F09581 		beq	.L168
 198:Drivers/STM32F4xx_HAL_Driver/Src/stm32f4xx_hal_dma_ex.c ****     __HAL_DMA_CLEAR_FLAG (hdma, __HAL_DMA_GET_DME_FLAG_INDEX(hdma));
 847              		.loc 1 198 5 discriminator 21 view .LVU199
 848 043a A2F56872 		sub	r2, r2, #928
 849 043e 9342     		cmp	r3, r2
 850 0440 00F09381 		beq	.L169
 198:Drivers/STM32F4xx_HAL_Driver/Src/stm32f4xx_hal_dma_ex.c ****     __HAL_DMA_CLEAR_FLAG (hdma, __HAL_DMA_GET_DME_FLAG_INDEX(hdma));
 851              		.loc 1 198 5 discriminator 23 view .LVU200
 852 0444 02F58062 		add	r2, r2, #1024
 853 0448 9342     		cmp	r3, r2
 854 044a 00F02C81 		beq	.L311
 198:Drivers/STM32F4xx_HAL_Driver/Src/stm32f4xx_hal_dma_ex.c ****     __HAL_DMA_CLEAR_FLAG (hdma, __HAL_DMA_GET_DME_FLAG_INDEX(hdma));
 855              		.loc 1 198 5 view .LVU201
 856 044e 4FF00072 		mov	r2, #33554432
 857 0452 2CE1     		b	.L37
 858              	.L112:
 197:Drivers/STM32F4xx_HAL_Driver/Src/stm32f4xx_hal_dma_ex.c ****     __HAL_DMA_CLEAR_FLAG (hdma, __HAL_DMA_GET_TE_FLAG_INDEX(hdma));
 859              		.loc 1 197 5 view .LVU202
 860 0454 1022     		movs	r2, #16
 861 0456 B7E7     		b	.L29
 862              	.L113:
 863 0458 1022     		movs	r2, #16
 864 045a B5E7     		b	.L29
 865              	.L114:
 866 045c 1022     		movs	r2, #16
 867 045e B3E7     		b	.L29
 868              	.L115:
 869 0460 4FF48062 		mov	r2, #1024
 870 0464 B0E7     		b	.L29
 871              	.L116:
 872 0466 4FF48062 		mov	r2, #1024
 873 046a ADE7     		b	.L29
 874              	.L117:
 875 046c 4FF48062 		mov	r2, #1024
 876 0470 AAE7     		b	.L29
 877              	.L118:
 878 0472 4FF48062 		mov	r2, #1024
 879 0476 A7E7     		b	.L29
 880              	.L119:
 881 0478 4FF48012 		mov	r2, #1048576
 882 047c A4E7     		b	.L29
 883              	.L120:
 884 047e 4FF48012 		mov	r2, #1048576
 885 0482 A1E7     		b	.L29
ARM GAS  C:\Users\12990\AppData\Local\Temp\cc1clWBF.s 			page 25


 886              	.L121:
 887 0484 4FF48012 		mov	r2, #1048576
 888 0488 9EE7     		b	.L29
 889              	.L28:
 197:Drivers/STM32F4xx_HAL_Driver/Src/stm32f4xx_hal_dma_ex.c ****     __HAL_DMA_CLEAR_FLAG (hdma, __HAL_DMA_GET_TE_FLAG_INDEX(hdma));
 890              		.loc 1 197 5 discriminator 2 view .LVU203
 891 048a 594A     		ldr	r2, .L329+16
 892 048c 9342     		cmp	r3, r2
 893 048e 53D9     		bls	.L31
 197:Drivers/STM32F4xx_HAL_Driver/Src/stm32f4xx_hal_dma_ex.c ****     __HAL_DMA_CLEAR_FLAG (hdma, __HAL_DMA_GET_TE_FLAG_INDEX(hdma));
 894              		.loc 1 197 5 discriminator 51 view .LVU204
 895 0490 A83A     		subs	r2, r2, #168
 896 0492 9342     		cmp	r3, r2
 897 0494 31D0     		beq	.L123
 197:Drivers/STM32F4xx_HAL_Driver/Src/stm32f4xx_hal_dma_ex.c ****     __HAL_DMA_CLEAR_FLAG (hdma, __HAL_DMA_GET_TE_FLAG_INDEX(hdma));
 898              		.loc 1 197 5 discriminator 53 view .LVU205
 899 0496 02F58062 		add	r2, r2, #1024
 900 049a 9342     		cmp	r3, r2
 901 049c 31D0     		beq	.L124
 197:Drivers/STM32F4xx_HAL_Driver/Src/stm32f4xx_hal_dma_ex.c ****     __HAL_DMA_CLEAR_FLAG (hdma, __HAL_DMA_GET_TE_FLAG_INDEX(hdma));
 902              		.loc 1 197 5 discriminator 55 view .LVU206
 903 049e A2F56872 		sub	r2, r2, #928
 904 04a2 9342     		cmp	r3, r2
 905 04a4 2FD0     		beq	.L125
 197:Drivers/STM32F4xx_HAL_Driver/Src/stm32f4xx_hal_dma_ex.c ****     __HAL_DMA_CLEAR_FLAG (hdma, __HAL_DMA_GET_TE_FLAG_INDEX(hdma));
 906              		.loc 1 197 5 discriminator 57 view .LVU207
 907 04a6 02F58062 		add	r2, r2, #1024
 908 04aa 9342     		cmp	r3, r2
 909 04ac 2DD0     		beq	.L126
 197:Drivers/STM32F4xx_HAL_Driver/Src/stm32f4xx_hal_dma_ex.c ****     __HAL_DMA_CLEAR_FLAG (hdma, __HAL_DMA_GET_TE_FLAG_INDEX(hdma));
 910              		.loc 1 197 5 discriminator 59 view .LVU208
 911 04ae A2F58962 		sub	r2, r2, #1096
 912 04b2 9342     		cmp	r3, r2
 913 04b4 2BD0     		beq	.L127
 197:Drivers/STM32F4xx_HAL_Driver/Src/stm32f4xx_hal_dma_ex.c ****     __HAL_DMA_CLEAR_FLAG (hdma, __HAL_DMA_GET_TE_FLAG_INDEX(hdma));
 914              		.loc 1 197 5 discriminator 61 view .LVU209
 915 04b6 02F58062 		add	r2, r2, #1024
 916 04ba 9342     		cmp	r3, r2
 917 04bc 2AD0     		beq	.L128
 197:Drivers/STM32F4xx_HAL_Driver/Src/stm32f4xx_hal_dma_ex.c ****     __HAL_DMA_CLEAR_FLAG (hdma, __HAL_DMA_GET_TE_FLAG_INDEX(hdma));
 918              		.loc 1 197 5 discriminator 63 view .LVU210
 919 04be A2F56872 		sub	r2, r2, #928
 920 04c2 9342     		cmp	r3, r2
 921 04c4 29D0     		beq	.L129
 197:Drivers/STM32F4xx_HAL_Driver/Src/stm32f4xx_hal_dma_ex.c ****     __HAL_DMA_CLEAR_FLAG (hdma, __HAL_DMA_GET_TE_FLAG_INDEX(hdma));
 922              		.loc 1 197 5 discriminator 65 view .LVU211
 923 04c6 02F58062 		add	r2, r2, #1024
 924 04ca 9342     		cmp	r3, r2
 925 04cc 28D0     		beq	.L130
 197:Drivers/STM32F4xx_HAL_Driver/Src/stm32f4xx_hal_dma_ex.c ****     __HAL_DMA_CLEAR_FLAG (hdma, __HAL_DMA_GET_TE_FLAG_INDEX(hdma));
 926              		.loc 1 197 5 discriminator 67 view .LVU212
 927 04ce A2F58962 		sub	r2, r2, #1096
 928 04d2 9342     		cmp	r3, r2
 929 04d4 27D0     		beq	.L131
 197:Drivers/STM32F4xx_HAL_Driver/Src/stm32f4xx_hal_dma_ex.c ****     __HAL_DMA_CLEAR_FLAG (hdma, __HAL_DMA_GET_TE_FLAG_INDEX(hdma));
 930              		.loc 1 197 5 discriminator 69 view .LVU213
 931 04d6 02F58062 		add	r2, r2, #1024
ARM GAS  C:\Users\12990\AppData\Local\Temp\cc1clWBF.s 			page 26


 932 04da 9342     		cmp	r3, r2
 933 04dc 26D0     		beq	.L132
 197:Drivers/STM32F4xx_HAL_Driver/Src/stm32f4xx_hal_dma_ex.c ****     __HAL_DMA_CLEAR_FLAG (hdma, __HAL_DMA_GET_TE_FLAG_INDEX(hdma));
 934              		.loc 1 197 5 discriminator 71 view .LVU214
 935 04de A2F56872 		sub	r2, r2, #928
 936 04e2 9342     		cmp	r3, r2
 937 04e4 25D0     		beq	.L133
 197:Drivers/STM32F4xx_HAL_Driver/Src/stm32f4xx_hal_dma_ex.c ****     __HAL_DMA_CLEAR_FLAG (hdma, __HAL_DMA_GET_TE_FLAG_INDEX(hdma));
 938              		.loc 1 197 5 discriminator 73 view .LVU215
 939 04e6 02F58062 		add	r2, r2, #1024
 940 04ea 9342     		cmp	r3, r2
 941 04ec 02D0     		beq	.L312
 197:Drivers/STM32F4xx_HAL_Driver/Src/stm32f4xx_hal_dma_ex.c ****     __HAL_DMA_CLEAR_FLAG (hdma, __HAL_DMA_GET_TE_FLAG_INDEX(hdma));
 942              		.loc 1 197 5 view .LVU216
 943 04ee 4FF08063 		mov	r3, #67108864
 944 04f2 03E0     		b	.L32
 945              	.L312:
 946 04f4 4FF48013 		mov	r3, #1048576
 947 04f8 00E0     		b	.L32
 948              	.L123:
 949 04fa 1023     		movs	r3, #16
 950              	.L32:
 197:Drivers/STM32F4xx_HAL_Driver/Src/stm32f4xx_hal_dma_ex.c ****     __HAL_DMA_CLEAR_FLAG (hdma, __HAL_DMA_GET_TE_FLAG_INDEX(hdma));
 951              		.loc 1 197 5 discriminator 100 view .LVU217
 952 04fc 3A4A     		ldr	r2, .L329+8
 953 04fe 9360     		str	r3, [r2, #8]
 954 0500 64E7     		b	.L30
 955              	.L124:
 197:Drivers/STM32F4xx_HAL_Driver/Src/stm32f4xx_hal_dma_ex.c ****     __HAL_DMA_CLEAR_FLAG (hdma, __HAL_DMA_GET_TE_FLAG_INDEX(hdma));
 956              		.loc 1 197 5 view .LVU218
 957 0502 1023     		movs	r3, #16
 958 0504 FAE7     		b	.L32
 959              	.L125:
 960 0506 1023     		movs	r3, #16
 961 0508 F8E7     		b	.L32
 962              	.L126:
 963 050a 1023     		movs	r3, #16
 964 050c F6E7     		b	.L32
 965              	.L127:
 966 050e 4FF48063 		mov	r3, #1024
 967 0512 F3E7     		b	.L32
 968              	.L128:
 969 0514 4FF48063 		mov	r3, #1024
 970 0518 F0E7     		b	.L32
 971              	.L129:
 972 051a 4FF48063 		mov	r3, #1024
 973 051e EDE7     		b	.L32
 974              	.L130:
 975 0520 4FF48063 		mov	r3, #1024
 976 0524 EAE7     		b	.L32
 977              	.L131:
 978 0526 4FF48013 		mov	r3, #1048576
 979 052a E7E7     		b	.L32
 980              	.L132:
 981 052c 4FF48013 		mov	r3, #1048576
 982 0530 E4E7     		b	.L32
 983              	.L133:
ARM GAS  C:\Users\12990\AppData\Local\Temp\cc1clWBF.s 			page 27


 984 0532 4FF48013 		mov	r3, #1048576
 985 0536 E1E7     		b	.L32
 986              	.L31:
 197:Drivers/STM32F4xx_HAL_Driver/Src/stm32f4xx_hal_dma_ex.c ****     __HAL_DMA_CLEAR_FLAG (hdma, __HAL_DMA_GET_TE_FLAG_INDEX(hdma));
 987              		.loc 1 197 5 discriminator 52 view .LVU219
 988 0538 2E4A     		ldr	r2, .L329+20
 989 053a 9342     		cmp	r3, r2
 990 053c 5FD9     		bls	.L33
 197:Drivers/STM32F4xx_HAL_Driver/Src/stm32f4xx_hal_dma_ex.c ****     __HAL_DMA_CLEAR_FLAG (hdma, __HAL_DMA_GET_TE_FLAG_INDEX(hdma));
 991              		.loc 1 197 5 discriminator 102 view .LVU220
 992 053e 483A     		subs	r2, r2, #72
 993 0540 9342     		cmp	r3, r2
 994 0542 31D0     		beq	.L135
 197:Drivers/STM32F4xx_HAL_Driver/Src/stm32f4xx_hal_dma_ex.c ****     __HAL_DMA_CLEAR_FLAG (hdma, __HAL_DMA_GET_TE_FLAG_INDEX(hdma));
 995              		.loc 1 197 5 discriminator 104 view .LVU221
 996 0544 02F58062 		add	r2, r2, #1024
 997 0548 9342     		cmp	r3, r2
 998 054a 31D0     		beq	.L136
 197:Drivers/STM32F4xx_HAL_Driver/Src/stm32f4xx_hal_dma_ex.c ****     __HAL_DMA_CLEAR_FLAG (hdma, __HAL_DMA_GET_TE_FLAG_INDEX(hdma));
 999              		.loc 1 197 5 discriminator 106 view .LVU222
 1000 054c A2F56872 		sub	r2, r2, #928
 1001 0550 9342     		cmp	r3, r2
 1002 0552 2FD0     		beq	.L137
 197:Drivers/STM32F4xx_HAL_Driver/Src/stm32f4xx_hal_dma_ex.c ****     __HAL_DMA_CLEAR_FLAG (hdma, __HAL_DMA_GET_TE_FLAG_INDEX(hdma));
 1003              		.loc 1 197 5 discriminator 108 view .LVU223
 1004 0554 02F58062 		add	r2, r2, #1024
 1005 0558 9342     		cmp	r3, r2
 1006 055a 2DD0     		beq	.L138
 197:Drivers/STM32F4xx_HAL_Driver/Src/stm32f4xx_hal_dma_ex.c ****     __HAL_DMA_CLEAR_FLAG (hdma, __HAL_DMA_GET_TE_FLAG_INDEX(hdma));
 1007              		.loc 1 197 5 discriminator 110 view .LVU224
 1008 055c A2F58962 		sub	r2, r2, #1096
 1009 0560 9342     		cmp	r3, r2
 1010 0562 2BD0     		beq	.L139
 197:Drivers/STM32F4xx_HAL_Driver/Src/stm32f4xx_hal_dma_ex.c ****     __HAL_DMA_CLEAR_FLAG (hdma, __HAL_DMA_GET_TE_FLAG_INDEX(hdma));
 1011              		.loc 1 197 5 discriminator 112 view .LVU225
 1012 0564 02F58062 		add	r2, r2, #1024
 1013 0568 9342     		cmp	r3, r2
 1014 056a 2AD0     		beq	.L140
 197:Drivers/STM32F4xx_HAL_Driver/Src/stm32f4xx_hal_dma_ex.c ****     __HAL_DMA_CLEAR_FLAG (hdma, __HAL_DMA_GET_TE_FLAG_INDEX(hdma));
 1015              		.loc 1 197 5 discriminator 114 view .LVU226
 1016 056c A2F56872 		sub	r2, r2, #928
 1017 0570 9342     		cmp	r3, r2
 1018 0572 29D0     		beq	.L141
 197:Drivers/STM32F4xx_HAL_Driver/Src/stm32f4xx_hal_dma_ex.c ****     __HAL_DMA_CLEAR_FLAG (hdma, __HAL_DMA_GET_TE_FLAG_INDEX(hdma));
 1019              		.loc 1 197 5 discriminator 116 view .LVU227
 1020 0574 02F58062 		add	r2, r2, #1024
 1021 0578 9342     		cmp	r3, r2
 1022 057a 28D0     		beq	.L142
 197:Drivers/STM32F4xx_HAL_Driver/Src/stm32f4xx_hal_dma_ex.c ****     __HAL_DMA_CLEAR_FLAG (hdma, __HAL_DMA_GET_TE_FLAG_INDEX(hdma));
 1023              		.loc 1 197 5 discriminator 118 view .LVU228
 1024 057c A2F58962 		sub	r2, r2, #1096
 1025 0580 9342     		cmp	r3, r2
 1026 0582 27D0     		beq	.L143
 197:Drivers/STM32F4xx_HAL_Driver/Src/stm32f4xx_hal_dma_ex.c ****     __HAL_DMA_CLEAR_FLAG (hdma, __HAL_DMA_GET_TE_FLAG_INDEX(hdma));
 1027              		.loc 1 197 5 discriminator 120 view .LVU229
 1028 0584 02F58062 		add	r2, r2, #1024
 1029 0588 9342     		cmp	r3, r2
ARM GAS  C:\Users\12990\AppData\Local\Temp\cc1clWBF.s 			page 28


 1030 058a 26D0     		beq	.L144
 197:Drivers/STM32F4xx_HAL_Driver/Src/stm32f4xx_hal_dma_ex.c ****     __HAL_DMA_CLEAR_FLAG (hdma, __HAL_DMA_GET_TE_FLAG_INDEX(hdma));
 1031              		.loc 1 197 5 discriminator 122 view .LVU230
 1032 058c A2F56872 		sub	r2, r2, #928
 1033 0590 9342     		cmp	r3, r2
 1034 0592 31D0     		beq	.L145
 197:Drivers/STM32F4xx_HAL_Driver/Src/stm32f4xx_hal_dma_ex.c ****     __HAL_DMA_CLEAR_FLAG (hdma, __HAL_DMA_GET_TE_FLAG_INDEX(hdma));
 1035              		.loc 1 197 5 discriminator 124 view .LVU231
 1036 0594 02F58062 		add	r2, r2, #1024
 1037 0598 9342     		cmp	r3, r2
 1038 059a 02D0     		beq	.L313
 197:Drivers/STM32F4xx_HAL_Driver/Src/stm32f4xx_hal_dma_ex.c ****     __HAL_DMA_CLEAR_FLAG (hdma, __HAL_DMA_GET_TE_FLAG_INDEX(hdma));
 1039              		.loc 1 197 5 view .LVU232
 1040 059c 4FF08063 		mov	r3, #67108864
 1041 05a0 03E0     		b	.L34
 1042              	.L313:
 1043 05a2 4FF48013 		mov	r3, #1048576
 1044 05a6 00E0     		b	.L34
 1045              	.L135:
 1046 05a8 1023     		movs	r3, #16
 1047              	.L34:
 197:Drivers/STM32F4xx_HAL_Driver/Src/stm32f4xx_hal_dma_ex.c ****     __HAL_DMA_CLEAR_FLAG (hdma, __HAL_DMA_GET_TE_FLAG_INDEX(hdma));
 1048              		.loc 1 197 5 discriminator 151 view .LVU233
 1049 05aa 0E4A     		ldr	r2, .L329+4
 1050 05ac D360     		str	r3, [r2, #12]
 1051 05ae 0DE7     		b	.L30
 1052              	.L136:
 197:Drivers/STM32F4xx_HAL_Driver/Src/stm32f4xx_hal_dma_ex.c ****     __HAL_DMA_CLEAR_FLAG (hdma, __HAL_DMA_GET_TE_FLAG_INDEX(hdma));
 1053              		.loc 1 197 5 view .LVU234
 1054 05b0 1023     		movs	r3, #16
 1055 05b2 FAE7     		b	.L34
 1056              	.L137:
 1057 05b4 1023     		movs	r3, #16
 1058 05b6 F8E7     		b	.L34
 1059              	.L138:
 1060 05b8 1023     		movs	r3, #16
 1061 05ba F6E7     		b	.L34
 1062              	.L139:
 1063 05bc 4FF48063 		mov	r3, #1024
 1064 05c0 F3E7     		b	.L34
 1065              	.L140:
 1066 05c2 4FF48063 		mov	r3, #1024
 1067 05c6 F0E7     		b	.L34
 1068              	.L141:
 1069 05c8 4FF48063 		mov	r3, #1024
 1070 05cc EDE7     		b	.L34
 1071              	.L142:
 1072 05ce 4FF48063 		mov	r3, #1024
 1073 05d2 EAE7     		b	.L34
 1074              	.L143:
 1075 05d4 4FF48013 		mov	r3, #1048576
 1076 05d8 E7E7     		b	.L34
 1077              	.L144:
 1078 05da 4FF48013 		mov	r3, #1048576
 1079 05de E4E7     		b	.L34
 1080              	.L330:
 1081              		.align	2
ARM GAS  C:\Users\12990\AppData\Local\Temp\cc1clWBF.s 			page 29


 1082              	.L329:
 1083 05e0 10600240 		.word	1073897488
 1084 05e4 00600240 		.word	1073897472
 1085 05e8 00640240 		.word	1073898496
 1086 05ec 58640240 		.word	1073898584
 1087 05f0 B8600240 		.word	1073897656
 1088 05f4 58600240 		.word	1073897560
 1089              	.L145:
 1090 05f8 4FF48013 		mov	r3, #1048576
 1091 05fc D5E7     		b	.L34
 1092              	.L33:
 197:Drivers/STM32F4xx_HAL_Driver/Src/stm32f4xx_hal_dma_ex.c ****     __HAL_DMA_CLEAR_FLAG (hdma, __HAL_DMA_GET_TE_FLAG_INDEX(hdma));
 1093              		.loc 1 197 5 discriminator 103 view .LVU235
 1094 05fe B24A     		ldr	r2, .L331
 1095 0600 9342     		cmp	r3, r2
 1096 0602 31D0     		beq	.L147
 197:Drivers/STM32F4xx_HAL_Driver/Src/stm32f4xx_hal_dma_ex.c ****     __HAL_DMA_CLEAR_FLAG (hdma, __HAL_DMA_GET_TE_FLAG_INDEX(hdma));
 1097              		.loc 1 197 5 discriminator 153 view .LVU236
 1098 0604 02F58062 		add	r2, r2, #1024
 1099 0608 9342     		cmp	r3, r2
 1100 060a 31D0     		beq	.L148
 197:Drivers/STM32F4xx_HAL_Driver/Src/stm32f4xx_hal_dma_ex.c ****     __HAL_DMA_CLEAR_FLAG (hdma, __HAL_DMA_GET_TE_FLAG_INDEX(hdma));
 1101              		.loc 1 197 5 discriminator 155 view .LVU237
 1102 060c A2F56872 		sub	r2, r2, #928
 1103 0610 9342     		cmp	r3, r2
 1104 0612 2FD0     		beq	.L149
 197:Drivers/STM32F4xx_HAL_Driver/Src/stm32f4xx_hal_dma_ex.c ****     __HAL_DMA_CLEAR_FLAG (hdma, __HAL_DMA_GET_TE_FLAG_INDEX(hdma));
 1105              		.loc 1 197 5 discriminator 157 view .LVU238
 1106 0614 02F58062 		add	r2, r2, #1024
 1107 0618 9342     		cmp	r3, r2
 1108 061a 2DD0     		beq	.L150
 197:Drivers/STM32F4xx_HAL_Driver/Src/stm32f4xx_hal_dma_ex.c ****     __HAL_DMA_CLEAR_FLAG (hdma, __HAL_DMA_GET_TE_FLAG_INDEX(hdma));
 1109              		.loc 1 197 5 discriminator 159 view .LVU239
 1110 061c A2F58962 		sub	r2, r2, #1096
 1111 0620 9342     		cmp	r3, r2
 1112 0622 2BD0     		beq	.L151
 197:Drivers/STM32F4xx_HAL_Driver/Src/stm32f4xx_hal_dma_ex.c ****     __HAL_DMA_CLEAR_FLAG (hdma, __HAL_DMA_GET_TE_FLAG_INDEX(hdma));
 1113              		.loc 1 197 5 discriminator 161 view .LVU240
 1114 0624 02F58062 		add	r2, r2, #1024
 1115 0628 9342     		cmp	r3, r2
 1116 062a 2AD0     		beq	.L152
 197:Drivers/STM32F4xx_HAL_Driver/Src/stm32f4xx_hal_dma_ex.c ****     __HAL_DMA_CLEAR_FLAG (hdma, __HAL_DMA_GET_TE_FLAG_INDEX(hdma));
 1117              		.loc 1 197 5 discriminator 163 view .LVU241
 1118 062c A2F56872 		sub	r2, r2, #928
 1119 0630 9342     		cmp	r3, r2
 1120 0632 29D0     		beq	.L153
 197:Drivers/STM32F4xx_HAL_Driver/Src/stm32f4xx_hal_dma_ex.c ****     __HAL_DMA_CLEAR_FLAG (hdma, __HAL_DMA_GET_TE_FLAG_INDEX(hdma));
 1121              		.loc 1 197 5 discriminator 165 view .LVU242
 1122 0634 02F58062 		add	r2, r2, #1024
 1123 0638 9342     		cmp	r3, r2
 1124 063a 28D0     		beq	.L154
 197:Drivers/STM32F4xx_HAL_Driver/Src/stm32f4xx_hal_dma_ex.c ****     __HAL_DMA_CLEAR_FLAG (hdma, __HAL_DMA_GET_TE_FLAG_INDEX(hdma));
 1125              		.loc 1 197 5 discriminator 167 view .LVU243
 1126 063c A2F58962 		sub	r2, r2, #1096
 1127 0640 9342     		cmp	r3, r2
 1128 0642 27D0     		beq	.L155
 197:Drivers/STM32F4xx_HAL_Driver/Src/stm32f4xx_hal_dma_ex.c ****     __HAL_DMA_CLEAR_FLAG (hdma, __HAL_DMA_GET_TE_FLAG_INDEX(hdma));
ARM GAS  C:\Users\12990\AppData\Local\Temp\cc1clWBF.s 			page 30


 1129              		.loc 1 197 5 discriminator 169 view .LVU244
 1130 0644 02F58062 		add	r2, r2, #1024
 1131 0648 9342     		cmp	r3, r2
 1132 064a 26D0     		beq	.L156
 197:Drivers/STM32F4xx_HAL_Driver/Src/stm32f4xx_hal_dma_ex.c ****     __HAL_DMA_CLEAR_FLAG (hdma, __HAL_DMA_GET_TE_FLAG_INDEX(hdma));
 1133              		.loc 1 197 5 discriminator 171 view .LVU245
 1134 064c A2F56872 		sub	r2, r2, #928
 1135 0650 9342     		cmp	r3, r2
 1136 0652 25D0     		beq	.L157
 197:Drivers/STM32F4xx_HAL_Driver/Src/stm32f4xx_hal_dma_ex.c ****     __HAL_DMA_CLEAR_FLAG (hdma, __HAL_DMA_GET_TE_FLAG_INDEX(hdma));
 1137              		.loc 1 197 5 discriminator 173 view .LVU246
 1138 0654 02F58062 		add	r2, r2, #1024
 1139 0658 9342     		cmp	r3, r2
 1140 065a 02D0     		beq	.L314
 197:Drivers/STM32F4xx_HAL_Driver/Src/stm32f4xx_hal_dma_ex.c ****     __HAL_DMA_CLEAR_FLAG (hdma, __HAL_DMA_GET_TE_FLAG_INDEX(hdma));
 1141              		.loc 1 197 5 view .LVU247
 1142 065c 4FF08063 		mov	r3, #67108864
 1143 0660 03E0     		b	.L35
 1144              	.L314:
 1145 0662 4FF48013 		mov	r3, #1048576
 1146 0666 00E0     		b	.L35
 1147              	.L147:
 1148 0668 1023     		movs	r3, #16
 1149              	.L35:
 197:Drivers/STM32F4xx_HAL_Driver/Src/stm32f4xx_hal_dma_ex.c ****     __HAL_DMA_CLEAR_FLAG (hdma, __HAL_DMA_GET_TE_FLAG_INDEX(hdma));
 1150              		.loc 1 197 5 discriminator 200 view .LVU248
 1151 066a 984A     		ldr	r2, .L331+4
 1152 066c 9360     		str	r3, [r2, #8]
 1153 066e ADE6     		b	.L30
 1154              	.L148:
 197:Drivers/STM32F4xx_HAL_Driver/Src/stm32f4xx_hal_dma_ex.c ****     __HAL_DMA_CLEAR_FLAG (hdma, __HAL_DMA_GET_TE_FLAG_INDEX(hdma));
 1155              		.loc 1 197 5 view .LVU249
 1156 0670 1023     		movs	r3, #16
 1157 0672 FAE7     		b	.L35
 1158              	.L149:
 1159 0674 1023     		movs	r3, #16
 1160 0676 F8E7     		b	.L35
 1161              	.L150:
 1162 0678 1023     		movs	r3, #16
 1163 067a F6E7     		b	.L35
 1164              	.L151:
 1165 067c 4FF48063 		mov	r3, #1024
 1166 0680 F3E7     		b	.L35
 1167              	.L152:
 1168 0682 4FF48063 		mov	r3, #1024
 1169 0686 F0E7     		b	.L35
 1170              	.L153:
 1171 0688 4FF48063 		mov	r3, #1024
 1172 068c EDE7     		b	.L35
 1173              	.L154:
 1174 068e 4FF48063 		mov	r3, #1024
 1175 0692 EAE7     		b	.L35
 1176              	.L155:
 1177 0694 4FF48013 		mov	r3, #1048576
 1178 0698 E7E7     		b	.L35
 1179              	.L156:
 1180 069a 4FF48013 		mov	r3, #1048576
ARM GAS  C:\Users\12990\AppData\Local\Temp\cc1clWBF.s 			page 31


 1181 069e E4E7     		b	.L35
 1182              	.L157:
 1183 06a0 4FF48013 		mov	r3, #1048576
 1184 06a4 E1E7     		b	.L35
 1185              	.L311:
 198:Drivers/STM32F4xx_HAL_Driver/Src/stm32f4xx_hal_dma_ex.c ****     __HAL_DMA_CLEAR_FLAG (hdma, __HAL_DMA_GET_DME_FLAG_INDEX(hdma));
 1186              		.loc 1 198 5 view .LVU250
 1187 06a6 4FF40022 		mov	r2, #524288
 1188 06aa 00E0     		b	.L37
 1189              	.L159:
 1190 06ac 0822     		movs	r2, #8
 1191              	.L37:
 198:Drivers/STM32F4xx_HAL_Driver/Src/stm32f4xx_hal_dma_ex.c ****     __HAL_DMA_CLEAR_FLAG (hdma, __HAL_DMA_GET_DME_FLAG_INDEX(hdma));
 1192              		.loc 1 198 5 discriminator 50 view .LVU251
 1193 06ae 884B     		ldr	r3, .L331+8
 1194 06b0 DA60     		str	r2, [r3, #12]
 1195              	.L38:
 199:Drivers/STM32F4xx_HAL_Driver/Src/stm32f4xx_hal_dma_ex.c ****     __HAL_DMA_CLEAR_FLAG (hdma, __HAL_DMA_GET_FE_FLAG_INDEX(hdma));
 1196              		.loc 1 199 5 is_stmt 1 view .LVU252
 1197 06b2 2368     		ldr	r3, [r4]
 1198 06b4 874A     		ldr	r2, .L331+12
 1199 06b6 9342     		cmp	r3, r2
 1200 06b8 40F2CE81 		bls	.L44
 199:Drivers/STM32F4xx_HAL_Driver/Src/stm32f4xx_hal_dma_ex.c ****     __HAL_DMA_CLEAR_FLAG (hdma, __HAL_DMA_GET_FE_FLAG_INDEX(hdma));
 1201              		.loc 1 199 5 is_stmt 0 discriminator 1 view .LVU253
 1202 06bc A2F58962 		sub	r2, r2, #1096
 1203 06c0 9342     		cmp	r3, r2
 1204 06c2 00F06781 		beq	.L207
 199:Drivers/STM32F4xx_HAL_Driver/Src/stm32f4xx_hal_dma_ex.c ****     __HAL_DMA_CLEAR_FLAG (hdma, __HAL_DMA_GET_FE_FLAG_INDEX(hdma));
 1205              		.loc 1 199 5 discriminator 3 view .LVU254
 1206 06c6 02F58062 		add	r2, r2, #1024
 1207 06ca 9342     		cmp	r3, r2
 1208 06cc 00F0A981 		beq	.L208
 199:Drivers/STM32F4xx_HAL_Driver/Src/stm32f4xx_hal_dma_ex.c ****     __HAL_DMA_CLEAR_FLAG (hdma, __HAL_DMA_GET_FE_FLAG_INDEX(hdma));
 1209              		.loc 1 199 5 discriminator 5 view .LVU255
 1210 06d0 A2F56872 		sub	r2, r2, #928
 1211 06d4 9342     		cmp	r3, r2
 1212 06d6 00F0A681 		beq	.L209
 199:Drivers/STM32F4xx_HAL_Driver/Src/stm32f4xx_hal_dma_ex.c ****     __HAL_DMA_CLEAR_FLAG (hdma, __HAL_DMA_GET_FE_FLAG_INDEX(hdma));
 1213              		.loc 1 199 5 discriminator 7 view .LVU256
 1214 06da 02F58062 		add	r2, r2, #1024
 1215 06de 9342     		cmp	r3, r2
 1216 06e0 00F0A381 		beq	.L210
 199:Drivers/STM32F4xx_HAL_Driver/Src/stm32f4xx_hal_dma_ex.c ****     __HAL_DMA_CLEAR_FLAG (hdma, __HAL_DMA_GET_FE_FLAG_INDEX(hdma));
 1217              		.loc 1 199 5 discriminator 9 view .LVU257
 1218 06e4 A2F58962 		sub	r2, r2, #1096
 1219 06e8 9342     		cmp	r3, r2
 1220 06ea 00F0A081 		beq	.L211
 199:Drivers/STM32F4xx_HAL_Driver/Src/stm32f4xx_hal_dma_ex.c ****     __HAL_DMA_CLEAR_FLAG (hdma, __HAL_DMA_GET_FE_FLAG_INDEX(hdma));
 1221              		.loc 1 199 5 discriminator 11 view .LVU258
 1222 06ee 02F58062 		add	r2, r2, #1024
 1223 06f2 9342     		cmp	r3, r2
 1224 06f4 00F09E81 		beq	.L212
 199:Drivers/STM32F4xx_HAL_Driver/Src/stm32f4xx_hal_dma_ex.c ****     __HAL_DMA_CLEAR_FLAG (hdma, __HAL_DMA_GET_FE_FLAG_INDEX(hdma));
 1225              		.loc 1 199 5 discriminator 13 view .LVU259
 1226 06f8 A2F56872 		sub	r2, r2, #928
 1227 06fc 9342     		cmp	r3, r2
ARM GAS  C:\Users\12990\AppData\Local\Temp\cc1clWBF.s 			page 32


 1228 06fe 00F09C81 		beq	.L213
 199:Drivers/STM32F4xx_HAL_Driver/Src/stm32f4xx_hal_dma_ex.c ****     __HAL_DMA_CLEAR_FLAG (hdma, __HAL_DMA_GET_FE_FLAG_INDEX(hdma));
 1229              		.loc 1 199 5 discriminator 15 view .LVU260
 1230 0702 02F58062 		add	r2, r2, #1024
 1231 0706 9342     		cmp	r3, r2
 1232 0708 00F09A81 		beq	.L214
 199:Drivers/STM32F4xx_HAL_Driver/Src/stm32f4xx_hal_dma_ex.c ****     __HAL_DMA_CLEAR_FLAG (hdma, __HAL_DMA_GET_FE_FLAG_INDEX(hdma));
 1233              		.loc 1 199 5 discriminator 17 view .LVU261
 1234 070c A2F58962 		sub	r2, r2, #1096
 1235 0710 9342     		cmp	r3, r2
 1236 0712 00F09881 		beq	.L215
 199:Drivers/STM32F4xx_HAL_Driver/Src/stm32f4xx_hal_dma_ex.c ****     __HAL_DMA_CLEAR_FLAG (hdma, __HAL_DMA_GET_FE_FLAG_INDEX(hdma));
 1237              		.loc 1 199 5 discriminator 19 view .LVU262
 1238 0716 02F58062 		add	r2, r2, #1024
 1239 071a 9342     		cmp	r3, r2
 1240 071c 00F09681 		beq	.L216
 199:Drivers/STM32F4xx_HAL_Driver/Src/stm32f4xx_hal_dma_ex.c ****     __HAL_DMA_CLEAR_FLAG (hdma, __HAL_DMA_GET_FE_FLAG_INDEX(hdma));
 1241              		.loc 1 199 5 discriminator 21 view .LVU263
 1242 0720 A2F56872 		sub	r2, r2, #928
 1243 0724 9342     		cmp	r3, r2
 1244 0726 00F09481 		beq	.L217
 199:Drivers/STM32F4xx_HAL_Driver/Src/stm32f4xx_hal_dma_ex.c ****     __HAL_DMA_CLEAR_FLAG (hdma, __HAL_DMA_GET_FE_FLAG_INDEX(hdma));
 1245              		.loc 1 199 5 discriminator 23 view .LVU264
 1246 072a 02F58062 		add	r2, r2, #1024
 1247 072e 9342     		cmp	r3, r2
 1248 0730 00F02D81 		beq	.L315
 199:Drivers/STM32F4xx_HAL_Driver/Src/stm32f4xx_hal_dma_ex.c ****     __HAL_DMA_CLEAR_FLAG (hdma, __HAL_DMA_GET_FE_FLAG_INDEX(hdma));
 1249              		.loc 1 199 5 view .LVU265
 1250 0734 4FF08072 		mov	r2, #16777216
 1251 0738 2DE1     		b	.L45
 1252              	.L160:
 198:Drivers/STM32F4xx_HAL_Driver/Src/stm32f4xx_hal_dma_ex.c ****     __HAL_DMA_CLEAR_FLAG (hdma, __HAL_DMA_GET_DME_FLAG_INDEX(hdma));
 1253              		.loc 1 198 5 view .LVU266
 1254 073a 0822     		movs	r2, #8
 1255 073c B7E7     		b	.L37
 1256              	.L161:
 1257 073e 0822     		movs	r2, #8
 1258 0740 B5E7     		b	.L37
 1259              	.L162:
 1260 0742 0822     		movs	r2, #8
 1261 0744 B3E7     		b	.L37
 1262              	.L163:
 1263 0746 4FF40072 		mov	r2, #512
 1264 074a B0E7     		b	.L37
 1265              	.L164:
 1266 074c 4FF40072 		mov	r2, #512
 1267 0750 ADE7     		b	.L37
 1268              	.L165:
 1269 0752 4FF40072 		mov	r2, #512
 1270 0756 AAE7     		b	.L37
 1271              	.L166:
 1272 0758 4FF40072 		mov	r2, #512
 1273 075c A7E7     		b	.L37
 1274              	.L167:
 1275 075e 4FF40022 		mov	r2, #524288
 1276 0762 A4E7     		b	.L37
 1277              	.L168:
ARM GAS  C:\Users\12990\AppData\Local\Temp\cc1clWBF.s 			page 33


 1278 0764 4FF40022 		mov	r2, #524288
 1279 0768 A1E7     		b	.L37
 1280              	.L169:
 1281 076a 4FF40022 		mov	r2, #524288
 1282 076e 9EE7     		b	.L37
 1283              	.L36:
 198:Drivers/STM32F4xx_HAL_Driver/Src/stm32f4xx_hal_dma_ex.c ****     __HAL_DMA_CLEAR_FLAG (hdma, __HAL_DMA_GET_DME_FLAG_INDEX(hdma));
 1284              		.loc 1 198 5 discriminator 2 view .LVU267
 1285 0770 594A     		ldr	r2, .L331+16
 1286 0772 9342     		cmp	r3, r2
 1287 0774 53D9     		bls	.L39
 198:Drivers/STM32F4xx_HAL_Driver/Src/stm32f4xx_hal_dma_ex.c ****     __HAL_DMA_CLEAR_FLAG (hdma, __HAL_DMA_GET_DME_FLAG_INDEX(hdma));
 1288              		.loc 1 198 5 discriminator 51 view .LVU268
 1289 0776 A83A     		subs	r2, r2, #168
 1290 0778 9342     		cmp	r3, r2
 1291 077a 31D0     		beq	.L171
 198:Drivers/STM32F4xx_HAL_Driver/Src/stm32f4xx_hal_dma_ex.c ****     __HAL_DMA_CLEAR_FLAG (hdma, __HAL_DMA_GET_DME_FLAG_INDEX(hdma));
 1292              		.loc 1 198 5 discriminator 53 view .LVU269
 1293 077c 02F58062 		add	r2, r2, #1024
 1294 0780 9342     		cmp	r3, r2
 1295 0782 31D0     		beq	.L172
 198:Drivers/STM32F4xx_HAL_Driver/Src/stm32f4xx_hal_dma_ex.c ****     __HAL_DMA_CLEAR_FLAG (hdma, __HAL_DMA_GET_DME_FLAG_INDEX(hdma));
 1296              		.loc 1 198 5 discriminator 55 view .LVU270
 1297 0784 A2F56872 		sub	r2, r2, #928
 1298 0788 9342     		cmp	r3, r2
 1299 078a 2FD0     		beq	.L173
 198:Drivers/STM32F4xx_HAL_Driver/Src/stm32f4xx_hal_dma_ex.c ****     __HAL_DMA_CLEAR_FLAG (hdma, __HAL_DMA_GET_DME_FLAG_INDEX(hdma));
 1300              		.loc 1 198 5 discriminator 57 view .LVU271
 1301 078c 02F58062 		add	r2, r2, #1024
 1302 0790 9342     		cmp	r3, r2
 1303 0792 2DD0     		beq	.L174
 198:Drivers/STM32F4xx_HAL_Driver/Src/stm32f4xx_hal_dma_ex.c ****     __HAL_DMA_CLEAR_FLAG (hdma, __HAL_DMA_GET_DME_FLAG_INDEX(hdma));
 1304              		.loc 1 198 5 discriminator 59 view .LVU272
 1305 0794 A2F58962 		sub	r2, r2, #1096
 1306 0798 9342     		cmp	r3, r2
 1307 079a 2BD0     		beq	.L175
 198:Drivers/STM32F4xx_HAL_Driver/Src/stm32f4xx_hal_dma_ex.c ****     __HAL_DMA_CLEAR_FLAG (hdma, __HAL_DMA_GET_DME_FLAG_INDEX(hdma));
 1308              		.loc 1 198 5 discriminator 61 view .LVU273
 1309 079c 02F58062 		add	r2, r2, #1024
 1310 07a0 9342     		cmp	r3, r2
 1311 07a2 2AD0     		beq	.L176
 198:Drivers/STM32F4xx_HAL_Driver/Src/stm32f4xx_hal_dma_ex.c ****     __HAL_DMA_CLEAR_FLAG (hdma, __HAL_DMA_GET_DME_FLAG_INDEX(hdma));
 1312              		.loc 1 198 5 discriminator 63 view .LVU274
 1313 07a4 A2F56872 		sub	r2, r2, #928
 1314 07a8 9342     		cmp	r3, r2
 1315 07aa 29D0     		beq	.L177
 198:Drivers/STM32F4xx_HAL_Driver/Src/stm32f4xx_hal_dma_ex.c ****     __HAL_DMA_CLEAR_FLAG (hdma, __HAL_DMA_GET_DME_FLAG_INDEX(hdma));
 1316              		.loc 1 198 5 discriminator 65 view .LVU275
 1317 07ac 02F58062 		add	r2, r2, #1024
 1318 07b0 9342     		cmp	r3, r2
 1319 07b2 28D0     		beq	.L178
 198:Drivers/STM32F4xx_HAL_Driver/Src/stm32f4xx_hal_dma_ex.c ****     __HAL_DMA_CLEAR_FLAG (hdma, __HAL_DMA_GET_DME_FLAG_INDEX(hdma));
 1320              		.loc 1 198 5 discriminator 67 view .LVU276
 1321 07b4 A2F58962 		sub	r2, r2, #1096
 1322 07b8 9342     		cmp	r3, r2
 1323 07ba 27D0     		beq	.L179
 198:Drivers/STM32F4xx_HAL_Driver/Src/stm32f4xx_hal_dma_ex.c ****     __HAL_DMA_CLEAR_FLAG (hdma, __HAL_DMA_GET_DME_FLAG_INDEX(hdma));
ARM GAS  C:\Users\12990\AppData\Local\Temp\cc1clWBF.s 			page 34


 1324              		.loc 1 198 5 discriminator 69 view .LVU277
 1325 07bc 02F58062 		add	r2, r2, #1024
 1326 07c0 9342     		cmp	r3, r2
 1327 07c2 26D0     		beq	.L180
 198:Drivers/STM32F4xx_HAL_Driver/Src/stm32f4xx_hal_dma_ex.c ****     __HAL_DMA_CLEAR_FLAG (hdma, __HAL_DMA_GET_DME_FLAG_INDEX(hdma));
 1328              		.loc 1 198 5 discriminator 71 view .LVU278
 1329 07c4 A2F56872 		sub	r2, r2, #928
 1330 07c8 9342     		cmp	r3, r2
 1331 07ca 25D0     		beq	.L181
 198:Drivers/STM32F4xx_HAL_Driver/Src/stm32f4xx_hal_dma_ex.c ****     __HAL_DMA_CLEAR_FLAG (hdma, __HAL_DMA_GET_DME_FLAG_INDEX(hdma));
 1332              		.loc 1 198 5 discriminator 73 view .LVU279
 1333 07cc 02F58062 		add	r2, r2, #1024
 1334 07d0 9342     		cmp	r3, r2
 1335 07d2 02D0     		beq	.L316
 198:Drivers/STM32F4xx_HAL_Driver/Src/stm32f4xx_hal_dma_ex.c ****     __HAL_DMA_CLEAR_FLAG (hdma, __HAL_DMA_GET_DME_FLAG_INDEX(hdma));
 1336              		.loc 1 198 5 view .LVU280
 1337 07d4 4FF00073 		mov	r3, #33554432
 1338 07d8 03E0     		b	.L40
 1339              	.L316:
 1340 07da 4FF40023 		mov	r3, #524288
 1341 07de 00E0     		b	.L40
 1342              	.L171:
 1343 07e0 0823     		movs	r3, #8
 1344              	.L40:
 198:Drivers/STM32F4xx_HAL_Driver/Src/stm32f4xx_hal_dma_ex.c ****     __HAL_DMA_CLEAR_FLAG (hdma, __HAL_DMA_GET_DME_FLAG_INDEX(hdma));
 1345              		.loc 1 198 5 discriminator 100 view .LVU281
 1346 07e2 3B4A     		ldr	r2, .L331+8
 1347 07e4 9360     		str	r3, [r2, #8]
 1348 07e6 64E7     		b	.L38
 1349              	.L172:
 198:Drivers/STM32F4xx_HAL_Driver/Src/stm32f4xx_hal_dma_ex.c ****     __HAL_DMA_CLEAR_FLAG (hdma, __HAL_DMA_GET_DME_FLAG_INDEX(hdma));
 1350              		.loc 1 198 5 view .LVU282
 1351 07e8 0823     		movs	r3, #8
 1352 07ea FAE7     		b	.L40
 1353              	.L173:
 1354 07ec 0823     		movs	r3, #8
 1355 07ee F8E7     		b	.L40
 1356              	.L174:
 1357 07f0 0823     		movs	r3, #8
 1358 07f2 F6E7     		b	.L40
 1359              	.L175:
 1360 07f4 4FF40073 		mov	r3, #512
 1361 07f8 F3E7     		b	.L40
 1362              	.L176:
 1363 07fa 4FF40073 		mov	r3, #512
 1364 07fe F0E7     		b	.L40
 1365              	.L177:
 1366 0800 4FF40073 		mov	r3, #512
 1367 0804 EDE7     		b	.L40
 1368              	.L178:
 1369 0806 4FF40073 		mov	r3, #512
 1370 080a EAE7     		b	.L40
 1371              	.L179:
 1372 080c 4FF40023 		mov	r3, #524288
 1373 0810 E7E7     		b	.L40
 1374              	.L180:
 1375 0812 4FF40023 		mov	r3, #524288
ARM GAS  C:\Users\12990\AppData\Local\Temp\cc1clWBF.s 			page 35


 1376 0816 E4E7     		b	.L40
 1377              	.L181:
 1378 0818 4FF40023 		mov	r3, #524288
 1379 081c E1E7     		b	.L40
 1380              	.L39:
 198:Drivers/STM32F4xx_HAL_Driver/Src/stm32f4xx_hal_dma_ex.c ****     __HAL_DMA_CLEAR_FLAG (hdma, __HAL_DMA_GET_DME_FLAG_INDEX(hdma));
 1381              		.loc 1 198 5 discriminator 52 view .LVU283
 1382 081e 2F4A     		ldr	r2, .L331+20
 1383 0820 9342     		cmp	r3, r2
 1384 0822 60D9     		bls	.L41
 198:Drivers/STM32F4xx_HAL_Driver/Src/stm32f4xx_hal_dma_ex.c ****     __HAL_DMA_CLEAR_FLAG (hdma, __HAL_DMA_GET_DME_FLAG_INDEX(hdma));
 1385              		.loc 1 198 5 discriminator 102 view .LVU284
 1386 0824 483A     		subs	r2, r2, #72
 1387 0826 9342     		cmp	r3, r2
 1388 0828 31D0     		beq	.L183
 198:Drivers/STM32F4xx_HAL_Driver/Src/stm32f4xx_hal_dma_ex.c ****     __HAL_DMA_CLEAR_FLAG (hdma, __HAL_DMA_GET_DME_FLAG_INDEX(hdma));
 1389              		.loc 1 198 5 discriminator 104 view .LVU285
 1390 082a 02F58062 		add	r2, r2, #1024
 1391 082e 9342     		cmp	r3, r2
 1392 0830 31D0     		beq	.L184
 198:Drivers/STM32F4xx_HAL_Driver/Src/stm32f4xx_hal_dma_ex.c ****     __HAL_DMA_CLEAR_FLAG (hdma, __HAL_DMA_GET_DME_FLAG_INDEX(hdma));
 1393              		.loc 1 198 5 discriminator 106 view .LVU286
 1394 0832 A2F56872 		sub	r2, r2, #928
 1395 0836 9342     		cmp	r3, r2
 1396 0838 2FD0     		beq	.L185
 198:Drivers/STM32F4xx_HAL_Driver/Src/stm32f4xx_hal_dma_ex.c ****     __HAL_DMA_CLEAR_FLAG (hdma, __HAL_DMA_GET_DME_FLAG_INDEX(hdma));
 1397              		.loc 1 198 5 discriminator 108 view .LVU287
 1398 083a 02F58062 		add	r2, r2, #1024
 1399 083e 9342     		cmp	r3, r2
 1400 0840 2DD0     		beq	.L186
 198:Drivers/STM32F4xx_HAL_Driver/Src/stm32f4xx_hal_dma_ex.c ****     __HAL_DMA_CLEAR_FLAG (hdma, __HAL_DMA_GET_DME_FLAG_INDEX(hdma));
 1401              		.loc 1 198 5 discriminator 110 view .LVU288
 1402 0842 A2F58962 		sub	r2, r2, #1096
 1403 0846 9342     		cmp	r3, r2
 1404 0848 2BD0     		beq	.L187
 198:Drivers/STM32F4xx_HAL_Driver/Src/stm32f4xx_hal_dma_ex.c ****     __HAL_DMA_CLEAR_FLAG (hdma, __HAL_DMA_GET_DME_FLAG_INDEX(hdma));
 1405              		.loc 1 198 5 discriminator 112 view .LVU289
 1406 084a 02F58062 		add	r2, r2, #1024
 1407 084e 9342     		cmp	r3, r2
 1408 0850 2AD0     		beq	.L188
 198:Drivers/STM32F4xx_HAL_Driver/Src/stm32f4xx_hal_dma_ex.c ****     __HAL_DMA_CLEAR_FLAG (hdma, __HAL_DMA_GET_DME_FLAG_INDEX(hdma));
 1409              		.loc 1 198 5 discriminator 114 view .LVU290
 1410 0852 A2F56872 		sub	r2, r2, #928
 1411 0856 9342     		cmp	r3, r2
 1412 0858 29D0     		beq	.L189
 198:Drivers/STM32F4xx_HAL_Driver/Src/stm32f4xx_hal_dma_ex.c ****     __HAL_DMA_CLEAR_FLAG (hdma, __HAL_DMA_GET_DME_FLAG_INDEX(hdma));
 1413              		.loc 1 198 5 discriminator 116 view .LVU291
 1414 085a 02F58062 		add	r2, r2, #1024
 1415 085e 9342     		cmp	r3, r2
 1416 0860 28D0     		beq	.L190
 198:Drivers/STM32F4xx_HAL_Driver/Src/stm32f4xx_hal_dma_ex.c ****     __HAL_DMA_CLEAR_FLAG (hdma, __HAL_DMA_GET_DME_FLAG_INDEX(hdma));
 1417              		.loc 1 198 5 discriminator 118 view .LVU292
 1418 0862 A2F58962 		sub	r2, r2, #1096
 1419 0866 9342     		cmp	r3, r2
 1420 0868 27D0     		beq	.L191
 198:Drivers/STM32F4xx_HAL_Driver/Src/stm32f4xx_hal_dma_ex.c ****     __HAL_DMA_CLEAR_FLAG (hdma, __HAL_DMA_GET_DME_FLAG_INDEX(hdma));
 1421              		.loc 1 198 5 discriminator 120 view .LVU293
ARM GAS  C:\Users\12990\AppData\Local\Temp\cc1clWBF.s 			page 36


 1422 086a 02F58062 		add	r2, r2, #1024
 1423 086e 9342     		cmp	r3, r2
 1424 0870 26D0     		beq	.L192
 198:Drivers/STM32F4xx_HAL_Driver/Src/stm32f4xx_hal_dma_ex.c ****     __HAL_DMA_CLEAR_FLAG (hdma, __HAL_DMA_GET_DME_FLAG_INDEX(hdma));
 1425              		.loc 1 198 5 discriminator 122 view .LVU294
 1426 0872 A2F56872 		sub	r2, r2, #928
 1427 0876 9342     		cmp	r3, r2
 1428 0878 32D0     		beq	.L193
 198:Drivers/STM32F4xx_HAL_Driver/Src/stm32f4xx_hal_dma_ex.c ****     __HAL_DMA_CLEAR_FLAG (hdma, __HAL_DMA_GET_DME_FLAG_INDEX(hdma));
 1429              		.loc 1 198 5 discriminator 124 view .LVU295
 1430 087a 02F58062 		add	r2, r2, #1024
 1431 087e 9342     		cmp	r3, r2
 1432 0880 02D0     		beq	.L317
 198:Drivers/STM32F4xx_HAL_Driver/Src/stm32f4xx_hal_dma_ex.c ****     __HAL_DMA_CLEAR_FLAG (hdma, __HAL_DMA_GET_DME_FLAG_INDEX(hdma));
 1433              		.loc 1 198 5 view .LVU296
 1434 0882 4FF00073 		mov	r3, #33554432
 1435 0886 03E0     		b	.L42
 1436              	.L317:
 1437 0888 4FF40023 		mov	r3, #524288
 1438 088c 00E0     		b	.L42
 1439              	.L183:
 1440 088e 0823     		movs	r3, #8
 1441              	.L42:
 198:Drivers/STM32F4xx_HAL_Driver/Src/stm32f4xx_hal_dma_ex.c ****     __HAL_DMA_CLEAR_FLAG (hdma, __HAL_DMA_GET_DME_FLAG_INDEX(hdma));
 1442              		.loc 1 198 5 discriminator 151 view .LVU297
 1443 0890 0E4A     		ldr	r2, .L331+4
 1444 0892 D360     		str	r3, [r2, #12]
 1445 0894 0DE7     		b	.L38
 1446              	.L184:
 198:Drivers/STM32F4xx_HAL_Driver/Src/stm32f4xx_hal_dma_ex.c ****     __HAL_DMA_CLEAR_FLAG (hdma, __HAL_DMA_GET_DME_FLAG_INDEX(hdma));
 1447              		.loc 1 198 5 view .LVU298
 1448 0896 0823     		movs	r3, #8
 1449 0898 FAE7     		b	.L42
 1450              	.L185:
 1451 089a 0823     		movs	r3, #8
 1452 089c F8E7     		b	.L42
 1453              	.L186:
 1454 089e 0823     		movs	r3, #8
 1455 08a0 F6E7     		b	.L42
 1456              	.L187:
 1457 08a2 4FF40073 		mov	r3, #512
 1458 08a6 F3E7     		b	.L42
 1459              	.L188:
 1460 08a8 4FF40073 		mov	r3, #512
 1461 08ac F0E7     		b	.L42
 1462              	.L189:
 1463 08ae 4FF40073 		mov	r3, #512
 1464 08b2 EDE7     		b	.L42
 1465              	.L190:
 1466 08b4 4FF40073 		mov	r3, #512
 1467 08b8 EAE7     		b	.L42
 1468              	.L191:
 1469 08ba 4FF40023 		mov	r3, #524288
 1470 08be E7E7     		b	.L42
 1471              	.L192:
 1472 08c0 4FF40023 		mov	r3, #524288
 1473 08c4 E4E7     		b	.L42
ARM GAS  C:\Users\12990\AppData\Local\Temp\cc1clWBF.s 			page 37


 1474              	.L332:
 1475 08c6 00BF     		.align	2
 1476              	.L331:
 1477 08c8 10600240 		.word	1073897488
 1478 08cc 00600240 		.word	1073897472
 1479 08d0 00640240 		.word	1073898496
 1480 08d4 58640240 		.word	1073898584
 1481 08d8 B8600240 		.word	1073897656
 1482 08dc 58600240 		.word	1073897560
 1483              	.L193:
 1484 08e0 4FF40023 		mov	r3, #524288
 1485 08e4 D4E7     		b	.L42
 1486              	.L41:
 198:Drivers/STM32F4xx_HAL_Driver/Src/stm32f4xx_hal_dma_ex.c ****     __HAL_DMA_CLEAR_FLAG (hdma, __HAL_DMA_GET_DME_FLAG_INDEX(hdma));
 1487              		.loc 1 198 5 discriminator 103 view .LVU299
 1488 08e6 B24A     		ldr	r2, .L333
 1489 08e8 9342     		cmp	r3, r2
 1490 08ea 31D0     		beq	.L195
 198:Drivers/STM32F4xx_HAL_Driver/Src/stm32f4xx_hal_dma_ex.c ****     __HAL_DMA_CLEAR_FLAG (hdma, __HAL_DMA_GET_DME_FLAG_INDEX(hdma));
 1491              		.loc 1 198 5 discriminator 153 view .LVU300
 1492 08ec 02F58062 		add	r2, r2, #1024
 1493 08f0 9342     		cmp	r3, r2
 1494 08f2 31D0     		beq	.L196
 198:Drivers/STM32F4xx_HAL_Driver/Src/stm32f4xx_hal_dma_ex.c ****     __HAL_DMA_CLEAR_FLAG (hdma, __HAL_DMA_GET_DME_FLAG_INDEX(hdma));
 1495              		.loc 1 198 5 discriminator 155 view .LVU301
 1496 08f4 A2F56872 		sub	r2, r2, #928
 1497 08f8 9342     		cmp	r3, r2
 1498 08fa 2FD0     		beq	.L197
 198:Drivers/STM32F4xx_HAL_Driver/Src/stm32f4xx_hal_dma_ex.c ****     __HAL_DMA_CLEAR_FLAG (hdma, __HAL_DMA_GET_DME_FLAG_INDEX(hdma));
 1499              		.loc 1 198 5 discriminator 157 view .LVU302
 1500 08fc 02F58062 		add	r2, r2, #1024
 1501 0900 9342     		cmp	r3, r2
 1502 0902 2DD0     		beq	.L198
 198:Drivers/STM32F4xx_HAL_Driver/Src/stm32f4xx_hal_dma_ex.c ****     __HAL_DMA_CLEAR_FLAG (hdma, __HAL_DMA_GET_DME_FLAG_INDEX(hdma));
 1503              		.loc 1 198 5 discriminator 159 view .LVU303
 1504 0904 A2F58962 		sub	r2, r2, #1096
 1505 0908 9342     		cmp	r3, r2
 1506 090a 2BD0     		beq	.L199
 198:Drivers/STM32F4xx_HAL_Driver/Src/stm32f4xx_hal_dma_ex.c ****     __HAL_DMA_CLEAR_FLAG (hdma, __HAL_DMA_GET_DME_FLAG_INDEX(hdma));
 1507              		.loc 1 198 5 discriminator 161 view .LVU304
 1508 090c 02F58062 		add	r2, r2, #1024
 1509 0910 9342     		cmp	r3, r2
 1510 0912 2AD0     		beq	.L200
 198:Drivers/STM32F4xx_HAL_Driver/Src/stm32f4xx_hal_dma_ex.c ****     __HAL_DMA_CLEAR_FLAG (hdma, __HAL_DMA_GET_DME_FLAG_INDEX(hdma));
 1511              		.loc 1 198 5 discriminator 163 view .LVU305
 1512 0914 A2F56872 		sub	r2, r2, #928
 1513 0918 9342     		cmp	r3, r2
 1514 091a 29D0     		beq	.L201
 198:Drivers/STM32F4xx_HAL_Driver/Src/stm32f4xx_hal_dma_ex.c ****     __HAL_DMA_CLEAR_FLAG (hdma, __HAL_DMA_GET_DME_FLAG_INDEX(hdma));
 1515              		.loc 1 198 5 discriminator 165 view .LVU306
 1516 091c 02F58062 		add	r2, r2, #1024
 1517 0920 9342     		cmp	r3, r2
 1518 0922 28D0     		beq	.L202
 198:Drivers/STM32F4xx_HAL_Driver/Src/stm32f4xx_hal_dma_ex.c ****     __HAL_DMA_CLEAR_FLAG (hdma, __HAL_DMA_GET_DME_FLAG_INDEX(hdma));
 1519              		.loc 1 198 5 discriminator 167 view .LVU307
 1520 0924 A2F58962 		sub	r2, r2, #1096
 1521 0928 9342     		cmp	r3, r2
ARM GAS  C:\Users\12990\AppData\Local\Temp\cc1clWBF.s 			page 38


 1522 092a 27D0     		beq	.L203
 198:Drivers/STM32F4xx_HAL_Driver/Src/stm32f4xx_hal_dma_ex.c ****     __HAL_DMA_CLEAR_FLAG (hdma, __HAL_DMA_GET_DME_FLAG_INDEX(hdma));
 1523              		.loc 1 198 5 discriminator 169 view .LVU308
 1524 092c 02F58062 		add	r2, r2, #1024
 1525 0930 9342     		cmp	r3, r2
 1526 0932 26D0     		beq	.L204
 198:Drivers/STM32F4xx_HAL_Driver/Src/stm32f4xx_hal_dma_ex.c ****     __HAL_DMA_CLEAR_FLAG (hdma, __HAL_DMA_GET_DME_FLAG_INDEX(hdma));
 1527              		.loc 1 198 5 discriminator 171 view .LVU309
 1528 0934 A2F56872 		sub	r2, r2, #928
 1529 0938 9342     		cmp	r3, r2
 1530 093a 25D0     		beq	.L205
 198:Drivers/STM32F4xx_HAL_Driver/Src/stm32f4xx_hal_dma_ex.c ****     __HAL_DMA_CLEAR_FLAG (hdma, __HAL_DMA_GET_DME_FLAG_INDEX(hdma));
 1531              		.loc 1 198 5 discriminator 173 view .LVU310
 1532 093c 02F58062 		add	r2, r2, #1024
 1533 0940 9342     		cmp	r3, r2
 1534 0942 02D0     		beq	.L318
 198:Drivers/STM32F4xx_HAL_Driver/Src/stm32f4xx_hal_dma_ex.c ****     __HAL_DMA_CLEAR_FLAG (hdma, __HAL_DMA_GET_DME_FLAG_INDEX(hdma));
 1535              		.loc 1 198 5 view .LVU311
 1536 0944 4FF00073 		mov	r3, #33554432
 1537 0948 03E0     		b	.L43
 1538              	.L318:
 1539 094a 4FF40023 		mov	r3, #524288
 1540 094e 00E0     		b	.L43
 1541              	.L195:
 1542 0950 0823     		movs	r3, #8
 1543              	.L43:
 198:Drivers/STM32F4xx_HAL_Driver/Src/stm32f4xx_hal_dma_ex.c ****     __HAL_DMA_CLEAR_FLAG (hdma, __HAL_DMA_GET_DME_FLAG_INDEX(hdma));
 1544              		.loc 1 198 5 discriminator 200 view .LVU312
 1545 0952 984A     		ldr	r2, .L333+4
 1546 0954 9360     		str	r3, [r2, #8]
 1547 0956 ACE6     		b	.L38
 1548              	.L196:
 198:Drivers/STM32F4xx_HAL_Driver/Src/stm32f4xx_hal_dma_ex.c ****     __HAL_DMA_CLEAR_FLAG (hdma, __HAL_DMA_GET_DME_FLAG_INDEX(hdma));
 1549              		.loc 1 198 5 view .LVU313
 1550 0958 0823     		movs	r3, #8
 1551 095a FAE7     		b	.L43
 1552              	.L197:
 1553 095c 0823     		movs	r3, #8
 1554 095e F8E7     		b	.L43
 1555              	.L198:
 1556 0960 0823     		movs	r3, #8
 1557 0962 F6E7     		b	.L43
 1558              	.L199:
 1559 0964 4FF40073 		mov	r3, #512
 1560 0968 F3E7     		b	.L43
 1561              	.L200:
 1562 096a 4FF40073 		mov	r3, #512
 1563 096e F0E7     		b	.L43
 1564              	.L201:
 1565 0970 4FF40073 		mov	r3, #512
 1566 0974 EDE7     		b	.L43
 1567              	.L202:
 1568 0976 4FF40073 		mov	r3, #512
 1569 097a EAE7     		b	.L43
 1570              	.L203:
 1571 097c 4FF40023 		mov	r3, #524288
 1572 0980 E7E7     		b	.L43
ARM GAS  C:\Users\12990\AppData\Local\Temp\cc1clWBF.s 			page 39


 1573              	.L204:
 1574 0982 4FF40023 		mov	r3, #524288
 1575 0986 E4E7     		b	.L43
 1576              	.L205:
 1577 0988 4FF40023 		mov	r3, #524288
 1578 098c E1E7     		b	.L43
 1579              	.L315:
 199:Drivers/STM32F4xx_HAL_Driver/Src/stm32f4xx_hal_dma_ex.c ****     __HAL_DMA_CLEAR_FLAG (hdma, __HAL_DMA_GET_FE_FLAG_INDEX(hdma));
 1580              		.loc 1 199 5 view .LVU314
 1581 098e 4FF48022 		mov	r2, #262144
 1582 0992 00E0     		b	.L45
 1583              	.L207:
 1584 0994 0422     		movs	r2, #4
 1585              	.L45:
 199:Drivers/STM32F4xx_HAL_Driver/Src/stm32f4xx_hal_dma_ex.c ****     __HAL_DMA_CLEAR_FLAG (hdma, __HAL_DMA_GET_FE_FLAG_INDEX(hdma));
 1586              		.loc 1 199 5 discriminator 50 view .LVU315
 1587 0996 884B     		ldr	r3, .L333+8
 1588 0998 DA60     		str	r2, [r3, #12]
 1589              	.L46:
 200:Drivers/STM32F4xx_HAL_Driver/Src/stm32f4xx_hal_dma_ex.c **** 
 1590              		.loc 1 200 5 is_stmt 1 view .LVU316
 1591 099a 2368     		ldr	r3, [r4]
 1592 099c 874A     		ldr	r2, .L333+12
 1593 099e 9342     		cmp	r3, r2
 1594 09a0 40F2A181 		bls	.L52
 200:Drivers/STM32F4xx_HAL_Driver/Src/stm32f4xx_hal_dma_ex.c **** 
 1595              		.loc 1 200 5 is_stmt 0 discriminator 1 view .LVU317
 1596 09a4 A2F58962 		sub	r2, r2, #1096
 1597 09a8 9342     		cmp	r3, r2
 1598 09aa 00F06781 		beq	.L255
 200:Drivers/STM32F4xx_HAL_Driver/Src/stm32f4xx_hal_dma_ex.c **** 
 1599              		.loc 1 200 5 discriminator 3 view .LVU318
 1600 09ae 02F58062 		add	r2, r2, #1024
 1601 09b2 9342     		cmp	r3, r2
 1602 09b4 00F08081 		beq	.L256
 200:Drivers/STM32F4xx_HAL_Driver/Src/stm32f4xx_hal_dma_ex.c **** 
 1603              		.loc 1 200 5 discriminator 5 view .LVU319
 1604 09b8 A2F56872 		sub	r2, r2, #928
 1605 09bc 9342     		cmp	r3, r2
 1606 09be 00F07D81 		beq	.L257
 200:Drivers/STM32F4xx_HAL_Driver/Src/stm32f4xx_hal_dma_ex.c **** 
 1607              		.loc 1 200 5 discriminator 7 view .LVU320
 1608 09c2 02F58062 		add	r2, r2, #1024
 1609 09c6 9342     		cmp	r3, r2
 1610 09c8 00F07A81 		beq	.L258
 200:Drivers/STM32F4xx_HAL_Driver/Src/stm32f4xx_hal_dma_ex.c **** 
 1611              		.loc 1 200 5 discriminator 9 view .LVU321
 1612 09cc A2F58962 		sub	r2, r2, #1096
 1613 09d0 9342     		cmp	r3, r2
 1614 09d2 00F07781 		beq	.L259
 200:Drivers/STM32F4xx_HAL_Driver/Src/stm32f4xx_hal_dma_ex.c **** 
 1615              		.loc 1 200 5 discriminator 11 view .LVU322
 1616 09d6 02F58062 		add	r2, r2, #1024
 1617 09da 9342     		cmp	r3, r2
 1618 09dc 00F07481 		beq	.L260
 200:Drivers/STM32F4xx_HAL_Driver/Src/stm32f4xx_hal_dma_ex.c **** 
 1619              		.loc 1 200 5 discriminator 13 view .LVU323
ARM GAS  C:\Users\12990\AppData\Local\Temp\cc1clWBF.s 			page 40


 1620 09e0 A2F56872 		sub	r2, r2, #928
 1621 09e4 9342     		cmp	r3, r2
 1622 09e6 00F07181 		beq	.L261
 200:Drivers/STM32F4xx_HAL_Driver/Src/stm32f4xx_hal_dma_ex.c **** 
 1623              		.loc 1 200 5 discriminator 15 view .LVU324
 1624 09ea 02F58062 		add	r2, r2, #1024
 1625 09ee 9342     		cmp	r3, r2
 1626 09f0 00F06E81 		beq	.L262
 200:Drivers/STM32F4xx_HAL_Driver/Src/stm32f4xx_hal_dma_ex.c **** 
 1627              		.loc 1 200 5 discriminator 17 view .LVU325
 1628 09f4 A2F58962 		sub	r2, r2, #1096
 1629 09f8 9342     		cmp	r3, r2
 1630 09fa 00F06B81 		beq	.L263
 200:Drivers/STM32F4xx_HAL_Driver/Src/stm32f4xx_hal_dma_ex.c **** 
 1631              		.loc 1 200 5 discriminator 19 view .LVU326
 1632 09fe 02F58062 		add	r2, r2, #1024
 1633 0a02 9342     		cmp	r3, r2
 1634 0a04 00F06981 		beq	.L264
 200:Drivers/STM32F4xx_HAL_Driver/Src/stm32f4xx_hal_dma_ex.c **** 
 1635              		.loc 1 200 5 discriminator 21 view .LVU327
 1636 0a08 A2F56872 		sub	r2, r2, #928
 1637 0a0c 9342     		cmp	r3, r2
 1638 0a0e 00F06781 		beq	.L265
 200:Drivers/STM32F4xx_HAL_Driver/Src/stm32f4xx_hal_dma_ex.c **** 
 1639              		.loc 1 200 5 discriminator 23 view .LVU328
 1640 0a12 02F58062 		add	r2, r2, #1024
 1641 0a16 9342     		cmp	r3, r2
 1642 0a18 00F02D81 		beq	.L319
 200:Drivers/STM32F4xx_HAL_Driver/Src/stm32f4xx_hal_dma_ex.c **** 
 1643              		.loc 1 200 5 view .LVU329
 1644 0a1c 4FF48002 		mov	r2, #4194304
 1645 0a20 2DE1     		b	.L53
 1646              	.L208:
 199:Drivers/STM32F4xx_HAL_Driver/Src/stm32f4xx_hal_dma_ex.c ****     __HAL_DMA_CLEAR_FLAG (hdma, __HAL_DMA_GET_FE_FLAG_INDEX(hdma));
 1647              		.loc 1 199 5 view .LVU330
 1648 0a22 0422     		movs	r2, #4
 1649 0a24 B7E7     		b	.L45
 1650              	.L209:
 1651 0a26 0422     		movs	r2, #4
 1652 0a28 B5E7     		b	.L45
 1653              	.L210:
 1654 0a2a 0422     		movs	r2, #4
 1655 0a2c B3E7     		b	.L45
 1656              	.L211:
 1657 0a2e 4FF48072 		mov	r2, #256
 1658 0a32 B0E7     		b	.L45
 1659              	.L212:
 1660 0a34 4FF48072 		mov	r2, #256
 1661 0a38 ADE7     		b	.L45
 1662              	.L213:
 1663 0a3a 4FF48072 		mov	r2, #256
 1664 0a3e AAE7     		b	.L45
 1665              	.L214:
 1666 0a40 4FF48072 		mov	r2, #256
 1667 0a44 A7E7     		b	.L45
 1668              	.L215:
 1669 0a46 4FF48022 		mov	r2, #262144
ARM GAS  C:\Users\12990\AppData\Local\Temp\cc1clWBF.s 			page 41


 1670 0a4a A4E7     		b	.L45
 1671              	.L216:
 1672 0a4c 4FF48022 		mov	r2, #262144
 1673 0a50 A1E7     		b	.L45
 1674              	.L217:
 1675 0a52 4FF48022 		mov	r2, #262144
 1676 0a56 9EE7     		b	.L45
 1677              	.L44:
 199:Drivers/STM32F4xx_HAL_Driver/Src/stm32f4xx_hal_dma_ex.c ****     __HAL_DMA_CLEAR_FLAG (hdma, __HAL_DMA_GET_FE_FLAG_INDEX(hdma));
 1678              		.loc 1 199 5 discriminator 2 view .LVU331
 1679 0a58 594A     		ldr	r2, .L333+16
 1680 0a5a 9342     		cmp	r3, r2
 1681 0a5c 53D9     		bls	.L47
 199:Drivers/STM32F4xx_HAL_Driver/Src/stm32f4xx_hal_dma_ex.c ****     __HAL_DMA_CLEAR_FLAG (hdma, __HAL_DMA_GET_FE_FLAG_INDEX(hdma));
 1682              		.loc 1 199 5 discriminator 51 view .LVU332
 1683 0a5e A83A     		subs	r2, r2, #168
 1684 0a60 9342     		cmp	r3, r2
 1685 0a62 31D0     		beq	.L219
 199:Drivers/STM32F4xx_HAL_Driver/Src/stm32f4xx_hal_dma_ex.c ****     __HAL_DMA_CLEAR_FLAG (hdma, __HAL_DMA_GET_FE_FLAG_INDEX(hdma));
 1686              		.loc 1 199 5 discriminator 53 view .LVU333
 1687 0a64 02F58062 		add	r2, r2, #1024
 1688 0a68 9342     		cmp	r3, r2
 1689 0a6a 31D0     		beq	.L220
 199:Drivers/STM32F4xx_HAL_Driver/Src/stm32f4xx_hal_dma_ex.c ****     __HAL_DMA_CLEAR_FLAG (hdma, __HAL_DMA_GET_FE_FLAG_INDEX(hdma));
 1690              		.loc 1 199 5 discriminator 55 view .LVU334
 1691 0a6c A2F56872 		sub	r2, r2, #928
 1692 0a70 9342     		cmp	r3, r2
 1693 0a72 2FD0     		beq	.L221
 199:Drivers/STM32F4xx_HAL_Driver/Src/stm32f4xx_hal_dma_ex.c ****     __HAL_DMA_CLEAR_FLAG (hdma, __HAL_DMA_GET_FE_FLAG_INDEX(hdma));
 1694              		.loc 1 199 5 discriminator 57 view .LVU335
 1695 0a74 02F58062 		add	r2, r2, #1024
 1696 0a78 9342     		cmp	r3, r2
 1697 0a7a 2DD0     		beq	.L222
 199:Drivers/STM32F4xx_HAL_Driver/Src/stm32f4xx_hal_dma_ex.c ****     __HAL_DMA_CLEAR_FLAG (hdma, __HAL_DMA_GET_FE_FLAG_INDEX(hdma));
 1698              		.loc 1 199 5 discriminator 59 view .LVU336
 1699 0a7c A2F58962 		sub	r2, r2, #1096
 1700 0a80 9342     		cmp	r3, r2
 1701 0a82 2BD0     		beq	.L223
 199:Drivers/STM32F4xx_HAL_Driver/Src/stm32f4xx_hal_dma_ex.c ****     __HAL_DMA_CLEAR_FLAG (hdma, __HAL_DMA_GET_FE_FLAG_INDEX(hdma));
 1702              		.loc 1 199 5 discriminator 61 view .LVU337
 1703 0a84 02F58062 		add	r2, r2, #1024
 1704 0a88 9342     		cmp	r3, r2
 1705 0a8a 2AD0     		beq	.L224
 199:Drivers/STM32F4xx_HAL_Driver/Src/stm32f4xx_hal_dma_ex.c ****     __HAL_DMA_CLEAR_FLAG (hdma, __HAL_DMA_GET_FE_FLAG_INDEX(hdma));
 1706              		.loc 1 199 5 discriminator 63 view .LVU338
 1707 0a8c A2F56872 		sub	r2, r2, #928
 1708 0a90 9342     		cmp	r3, r2
 1709 0a92 29D0     		beq	.L225
 199:Drivers/STM32F4xx_HAL_Driver/Src/stm32f4xx_hal_dma_ex.c ****     __HAL_DMA_CLEAR_FLAG (hdma, __HAL_DMA_GET_FE_FLAG_INDEX(hdma));
 1710              		.loc 1 199 5 discriminator 65 view .LVU339
 1711 0a94 02F58062 		add	r2, r2, #1024
 1712 0a98 9342     		cmp	r3, r2
 1713 0a9a 28D0     		beq	.L226
 199:Drivers/STM32F4xx_HAL_Driver/Src/stm32f4xx_hal_dma_ex.c ****     __HAL_DMA_CLEAR_FLAG (hdma, __HAL_DMA_GET_FE_FLAG_INDEX(hdma));
 1714              		.loc 1 199 5 discriminator 67 view .LVU340
 1715 0a9c A2F58962 		sub	r2, r2, #1096
 1716 0aa0 9342     		cmp	r3, r2
ARM GAS  C:\Users\12990\AppData\Local\Temp\cc1clWBF.s 			page 42


 1717 0aa2 27D0     		beq	.L227
 199:Drivers/STM32F4xx_HAL_Driver/Src/stm32f4xx_hal_dma_ex.c ****     __HAL_DMA_CLEAR_FLAG (hdma, __HAL_DMA_GET_FE_FLAG_INDEX(hdma));
 1718              		.loc 1 199 5 discriminator 69 view .LVU341
 1719 0aa4 02F58062 		add	r2, r2, #1024
 1720 0aa8 9342     		cmp	r3, r2
 1721 0aaa 26D0     		beq	.L228
 199:Drivers/STM32F4xx_HAL_Driver/Src/stm32f4xx_hal_dma_ex.c ****     __HAL_DMA_CLEAR_FLAG (hdma, __HAL_DMA_GET_FE_FLAG_INDEX(hdma));
 1722              		.loc 1 199 5 discriminator 71 view .LVU342
 1723 0aac A2F56872 		sub	r2, r2, #928
 1724 0ab0 9342     		cmp	r3, r2
 1725 0ab2 25D0     		beq	.L229
 199:Drivers/STM32F4xx_HAL_Driver/Src/stm32f4xx_hal_dma_ex.c ****     __HAL_DMA_CLEAR_FLAG (hdma, __HAL_DMA_GET_FE_FLAG_INDEX(hdma));
 1726              		.loc 1 199 5 discriminator 73 view .LVU343
 1727 0ab4 02F58062 		add	r2, r2, #1024
 1728 0ab8 9342     		cmp	r3, r2
 1729 0aba 02D0     		beq	.L320
 199:Drivers/STM32F4xx_HAL_Driver/Src/stm32f4xx_hal_dma_ex.c ****     __HAL_DMA_CLEAR_FLAG (hdma, __HAL_DMA_GET_FE_FLAG_INDEX(hdma));
 1730              		.loc 1 199 5 view .LVU344
 1731 0abc 4FF08073 		mov	r3, #16777216
 1732 0ac0 03E0     		b	.L48
 1733              	.L320:
 1734 0ac2 4FF48023 		mov	r3, #262144
 1735 0ac6 00E0     		b	.L48
 1736              	.L219:
 1737 0ac8 0423     		movs	r3, #4
 1738              	.L48:
 199:Drivers/STM32F4xx_HAL_Driver/Src/stm32f4xx_hal_dma_ex.c ****     __HAL_DMA_CLEAR_FLAG (hdma, __HAL_DMA_GET_FE_FLAG_INDEX(hdma));
 1739              		.loc 1 199 5 discriminator 100 view .LVU345
 1740 0aca 3B4A     		ldr	r2, .L333+8
 1741 0acc 9360     		str	r3, [r2, #8]
 1742 0ace 64E7     		b	.L46
 1743              	.L220:
 199:Drivers/STM32F4xx_HAL_Driver/Src/stm32f4xx_hal_dma_ex.c ****     __HAL_DMA_CLEAR_FLAG (hdma, __HAL_DMA_GET_FE_FLAG_INDEX(hdma));
 1744              		.loc 1 199 5 view .LVU346
 1745 0ad0 0423     		movs	r3, #4
 1746 0ad2 FAE7     		b	.L48
 1747              	.L221:
 1748 0ad4 0423     		movs	r3, #4
 1749 0ad6 F8E7     		b	.L48
 1750              	.L222:
 1751 0ad8 0423     		movs	r3, #4
 1752 0ada F6E7     		b	.L48
 1753              	.L223:
 1754 0adc 4FF48073 		mov	r3, #256
 1755 0ae0 F3E7     		b	.L48
 1756              	.L224:
 1757 0ae2 4FF48073 		mov	r3, #256
 1758 0ae6 F0E7     		b	.L48
 1759              	.L225:
 1760 0ae8 4FF48073 		mov	r3, #256
 1761 0aec EDE7     		b	.L48
 1762              	.L226:
 1763 0aee 4FF48073 		mov	r3, #256
 1764 0af2 EAE7     		b	.L48
 1765              	.L227:
 1766 0af4 4FF48023 		mov	r3, #262144
 1767 0af8 E7E7     		b	.L48
ARM GAS  C:\Users\12990\AppData\Local\Temp\cc1clWBF.s 			page 43


 1768              	.L228:
 1769 0afa 4FF48023 		mov	r3, #262144
 1770 0afe E4E7     		b	.L48
 1771              	.L229:
 1772 0b00 4FF48023 		mov	r3, #262144
 1773 0b04 E1E7     		b	.L48
 1774              	.L47:
 199:Drivers/STM32F4xx_HAL_Driver/Src/stm32f4xx_hal_dma_ex.c ****     __HAL_DMA_CLEAR_FLAG (hdma, __HAL_DMA_GET_FE_FLAG_INDEX(hdma));
 1775              		.loc 1 199 5 discriminator 52 view .LVU347
 1776 0b06 2F4A     		ldr	r2, .L333+20
 1777 0b08 9342     		cmp	r3, r2
 1778 0b0a 60D9     		bls	.L49
 199:Drivers/STM32F4xx_HAL_Driver/Src/stm32f4xx_hal_dma_ex.c ****     __HAL_DMA_CLEAR_FLAG (hdma, __HAL_DMA_GET_FE_FLAG_INDEX(hdma));
 1779              		.loc 1 199 5 discriminator 102 view .LVU348
 1780 0b0c 483A     		subs	r2, r2, #72
 1781 0b0e 9342     		cmp	r3, r2
 1782 0b10 31D0     		beq	.L231
 199:Drivers/STM32F4xx_HAL_Driver/Src/stm32f4xx_hal_dma_ex.c ****     __HAL_DMA_CLEAR_FLAG (hdma, __HAL_DMA_GET_FE_FLAG_INDEX(hdma));
 1783              		.loc 1 199 5 discriminator 104 view .LVU349
 1784 0b12 02F58062 		add	r2, r2, #1024
 1785 0b16 9342     		cmp	r3, r2
 1786 0b18 31D0     		beq	.L232
 199:Drivers/STM32F4xx_HAL_Driver/Src/stm32f4xx_hal_dma_ex.c ****     __HAL_DMA_CLEAR_FLAG (hdma, __HAL_DMA_GET_FE_FLAG_INDEX(hdma));
 1787              		.loc 1 199 5 discriminator 106 view .LVU350
 1788 0b1a A2F56872 		sub	r2, r2, #928
 1789 0b1e 9342     		cmp	r3, r2
 1790 0b20 2FD0     		beq	.L233
 199:Drivers/STM32F4xx_HAL_Driver/Src/stm32f4xx_hal_dma_ex.c ****     __HAL_DMA_CLEAR_FLAG (hdma, __HAL_DMA_GET_FE_FLAG_INDEX(hdma));
 1791              		.loc 1 199 5 discriminator 108 view .LVU351
 1792 0b22 02F58062 		add	r2, r2, #1024
 1793 0b26 9342     		cmp	r3, r2
 1794 0b28 2DD0     		beq	.L234
 199:Drivers/STM32F4xx_HAL_Driver/Src/stm32f4xx_hal_dma_ex.c ****     __HAL_DMA_CLEAR_FLAG (hdma, __HAL_DMA_GET_FE_FLAG_INDEX(hdma));
 1795              		.loc 1 199 5 discriminator 110 view .LVU352
 1796 0b2a A2F58962 		sub	r2, r2, #1096
 1797 0b2e 9342     		cmp	r3, r2
 1798 0b30 2BD0     		beq	.L235
 199:Drivers/STM32F4xx_HAL_Driver/Src/stm32f4xx_hal_dma_ex.c ****     __HAL_DMA_CLEAR_FLAG (hdma, __HAL_DMA_GET_FE_FLAG_INDEX(hdma));
 1799              		.loc 1 199 5 discriminator 112 view .LVU353
 1800 0b32 02F58062 		add	r2, r2, #1024
 1801 0b36 9342     		cmp	r3, r2
 1802 0b38 2AD0     		beq	.L236
 199:Drivers/STM32F4xx_HAL_Driver/Src/stm32f4xx_hal_dma_ex.c ****     __HAL_DMA_CLEAR_FLAG (hdma, __HAL_DMA_GET_FE_FLAG_INDEX(hdma));
 1803              		.loc 1 199 5 discriminator 114 view .LVU354
 1804 0b3a A2F56872 		sub	r2, r2, #928
 1805 0b3e 9342     		cmp	r3, r2
 1806 0b40 29D0     		beq	.L237
 199:Drivers/STM32F4xx_HAL_Driver/Src/stm32f4xx_hal_dma_ex.c ****     __HAL_DMA_CLEAR_FLAG (hdma, __HAL_DMA_GET_FE_FLAG_INDEX(hdma));
 1807              		.loc 1 199 5 discriminator 116 view .LVU355
 1808 0b42 02F58062 		add	r2, r2, #1024
 1809 0b46 9342     		cmp	r3, r2
 1810 0b48 28D0     		beq	.L238
 199:Drivers/STM32F4xx_HAL_Driver/Src/stm32f4xx_hal_dma_ex.c ****     __HAL_DMA_CLEAR_FLAG (hdma, __HAL_DMA_GET_FE_FLAG_INDEX(hdma));
 1811              		.loc 1 199 5 discriminator 118 view .LVU356
 1812 0b4a A2F58962 		sub	r2, r2, #1096
 1813 0b4e 9342     		cmp	r3, r2
 1814 0b50 27D0     		beq	.L239
ARM GAS  C:\Users\12990\AppData\Local\Temp\cc1clWBF.s 			page 44


 199:Drivers/STM32F4xx_HAL_Driver/Src/stm32f4xx_hal_dma_ex.c ****     __HAL_DMA_CLEAR_FLAG (hdma, __HAL_DMA_GET_FE_FLAG_INDEX(hdma));
 1815              		.loc 1 199 5 discriminator 120 view .LVU357
 1816 0b52 02F58062 		add	r2, r2, #1024
 1817 0b56 9342     		cmp	r3, r2
 1818 0b58 26D0     		beq	.L240
 199:Drivers/STM32F4xx_HAL_Driver/Src/stm32f4xx_hal_dma_ex.c ****     __HAL_DMA_CLEAR_FLAG (hdma, __HAL_DMA_GET_FE_FLAG_INDEX(hdma));
 1819              		.loc 1 199 5 discriminator 122 view .LVU358
 1820 0b5a A2F56872 		sub	r2, r2, #928
 1821 0b5e 9342     		cmp	r3, r2
 1822 0b60 32D0     		beq	.L241
 199:Drivers/STM32F4xx_HAL_Driver/Src/stm32f4xx_hal_dma_ex.c ****     __HAL_DMA_CLEAR_FLAG (hdma, __HAL_DMA_GET_FE_FLAG_INDEX(hdma));
 1823              		.loc 1 199 5 discriminator 124 view .LVU359
 1824 0b62 02F58062 		add	r2, r2, #1024
 1825 0b66 9342     		cmp	r3, r2
 1826 0b68 02D0     		beq	.L321
 199:Drivers/STM32F4xx_HAL_Driver/Src/stm32f4xx_hal_dma_ex.c ****     __HAL_DMA_CLEAR_FLAG (hdma, __HAL_DMA_GET_FE_FLAG_INDEX(hdma));
 1827              		.loc 1 199 5 view .LVU360
 1828 0b6a 4FF08073 		mov	r3, #16777216
 1829 0b6e 03E0     		b	.L50
 1830              	.L321:
 1831 0b70 4FF48023 		mov	r3, #262144
 1832 0b74 00E0     		b	.L50
 1833              	.L231:
 1834 0b76 0423     		movs	r3, #4
 1835              	.L50:
 199:Drivers/STM32F4xx_HAL_Driver/Src/stm32f4xx_hal_dma_ex.c ****     __HAL_DMA_CLEAR_FLAG (hdma, __HAL_DMA_GET_FE_FLAG_INDEX(hdma));
 1836              		.loc 1 199 5 discriminator 151 view .LVU361
 1837 0b78 0E4A     		ldr	r2, .L333+4
 1838 0b7a D360     		str	r3, [r2, #12]
 1839 0b7c 0DE7     		b	.L46
 1840              	.L232:
 199:Drivers/STM32F4xx_HAL_Driver/Src/stm32f4xx_hal_dma_ex.c ****     __HAL_DMA_CLEAR_FLAG (hdma, __HAL_DMA_GET_FE_FLAG_INDEX(hdma));
 1841              		.loc 1 199 5 view .LVU362
 1842 0b7e 0423     		movs	r3, #4
 1843 0b80 FAE7     		b	.L50
 1844              	.L233:
 1845 0b82 0423     		movs	r3, #4
 1846 0b84 F8E7     		b	.L50
 1847              	.L234:
 1848 0b86 0423     		movs	r3, #4
 1849 0b88 F6E7     		b	.L50
 1850              	.L235:
 1851 0b8a 4FF48073 		mov	r3, #256
 1852 0b8e F3E7     		b	.L50
 1853              	.L236:
 1854 0b90 4FF48073 		mov	r3, #256
 1855 0b94 F0E7     		b	.L50
 1856              	.L237:
 1857 0b96 4FF48073 		mov	r3, #256
 1858 0b9a EDE7     		b	.L50
 1859              	.L238:
 1860 0b9c 4FF48073 		mov	r3, #256
 1861 0ba0 EAE7     		b	.L50
 1862              	.L239:
 1863 0ba2 4FF48023 		mov	r3, #262144
 1864 0ba6 E7E7     		b	.L50
 1865              	.L240:
ARM GAS  C:\Users\12990\AppData\Local\Temp\cc1clWBF.s 			page 45


 1866 0ba8 4FF48023 		mov	r3, #262144
 1867 0bac E4E7     		b	.L50
 1868              	.L334:
 1869 0bae 00BF     		.align	2
 1870              	.L333:
 1871 0bb0 10600240 		.word	1073897488
 1872 0bb4 00600240 		.word	1073897472
 1873 0bb8 00640240 		.word	1073898496
 1874 0bbc 58640240 		.word	1073898584
 1875 0bc0 B8600240 		.word	1073897656
 1876 0bc4 58600240 		.word	1073897560
 1877              	.L241:
 1878 0bc8 4FF48023 		mov	r3, #262144
 1879 0bcc D4E7     		b	.L50
 1880              	.L49:
 199:Drivers/STM32F4xx_HAL_Driver/Src/stm32f4xx_hal_dma_ex.c ****     __HAL_DMA_CLEAR_FLAG (hdma, __HAL_DMA_GET_FE_FLAG_INDEX(hdma));
 1881              		.loc 1 199 5 discriminator 103 view .LVU363
 1882 0bce 994A     		ldr	r2, .L335
 1883 0bd0 9342     		cmp	r3, r2
 1884 0bd2 31D0     		beq	.L243
 199:Drivers/STM32F4xx_HAL_Driver/Src/stm32f4xx_hal_dma_ex.c ****     __HAL_DMA_CLEAR_FLAG (hdma, __HAL_DMA_GET_FE_FLAG_INDEX(hdma));
 1885              		.loc 1 199 5 discriminator 153 view .LVU364
 1886 0bd4 02F58062 		add	r2, r2, #1024
 1887 0bd8 9342     		cmp	r3, r2
 1888 0bda 31D0     		beq	.L244
 199:Drivers/STM32F4xx_HAL_Driver/Src/stm32f4xx_hal_dma_ex.c ****     __HAL_DMA_CLEAR_FLAG (hdma, __HAL_DMA_GET_FE_FLAG_INDEX(hdma));
 1889              		.loc 1 199 5 discriminator 155 view .LVU365
 1890 0bdc A2F56872 		sub	r2, r2, #928
 1891 0be0 9342     		cmp	r3, r2
 1892 0be2 2FD0     		beq	.L245
 199:Drivers/STM32F4xx_HAL_Driver/Src/stm32f4xx_hal_dma_ex.c ****     __HAL_DMA_CLEAR_FLAG (hdma, __HAL_DMA_GET_FE_FLAG_INDEX(hdma));
 1893              		.loc 1 199 5 discriminator 157 view .LVU366
 1894 0be4 02F58062 		add	r2, r2, #1024
 1895 0be8 9342     		cmp	r3, r2
 1896 0bea 2DD0     		beq	.L246
 199:Drivers/STM32F4xx_HAL_Driver/Src/stm32f4xx_hal_dma_ex.c ****     __HAL_DMA_CLEAR_FLAG (hdma, __HAL_DMA_GET_FE_FLAG_INDEX(hdma));
 1897              		.loc 1 199 5 discriminator 159 view .LVU367
 1898 0bec A2F58962 		sub	r2, r2, #1096
 1899 0bf0 9342     		cmp	r3, r2
 1900 0bf2 2BD0     		beq	.L247
 199:Drivers/STM32F4xx_HAL_Driver/Src/stm32f4xx_hal_dma_ex.c ****     __HAL_DMA_CLEAR_FLAG (hdma, __HAL_DMA_GET_FE_FLAG_INDEX(hdma));
 1901              		.loc 1 199 5 discriminator 161 view .LVU368
 1902 0bf4 02F58062 		add	r2, r2, #1024
 1903 0bf8 9342     		cmp	r3, r2
 1904 0bfa 2AD0     		beq	.L248
 199:Drivers/STM32F4xx_HAL_Driver/Src/stm32f4xx_hal_dma_ex.c ****     __HAL_DMA_CLEAR_FLAG (hdma, __HAL_DMA_GET_FE_FLAG_INDEX(hdma));
 1905              		.loc 1 199 5 discriminator 163 view .LVU369
 1906 0bfc A2F56872 		sub	r2, r2, #928
 1907 0c00 9342     		cmp	r3, r2
 1908 0c02 29D0     		beq	.L249
 199:Drivers/STM32F4xx_HAL_Driver/Src/stm32f4xx_hal_dma_ex.c ****     __HAL_DMA_CLEAR_FLAG (hdma, __HAL_DMA_GET_FE_FLAG_INDEX(hdma));
 1909              		.loc 1 199 5 discriminator 165 view .LVU370
 1910 0c04 02F58062 		add	r2, r2, #1024
 1911 0c08 9342     		cmp	r3, r2
 1912 0c0a 28D0     		beq	.L250
 199:Drivers/STM32F4xx_HAL_Driver/Src/stm32f4xx_hal_dma_ex.c ****     __HAL_DMA_CLEAR_FLAG (hdma, __HAL_DMA_GET_FE_FLAG_INDEX(hdma));
 1913              		.loc 1 199 5 discriminator 167 view .LVU371
ARM GAS  C:\Users\12990\AppData\Local\Temp\cc1clWBF.s 			page 46


 1914 0c0c A2F58962 		sub	r2, r2, #1096
 1915 0c10 9342     		cmp	r3, r2
 1916 0c12 27D0     		beq	.L251
 199:Drivers/STM32F4xx_HAL_Driver/Src/stm32f4xx_hal_dma_ex.c ****     __HAL_DMA_CLEAR_FLAG (hdma, __HAL_DMA_GET_FE_FLAG_INDEX(hdma));
 1917              		.loc 1 199 5 discriminator 169 view .LVU372
 1918 0c14 02F58062 		add	r2, r2, #1024
 1919 0c18 9342     		cmp	r3, r2
 1920 0c1a 26D0     		beq	.L252
 199:Drivers/STM32F4xx_HAL_Driver/Src/stm32f4xx_hal_dma_ex.c ****     __HAL_DMA_CLEAR_FLAG (hdma, __HAL_DMA_GET_FE_FLAG_INDEX(hdma));
 1921              		.loc 1 199 5 discriminator 171 view .LVU373
 1922 0c1c A2F56872 		sub	r2, r2, #928
 1923 0c20 9342     		cmp	r3, r2
 1924 0c22 25D0     		beq	.L253
 199:Drivers/STM32F4xx_HAL_Driver/Src/stm32f4xx_hal_dma_ex.c ****     __HAL_DMA_CLEAR_FLAG (hdma, __HAL_DMA_GET_FE_FLAG_INDEX(hdma));
 1925              		.loc 1 199 5 discriminator 173 view .LVU374
 1926 0c24 02F58062 		add	r2, r2, #1024
 1927 0c28 9342     		cmp	r3, r2
 1928 0c2a 02D0     		beq	.L322
 199:Drivers/STM32F4xx_HAL_Driver/Src/stm32f4xx_hal_dma_ex.c ****     __HAL_DMA_CLEAR_FLAG (hdma, __HAL_DMA_GET_FE_FLAG_INDEX(hdma));
 1929              		.loc 1 199 5 view .LVU375
 1930 0c2c 4FF08073 		mov	r3, #16777216
 1931 0c30 03E0     		b	.L51
 1932              	.L322:
 1933 0c32 4FF48023 		mov	r3, #262144
 1934 0c36 00E0     		b	.L51
 1935              	.L243:
 1936 0c38 0423     		movs	r3, #4
 1937              	.L51:
 199:Drivers/STM32F4xx_HAL_Driver/Src/stm32f4xx_hal_dma_ex.c ****     __HAL_DMA_CLEAR_FLAG (hdma, __HAL_DMA_GET_FE_FLAG_INDEX(hdma));
 1938              		.loc 1 199 5 discriminator 200 view .LVU376
 1939 0c3a 7F4A     		ldr	r2, .L335+4
 1940 0c3c 9360     		str	r3, [r2, #8]
 1941 0c3e ACE6     		b	.L46
 1942              	.L244:
 199:Drivers/STM32F4xx_HAL_Driver/Src/stm32f4xx_hal_dma_ex.c ****     __HAL_DMA_CLEAR_FLAG (hdma, __HAL_DMA_GET_FE_FLAG_INDEX(hdma));
 1943              		.loc 1 199 5 view .LVU377
 1944 0c40 0423     		movs	r3, #4
 1945 0c42 FAE7     		b	.L51
 1946              	.L245:
 1947 0c44 0423     		movs	r3, #4
 1948 0c46 F8E7     		b	.L51
 1949              	.L246:
 1950 0c48 0423     		movs	r3, #4
 1951 0c4a F6E7     		b	.L51
 1952              	.L247:
 1953 0c4c 4FF48073 		mov	r3, #256
 1954 0c50 F3E7     		b	.L51
 1955              	.L248:
 1956 0c52 4FF48073 		mov	r3, #256
 1957 0c56 F0E7     		b	.L51
 1958              	.L249:
 1959 0c58 4FF48073 		mov	r3, #256
 1960 0c5c EDE7     		b	.L51
 1961              	.L250:
 1962 0c5e 4FF48073 		mov	r3, #256
 1963 0c62 EAE7     		b	.L51
 1964              	.L251:
ARM GAS  C:\Users\12990\AppData\Local\Temp\cc1clWBF.s 			page 47


 1965 0c64 4FF48023 		mov	r3, #262144
 1966 0c68 E7E7     		b	.L51
 1967              	.L252:
 1968 0c6a 4FF48023 		mov	r3, #262144
 1969 0c6e E4E7     		b	.L51
 1970              	.L253:
 1971 0c70 4FF48023 		mov	r3, #262144
 1972 0c74 E1E7     		b	.L51
 1973              	.L319:
 200:Drivers/STM32F4xx_HAL_Driver/Src/stm32f4xx_hal_dma_ex.c **** 
 1974              		.loc 1 200 5 view .LVU378
 1975 0c76 4FF48032 		mov	r2, #65536
 1976 0c7a 00E0     		b	.L53
 1977              	.L255:
 1978 0c7c 0122     		movs	r2, #1
 1979              	.L53:
 200:Drivers/STM32F4xx_HAL_Driver/Src/stm32f4xx_hal_dma_ex.c **** 
 1980              		.loc 1 200 5 discriminator 50 view .LVU379
 1981 0c7e 6F4B     		ldr	r3, .L335+8
 1982 0c80 DA60     		str	r2, [r3, #12]
 1983              	.L54:
 203:Drivers/STM32F4xx_HAL_Driver/Src/stm32f4xx_hal_dma_ex.c ****     hdma->Instance->FCR |= DMA_IT_FE;
 1984              		.loc 1 203 5 is_stmt 1 view .LVU380
 203:Drivers/STM32F4xx_HAL_Driver/Src/stm32f4xx_hal_dma_ex.c ****     hdma->Instance->FCR |= DMA_IT_FE;
 1985              		.loc 1 203 9 is_stmt 0 view .LVU381
 1986 0c82 2268     		ldr	r2, [r4]
 203:Drivers/STM32F4xx_HAL_Driver/Src/stm32f4xx_hal_dma_ex.c ****     hdma->Instance->FCR |= DMA_IT_FE;
 1987              		.loc 1 203 25 view .LVU382
 1988 0c84 1368     		ldr	r3, [r2]
 1989 0c86 43F01603 		orr	r3, r3, #22
 1990 0c8a 1360     		str	r3, [r2]
 204:Drivers/STM32F4xx_HAL_Driver/Src/stm32f4xx_hal_dma_ex.c ****     
 1991              		.loc 1 204 5 is_stmt 1 view .LVU383
 204:Drivers/STM32F4xx_HAL_Driver/Src/stm32f4xx_hal_dma_ex.c ****     
 1992              		.loc 1 204 9 is_stmt 0 view .LVU384
 1993 0c8c 2268     		ldr	r2, [r4]
 204:Drivers/STM32F4xx_HAL_Driver/Src/stm32f4xx_hal_dma_ex.c ****     
 1994              		.loc 1 204 25 view .LVU385
 1995 0c8e 5369     		ldr	r3, [r2, #20]
 1996 0c90 43F08003 		orr	r3, r3, #128
 1997 0c94 5361     		str	r3, [r2, #20]
 206:Drivers/STM32F4xx_HAL_Driver/Src/stm32f4xx_hal_dma_ex.c ****     {
 1998              		.loc 1 206 5 is_stmt 1 view .LVU386
 206:Drivers/STM32F4xx_HAL_Driver/Src/stm32f4xx_hal_dma_ex.c ****     {
 1999              		.loc 1 206 13 is_stmt 0 view .LVU387
 2000 0c96 236C     		ldr	r3, [r4, #64]
 206:Drivers/STM32F4xx_HAL_Driver/Src/stm32f4xx_hal_dma_ex.c ****     {
 2001              		.loc 1 206 7 view .LVU388
 2002 0c98 002B     		cmp	r3, #0
 2003 0c9a 00F02581 		beq	.L323
 2004              	.L60:
 208:Drivers/STM32F4xx_HAL_Driver/Src/stm32f4xx_hal_dma_ex.c ****     }
 2005              		.loc 1 208 7 is_stmt 1 view .LVU389
 208:Drivers/STM32F4xx_HAL_Driver/Src/stm32f4xx_hal_dma_ex.c ****     }
 2006              		.loc 1 208 11 is_stmt 0 view .LVU390
 2007 0c9e 2268     		ldr	r2, [r4]
 208:Drivers/STM32F4xx_HAL_Driver/Src/stm32f4xx_hal_dma_ex.c ****     }
ARM GAS  C:\Users\12990\AppData\Local\Temp\cc1clWBF.s 			page 48


 2008              		.loc 1 208 27 view .LVU391
 2009 0ca0 1368     		ldr	r3, [r2]
 2010 0ca2 43F00803 		orr	r3, r3, #8
 2011 0ca6 1360     		str	r3, [r2]
 2012              	.L61:
 212:Drivers/STM32F4xx_HAL_Driver/Src/stm32f4xx_hal_dma_ex.c ****   }
 2013              		.loc 1 212 5 is_stmt 1 view .LVU392
 2014 0ca8 2268     		ldr	r2, [r4]
 2015 0caa 1368     		ldr	r3, [r2]
 2016 0cac 43F00103 		orr	r3, r3, #1
 2017 0cb0 1360     		str	r3, [r2]
 156:Drivers/STM32F4xx_HAL_Driver/Src/stm32f4xx_hal_dma_ex.c ****   
 2018              		.loc 1 156 21 is_stmt 0 view .LVU393
 2019 0cb2 0020     		movs	r0, #0
 2020 0cb4 FFF7C9B9 		b	.L16
 2021              	.L256:
 200:Drivers/STM32F4xx_HAL_Driver/Src/stm32f4xx_hal_dma_ex.c **** 
 2022              		.loc 1 200 5 view .LVU394
 2023 0cb8 0122     		movs	r2, #1
 2024 0cba E0E7     		b	.L53
 2025              	.L257:
 2026 0cbc 0122     		movs	r2, #1
 2027 0cbe DEE7     		b	.L53
 2028              	.L258:
 2029 0cc0 0122     		movs	r2, #1
 2030 0cc2 DCE7     		b	.L53
 2031              	.L259:
 2032 0cc4 4022     		movs	r2, #64
 2033 0cc6 DAE7     		b	.L53
 2034              	.L260:
 2035 0cc8 4022     		movs	r2, #64
 2036 0cca D8E7     		b	.L53
 2037              	.L261:
 2038 0ccc 4022     		movs	r2, #64
 2039 0cce D6E7     		b	.L53
 2040              	.L262:
 2041 0cd0 4022     		movs	r2, #64
 2042 0cd2 D4E7     		b	.L53
 2043              	.L263:
 2044 0cd4 4FF48032 		mov	r2, #65536
 2045 0cd8 D1E7     		b	.L53
 2046              	.L264:
 2047 0cda 4FF48032 		mov	r2, #65536
 2048 0cde CEE7     		b	.L53
 2049              	.L265:
 2050 0ce0 4FF48032 		mov	r2, #65536
 2051 0ce4 CBE7     		b	.L53
 2052              	.L52:
 200:Drivers/STM32F4xx_HAL_Driver/Src/stm32f4xx_hal_dma_ex.c **** 
 2053              		.loc 1 200 5 discriminator 2 view .LVU395
 2054 0ce6 564A     		ldr	r2, .L335+12
 2055 0ce8 9342     		cmp	r3, r2
 2056 0cea 4FD9     		bls	.L55
 200:Drivers/STM32F4xx_HAL_Driver/Src/stm32f4xx_hal_dma_ex.c **** 
 2057              		.loc 1 200 5 discriminator 51 view .LVU396
 2058 0cec A83A     		subs	r2, r2, #168
 2059 0cee 9342     		cmp	r3, r2
ARM GAS  C:\Users\12990\AppData\Local\Temp\cc1clWBF.s 			page 49


 2060 0cf0 31D0     		beq	.L267
 200:Drivers/STM32F4xx_HAL_Driver/Src/stm32f4xx_hal_dma_ex.c **** 
 2061              		.loc 1 200 5 discriminator 53 view .LVU397
 2062 0cf2 02F58062 		add	r2, r2, #1024
 2063 0cf6 9342     		cmp	r3, r2
 2064 0cf8 31D0     		beq	.L268
 200:Drivers/STM32F4xx_HAL_Driver/Src/stm32f4xx_hal_dma_ex.c **** 
 2065              		.loc 1 200 5 discriminator 55 view .LVU398
 2066 0cfa A2F56872 		sub	r2, r2, #928
 2067 0cfe 9342     		cmp	r3, r2
 2068 0d00 2FD0     		beq	.L269
 200:Drivers/STM32F4xx_HAL_Driver/Src/stm32f4xx_hal_dma_ex.c **** 
 2069              		.loc 1 200 5 discriminator 57 view .LVU399
 2070 0d02 02F58062 		add	r2, r2, #1024
 2071 0d06 9342     		cmp	r3, r2
 2072 0d08 2DD0     		beq	.L270
 200:Drivers/STM32F4xx_HAL_Driver/Src/stm32f4xx_hal_dma_ex.c **** 
 2073              		.loc 1 200 5 discriminator 59 view .LVU400
 2074 0d0a A2F58962 		sub	r2, r2, #1096
 2075 0d0e 9342     		cmp	r3, r2
 2076 0d10 2BD0     		beq	.L271
 200:Drivers/STM32F4xx_HAL_Driver/Src/stm32f4xx_hal_dma_ex.c **** 
 2077              		.loc 1 200 5 discriminator 61 view .LVU401
 2078 0d12 02F58062 		add	r2, r2, #1024
 2079 0d16 9342     		cmp	r3, r2
 2080 0d18 29D0     		beq	.L272
 200:Drivers/STM32F4xx_HAL_Driver/Src/stm32f4xx_hal_dma_ex.c **** 
 2081              		.loc 1 200 5 discriminator 63 view .LVU402
 2082 0d1a A2F56872 		sub	r2, r2, #928
 2083 0d1e 9342     		cmp	r3, r2
 2084 0d20 27D0     		beq	.L273
 200:Drivers/STM32F4xx_HAL_Driver/Src/stm32f4xx_hal_dma_ex.c **** 
 2085              		.loc 1 200 5 discriminator 65 view .LVU403
 2086 0d22 02F58062 		add	r2, r2, #1024
 2087 0d26 9342     		cmp	r3, r2
 2088 0d28 25D0     		beq	.L274
 200:Drivers/STM32F4xx_HAL_Driver/Src/stm32f4xx_hal_dma_ex.c **** 
 2089              		.loc 1 200 5 discriminator 67 view .LVU404
 2090 0d2a A2F58962 		sub	r2, r2, #1096
 2091 0d2e 9342     		cmp	r3, r2
 2092 0d30 23D0     		beq	.L275
 200:Drivers/STM32F4xx_HAL_Driver/Src/stm32f4xx_hal_dma_ex.c **** 
 2093              		.loc 1 200 5 discriminator 69 view .LVU405
 2094 0d32 02F58062 		add	r2, r2, #1024
 2095 0d36 9342     		cmp	r3, r2
 2096 0d38 22D0     		beq	.L276
 200:Drivers/STM32F4xx_HAL_Driver/Src/stm32f4xx_hal_dma_ex.c **** 
 2097              		.loc 1 200 5 discriminator 71 view .LVU406
 2098 0d3a A2F56872 		sub	r2, r2, #928
 2099 0d3e 9342     		cmp	r3, r2
 2100 0d40 21D0     		beq	.L277
 200:Drivers/STM32F4xx_HAL_Driver/Src/stm32f4xx_hal_dma_ex.c **** 
 2101              		.loc 1 200 5 discriminator 73 view .LVU407
 2102 0d42 02F58062 		add	r2, r2, #1024
 2103 0d46 9342     		cmp	r3, r2
 2104 0d48 02D0     		beq	.L324
 200:Drivers/STM32F4xx_HAL_Driver/Src/stm32f4xx_hal_dma_ex.c **** 
ARM GAS  C:\Users\12990\AppData\Local\Temp\cc1clWBF.s 			page 50


 2105              		.loc 1 200 5 view .LVU408
 2106 0d4a 4FF48003 		mov	r3, #4194304
 2107 0d4e 03E0     		b	.L56
 2108              	.L324:
 2109 0d50 4FF48033 		mov	r3, #65536
 2110 0d54 00E0     		b	.L56
 2111              	.L267:
 2112 0d56 0123     		movs	r3, #1
 2113              	.L56:
 200:Drivers/STM32F4xx_HAL_Driver/Src/stm32f4xx_hal_dma_ex.c **** 
 2114              		.loc 1 200 5 discriminator 100 view .LVU409
 2115 0d58 384A     		ldr	r2, .L335+8
 2116 0d5a 9360     		str	r3, [r2, #8]
 2117 0d5c 91E7     		b	.L54
 2118              	.L268:
 200:Drivers/STM32F4xx_HAL_Driver/Src/stm32f4xx_hal_dma_ex.c **** 
 2119              		.loc 1 200 5 view .LVU410
 2120 0d5e 0123     		movs	r3, #1
 2121 0d60 FAE7     		b	.L56
 2122              	.L269:
 2123 0d62 0123     		movs	r3, #1
 2124 0d64 F8E7     		b	.L56
 2125              	.L270:
 2126 0d66 0123     		movs	r3, #1
 2127 0d68 F6E7     		b	.L56
 2128              	.L271:
 2129 0d6a 4023     		movs	r3, #64
 2130 0d6c F4E7     		b	.L56
 2131              	.L272:
 2132 0d6e 4023     		movs	r3, #64
 2133 0d70 F2E7     		b	.L56
 2134              	.L273:
 2135 0d72 4023     		movs	r3, #64
 2136 0d74 F0E7     		b	.L56
 2137              	.L274:
 2138 0d76 4023     		movs	r3, #64
 2139 0d78 EEE7     		b	.L56
 2140              	.L275:
 2141 0d7a 4FF48033 		mov	r3, #65536
 2142 0d7e EBE7     		b	.L56
 2143              	.L276:
 2144 0d80 4FF48033 		mov	r3, #65536
 2145 0d84 E8E7     		b	.L56
 2146              	.L277:
 2147 0d86 4FF48033 		mov	r3, #65536
 2148 0d8a E5E7     		b	.L56
 2149              	.L55:
 200:Drivers/STM32F4xx_HAL_Driver/Src/stm32f4xx_hal_dma_ex.c **** 
 2150              		.loc 1 200 5 discriminator 52 view .LVU411
 2151 0d8c 2D4A     		ldr	r2, .L335+16
 2152 0d8e 9342     		cmp	r3, r2
 2153 0d90 5AD9     		bls	.L57
 200:Drivers/STM32F4xx_HAL_Driver/Src/stm32f4xx_hal_dma_ex.c **** 
 2154              		.loc 1 200 5 discriminator 102 view .LVU412
 2155 0d92 483A     		subs	r2, r2, #72
 2156 0d94 9342     		cmp	r3, r2
 2157 0d96 31D0     		beq	.L279
ARM GAS  C:\Users\12990\AppData\Local\Temp\cc1clWBF.s 			page 51


 200:Drivers/STM32F4xx_HAL_Driver/Src/stm32f4xx_hal_dma_ex.c **** 
 2158              		.loc 1 200 5 discriminator 104 view .LVU413
 2159 0d98 02F58062 		add	r2, r2, #1024
 2160 0d9c 9342     		cmp	r3, r2
 2161 0d9e 31D0     		beq	.L280
 200:Drivers/STM32F4xx_HAL_Driver/Src/stm32f4xx_hal_dma_ex.c **** 
 2162              		.loc 1 200 5 discriminator 106 view .LVU414
 2163 0da0 A2F56872 		sub	r2, r2, #928
 2164 0da4 9342     		cmp	r3, r2
 2165 0da6 2FD0     		beq	.L281
 200:Drivers/STM32F4xx_HAL_Driver/Src/stm32f4xx_hal_dma_ex.c **** 
 2166              		.loc 1 200 5 discriminator 108 view .LVU415
 2167 0da8 02F58062 		add	r2, r2, #1024
 2168 0dac 9342     		cmp	r3, r2
 2169 0dae 2DD0     		beq	.L282
 200:Drivers/STM32F4xx_HAL_Driver/Src/stm32f4xx_hal_dma_ex.c **** 
 2170              		.loc 1 200 5 discriminator 110 view .LVU416
 2171 0db0 A2F58962 		sub	r2, r2, #1096
 2172 0db4 9342     		cmp	r3, r2
 2173 0db6 2BD0     		beq	.L283
 200:Drivers/STM32F4xx_HAL_Driver/Src/stm32f4xx_hal_dma_ex.c **** 
 2174              		.loc 1 200 5 discriminator 112 view .LVU417
 2175 0db8 02F58062 		add	r2, r2, #1024
 2176 0dbc 9342     		cmp	r3, r2
 2177 0dbe 29D0     		beq	.L284
 200:Drivers/STM32F4xx_HAL_Driver/Src/stm32f4xx_hal_dma_ex.c **** 
 2178              		.loc 1 200 5 discriminator 114 view .LVU418
 2179 0dc0 A2F56872 		sub	r2, r2, #928
 2180 0dc4 9342     		cmp	r3, r2
 2181 0dc6 27D0     		beq	.L285
 200:Drivers/STM32F4xx_HAL_Driver/Src/stm32f4xx_hal_dma_ex.c **** 
 2182              		.loc 1 200 5 discriminator 116 view .LVU419
 2183 0dc8 02F58062 		add	r2, r2, #1024
 2184 0dcc 9342     		cmp	r3, r2
 2185 0dce 25D0     		beq	.L286
 200:Drivers/STM32F4xx_HAL_Driver/Src/stm32f4xx_hal_dma_ex.c **** 
 2186              		.loc 1 200 5 discriminator 118 view .LVU420
 2187 0dd0 A2F58962 		sub	r2, r2, #1096
 2188 0dd4 9342     		cmp	r3, r2
 2189 0dd6 23D0     		beq	.L287
 200:Drivers/STM32F4xx_HAL_Driver/Src/stm32f4xx_hal_dma_ex.c **** 
 2190              		.loc 1 200 5 discriminator 120 view .LVU421
 2191 0dd8 02F58062 		add	r2, r2, #1024
 2192 0ddc 9342     		cmp	r3, r2
 2193 0dde 22D0     		beq	.L288
 200:Drivers/STM32F4xx_HAL_Driver/Src/stm32f4xx_hal_dma_ex.c **** 
 2194              		.loc 1 200 5 discriminator 122 view .LVU422
 2195 0de0 A2F56872 		sub	r2, r2, #928
 2196 0de4 9342     		cmp	r3, r2
 2197 0de6 21D0     		beq	.L289
 200:Drivers/STM32F4xx_HAL_Driver/Src/stm32f4xx_hal_dma_ex.c **** 
 2198              		.loc 1 200 5 discriminator 124 view .LVU423
 2199 0de8 02F58062 		add	r2, r2, #1024
 2200 0dec 9342     		cmp	r3, r2
 2201 0dee 02D0     		beq	.L325
 200:Drivers/STM32F4xx_HAL_Driver/Src/stm32f4xx_hal_dma_ex.c **** 
 2202              		.loc 1 200 5 view .LVU424
ARM GAS  C:\Users\12990\AppData\Local\Temp\cc1clWBF.s 			page 52


 2203 0df0 4FF48003 		mov	r3, #4194304
 2204 0df4 03E0     		b	.L58
 2205              	.L325:
 2206 0df6 4FF48033 		mov	r3, #65536
 2207 0dfa 00E0     		b	.L58
 2208              	.L279:
 2209 0dfc 0123     		movs	r3, #1
 2210              	.L58:
 200:Drivers/STM32F4xx_HAL_Driver/Src/stm32f4xx_hal_dma_ex.c **** 
 2211              		.loc 1 200 5 discriminator 151 view .LVU425
 2212 0dfe 0E4A     		ldr	r2, .L335+4
 2213 0e00 D360     		str	r3, [r2, #12]
 2214 0e02 3EE7     		b	.L54
 2215              	.L280:
 200:Drivers/STM32F4xx_HAL_Driver/Src/stm32f4xx_hal_dma_ex.c **** 
 2216              		.loc 1 200 5 view .LVU426
 2217 0e04 0123     		movs	r3, #1
 2218 0e06 FAE7     		b	.L58
 2219              	.L281:
 2220 0e08 0123     		movs	r3, #1
 2221 0e0a F8E7     		b	.L58
 2222              	.L282:
 2223 0e0c 0123     		movs	r3, #1
 2224 0e0e F6E7     		b	.L58
 2225              	.L283:
 2226 0e10 4023     		movs	r3, #64
 2227 0e12 F4E7     		b	.L58
 2228              	.L284:
 2229 0e14 4023     		movs	r3, #64
 2230 0e16 F2E7     		b	.L58
 2231              	.L285:
 2232 0e18 4023     		movs	r3, #64
 2233 0e1a F0E7     		b	.L58
 2234              	.L286:
 2235 0e1c 4023     		movs	r3, #64
 2236 0e1e EEE7     		b	.L58
 2237              	.L287:
 2238 0e20 4FF48033 		mov	r3, #65536
 2239 0e24 EBE7     		b	.L58
 2240              	.L288:
 2241 0e26 4FF48033 		mov	r3, #65536
 2242 0e2a E8E7     		b	.L58
 2243              	.L289:
 2244 0e2c 4FF48033 		mov	r3, #65536
 2245 0e30 E5E7     		b	.L58
 2246              	.L336:
 2247 0e32 00BF     		.align	2
 2248              	.L335:
 2249 0e34 10600240 		.word	1073897488
 2250 0e38 00600240 		.word	1073897472
 2251 0e3c 00640240 		.word	1073898496
 2252 0e40 B8600240 		.word	1073897656
 2253 0e44 58600240 		.word	1073897560
 2254              	.L57:
 200:Drivers/STM32F4xx_HAL_Driver/Src/stm32f4xx_hal_dma_ex.c **** 
 2255              		.loc 1 200 5 discriminator 103 view .LVU427
 2256 0e48 2B4A     		ldr	r2, .L337
ARM GAS  C:\Users\12990\AppData\Local\Temp\cc1clWBF.s 			page 53


 2257 0e4a 9342     		cmp	r3, r2
 2258 0e4c 31D0     		beq	.L291
 200:Drivers/STM32F4xx_HAL_Driver/Src/stm32f4xx_hal_dma_ex.c **** 
 2259              		.loc 1 200 5 discriminator 153 view .LVU428
 2260 0e4e 02F58062 		add	r2, r2, #1024
 2261 0e52 9342     		cmp	r3, r2
 2262 0e54 31D0     		beq	.L292
 200:Drivers/STM32F4xx_HAL_Driver/Src/stm32f4xx_hal_dma_ex.c **** 
 2263              		.loc 1 200 5 discriminator 155 view .LVU429
 2264 0e56 A2F56872 		sub	r2, r2, #928
 2265 0e5a 9342     		cmp	r3, r2
 2266 0e5c 2FD0     		beq	.L293
 200:Drivers/STM32F4xx_HAL_Driver/Src/stm32f4xx_hal_dma_ex.c **** 
 2267              		.loc 1 200 5 discriminator 157 view .LVU430
 2268 0e5e 02F58062 		add	r2, r2, #1024
 2269 0e62 9342     		cmp	r3, r2
 2270 0e64 2DD0     		beq	.L294
 200:Drivers/STM32F4xx_HAL_Driver/Src/stm32f4xx_hal_dma_ex.c **** 
 2271              		.loc 1 200 5 discriminator 159 view .LVU431
 2272 0e66 A2F58962 		sub	r2, r2, #1096
 2273 0e6a 9342     		cmp	r3, r2
 2274 0e6c 2BD0     		beq	.L295
 200:Drivers/STM32F4xx_HAL_Driver/Src/stm32f4xx_hal_dma_ex.c **** 
 2275              		.loc 1 200 5 discriminator 161 view .LVU432
 2276 0e6e 02F58062 		add	r2, r2, #1024
 2277 0e72 9342     		cmp	r3, r2
 2278 0e74 29D0     		beq	.L296
 200:Drivers/STM32F4xx_HAL_Driver/Src/stm32f4xx_hal_dma_ex.c **** 
 2279              		.loc 1 200 5 discriminator 163 view .LVU433
 2280 0e76 A2F56872 		sub	r2, r2, #928
 2281 0e7a 9342     		cmp	r3, r2
 2282 0e7c 27D0     		beq	.L297
 200:Drivers/STM32F4xx_HAL_Driver/Src/stm32f4xx_hal_dma_ex.c **** 
 2283              		.loc 1 200 5 discriminator 165 view .LVU434
 2284 0e7e 02F58062 		add	r2, r2, #1024
 2285 0e82 9342     		cmp	r3, r2
 2286 0e84 25D0     		beq	.L298
 200:Drivers/STM32F4xx_HAL_Driver/Src/stm32f4xx_hal_dma_ex.c **** 
 2287              		.loc 1 200 5 discriminator 167 view .LVU435
 2288 0e86 A2F58962 		sub	r2, r2, #1096
 2289 0e8a 9342     		cmp	r3, r2
 2290 0e8c 23D0     		beq	.L299
 200:Drivers/STM32F4xx_HAL_Driver/Src/stm32f4xx_hal_dma_ex.c **** 
 2291              		.loc 1 200 5 discriminator 169 view .LVU436
 2292 0e8e 02F58062 		add	r2, r2, #1024
 2293 0e92 9342     		cmp	r3, r2
 2294 0e94 22D0     		beq	.L300
 200:Drivers/STM32F4xx_HAL_Driver/Src/stm32f4xx_hal_dma_ex.c **** 
 2295              		.loc 1 200 5 discriminator 171 view .LVU437
 2296 0e96 A2F56872 		sub	r2, r2, #928
 2297 0e9a 9342     		cmp	r3, r2
 2298 0e9c 21D0     		beq	.L301
 200:Drivers/STM32F4xx_HAL_Driver/Src/stm32f4xx_hal_dma_ex.c **** 
 2299              		.loc 1 200 5 discriminator 173 view .LVU438
 2300 0e9e 02F58062 		add	r2, r2, #1024
 2301 0ea2 9342     		cmp	r3, r2
 2302 0ea4 02D0     		beq	.L326
ARM GAS  C:\Users\12990\AppData\Local\Temp\cc1clWBF.s 			page 54


 200:Drivers/STM32F4xx_HAL_Driver/Src/stm32f4xx_hal_dma_ex.c **** 
 2303              		.loc 1 200 5 view .LVU439
 2304 0ea6 4FF48003 		mov	r3, #4194304
 2305 0eaa 03E0     		b	.L59
 2306              	.L326:
 2307 0eac 4FF48033 		mov	r3, #65536
 2308 0eb0 00E0     		b	.L59
 2309              	.L291:
 2310 0eb2 0123     		movs	r3, #1
 2311              	.L59:
 200:Drivers/STM32F4xx_HAL_Driver/Src/stm32f4xx_hal_dma_ex.c **** 
 2312              		.loc 1 200 5 discriminator 200 view .LVU440
 2313 0eb4 114A     		ldr	r2, .L337+4
 2314 0eb6 9360     		str	r3, [r2, #8]
 2315 0eb8 E3E6     		b	.L54
 2316              	.L292:
 200:Drivers/STM32F4xx_HAL_Driver/Src/stm32f4xx_hal_dma_ex.c **** 
 2317              		.loc 1 200 5 view .LVU441
 2318 0eba 0123     		movs	r3, #1
 2319 0ebc FAE7     		b	.L59
 2320              	.L293:
 2321 0ebe 0123     		movs	r3, #1
 2322 0ec0 F8E7     		b	.L59
 2323              	.L294:
 2324 0ec2 0123     		movs	r3, #1
 2325 0ec4 F6E7     		b	.L59
 2326              	.L295:
 2327 0ec6 4023     		movs	r3, #64
 2328 0ec8 F4E7     		b	.L59
 2329              	.L296:
 2330 0eca 4023     		movs	r3, #64
 2331 0ecc F2E7     		b	.L59
 2332              	.L297:
 2333 0ece 4023     		movs	r3, #64
 2334 0ed0 F0E7     		b	.L59
 2335              	.L298:
 2336 0ed2 4023     		movs	r3, #64
 2337 0ed4 EEE7     		b	.L59
 2338              	.L299:
 2339 0ed6 4FF48033 		mov	r3, #65536
 2340 0eda EBE7     		b	.L59
 2341              	.L300:
 2342 0edc 4FF48033 		mov	r3, #65536
 2343 0ee0 E8E7     		b	.L59
 2344              	.L301:
 2345 0ee2 4FF48033 		mov	r3, #65536
 2346 0ee6 E5E7     		b	.L59
 2347              	.L323:
 206:Drivers/STM32F4xx_HAL_Driver/Src/stm32f4xx_hal_dma_ex.c ****     {
 2348              		.loc 1 206 53 discriminator 1 view .LVU442
 2349 0ee8 A36C     		ldr	r3, [r4, #72]
 206:Drivers/STM32F4xx_HAL_Driver/Src/stm32f4xx_hal_dma_ex.c ****     {
 2350              		.loc 1 206 45 discriminator 1 view .LVU443
 2351 0eea 002B     		cmp	r3, #0
 2352 0eec 7FF4D7AE 		bne	.L60
 2353 0ef0 DAE6     		b	.L61
 2354              	.LVL40:
ARM GAS  C:\Users\12990\AppData\Local\Temp\cc1clWBF.s 			page 55


 2355              	.L62:
 176:Drivers/STM32F4xx_HAL_Driver/Src/stm32f4xx_hal_dma_ex.c ****   
 2356              		.loc 1 176 3 view .LVU444
 2357 0ef2 0220     		movs	r0, #2
 2358 0ef4 FFF7A9B8 		b	.L16
 2359              	.L338:
 2360              		.align	2
 2361              	.L337:
 2362 0ef8 10600240 		.word	1073897488
 2363 0efc 00600240 		.word	1073897472
 2364              		.cfi_endproc
 2365              	.LFE131:
 2367              		.section	.text.HAL_DMAEx_ChangeMemory,"ax",%progbits
 2368              		.align	1
 2369              		.global	HAL_DMAEx_ChangeMemory
 2370              		.syntax unified
 2371              		.thumb
 2372              		.thumb_func
 2374              	HAL_DMAEx_ChangeMemory:
 2375              	.LVL41:
 2376              	.LFB132:
 240:Drivers/STM32F4xx_HAL_Driver/Src/stm32f4xx_hal_dma_ex.c ****   if(memory == MEMORY0)
 2377              		.loc 1 240 1 is_stmt 1 view -0
 2378              		.cfi_startproc
 2379              		@ args = 0, pretend = 0, frame = 0
 2380              		@ frame_needed = 0, uses_anonymous_args = 0
 2381              		@ link register save eliminated.
 241:Drivers/STM32F4xx_HAL_Driver/Src/stm32f4xx_hal_dma_ex.c ****   {
 2382              		.loc 1 241 3 view .LVU446
 241:Drivers/STM32F4xx_HAL_Driver/Src/stm32f4xx_hal_dma_ex.c ****   {
 2383              		.loc 1 241 5 is_stmt 0 view .LVU447
 2384 0000 1AB9     		cbnz	r2, .L340
 244:Drivers/STM32F4xx_HAL_Driver/Src/stm32f4xx_hal_dma_ex.c ****   }
 2385              		.loc 1 244 5 is_stmt 1 view .LVU448
 244:Drivers/STM32F4xx_HAL_Driver/Src/stm32f4xx_hal_dma_ex.c ****   }
 2386              		.loc 1 244 9 is_stmt 0 view .LVU449
 2387 0002 0368     		ldr	r3, [r0]
 244:Drivers/STM32F4xx_HAL_Driver/Src/stm32f4xx_hal_dma_ex.c ****   }
 2388              		.loc 1 244 26 view .LVU450
 2389 0004 D960     		str	r1, [r3, #12]
 2390              	.L341:
 252:Drivers/STM32F4xx_HAL_Driver/Src/stm32f4xx_hal_dma_ex.c **** }
 2391              		.loc 1 252 3 is_stmt 1 view .LVU451
 253:Drivers/STM32F4xx_HAL_Driver/Src/stm32f4xx_hal_dma_ex.c **** 
 2392              		.loc 1 253 1 is_stmt 0 view .LVU452
 2393 0006 0020     		movs	r0, #0
 2394              	.LVL42:
 253:Drivers/STM32F4xx_HAL_Driver/Src/stm32f4xx_hal_dma_ex.c **** 
 2395              		.loc 1 253 1 view .LVU453
 2396 0008 7047     		bx	lr
 2397              	.LVL43:
 2398              	.L340:
 249:Drivers/STM32F4xx_HAL_Driver/Src/stm32f4xx_hal_dma_ex.c ****   }
 2399              		.loc 1 249 5 is_stmt 1 view .LVU454
 249:Drivers/STM32F4xx_HAL_Driver/Src/stm32f4xx_hal_dma_ex.c ****   }
 2400              		.loc 1 249 9 is_stmt 0 view .LVU455
 2401 000a 0368     		ldr	r3, [r0]
ARM GAS  C:\Users\12990\AppData\Local\Temp\cc1clWBF.s 			page 56


 249:Drivers/STM32F4xx_HAL_Driver/Src/stm32f4xx_hal_dma_ex.c ****   }
 2402              		.loc 1 249 26 view .LVU456
 2403 000c 1961     		str	r1, [r3, #16]
 2404 000e FAE7     		b	.L341
 2405              		.cfi_endproc
 2406              	.LFE132:
 2408              		.text
 2409              	.Letext0:
 2410              		.file 2 "c:\\program files (x86)\\gnu arm embedded toolchain\\10 2021.10\\arm-none-eabi\\include\\
 2411              		.file 3 "c:\\program files (x86)\\gnu arm embedded toolchain\\10 2021.10\\arm-none-eabi\\include\\
 2412              		.file 4 "Drivers/CMSIS/Device/ST/STM32F4xx/Include/stm32f407xx.h"
 2413              		.file 5 "Drivers/STM32F4xx_HAL_Driver/Inc/stm32f4xx_hal_def.h"
 2414              		.file 6 "Drivers/STM32F4xx_HAL_Driver/Inc/stm32f4xx_hal_dma.h"
 2415              		.file 7 "Drivers/STM32F4xx_HAL_Driver/Inc/stm32f4xx_hal_dma_ex.h"
ARM GAS  C:\Users\12990\AppData\Local\Temp\cc1clWBF.s 			page 57

